
Test2.elf:     file format elf32-avr

Sections:
Idx Name          Size      VMA       LMA       File off  Algn
  0 .data         00000414  00800200  00009f80  0000a014  2**0
                  CONTENTS, ALLOC, LOAD, DATA
  1 .text         00009f80  00000000  00000000  00000094  2**1
                  CONTENTS, ALLOC, LOAD, READONLY, CODE
  2 .bss          000003c5  00800614  00800614  0000a428  2**0
                  ALLOC
  3 .debug_aranges 00000200  00000000  00000000  0000a428  2**0
                  CONTENTS, READONLY, DEBUGGING
  4 .debug_pubnames 000002c9  00000000  00000000  0000a628  2**0
                  CONTENTS, READONLY, DEBUGGING
  5 .debug_info   0000284a  00000000  00000000  0000a8f1  2**0
                  CONTENTS, READONLY, DEBUGGING
  6 .debug_abbrev 00001642  00000000  00000000  0000d13b  2**0
                  CONTENTS, READONLY, DEBUGGING
  7 .debug_line   0000176c  00000000  00000000  0000e77d  2**0
                  CONTENTS, READONLY, DEBUGGING
  8 .debug_frame  00000260  00000000  00000000  0000feec  2**2
                  CONTENTS, READONLY, DEBUGGING
  9 .debug_str    000004bb  00000000  00000000  0001014c  2**0
                  CONTENTS, READONLY, DEBUGGING
 10 .debug_loc    00000eca  00000000  00000000  00010607  2**0
                  CONTENTS, READONLY, DEBUGGING
 11 .debug_ranges 00000050  00000000  00000000  000114d1  2**0
                  CONTENTS, READONLY, DEBUGGING

Disassembly of section .text:

00000000 <__vectors>:
       0:	0c 94 06 01 	jmp	0x20c	; 0x20c <__dtors_end>
       4:	0c 94 31 01 	jmp	0x262	; 0x262 <__bad_interrupt>
       8:	0c 94 31 01 	jmp	0x262	; 0x262 <__bad_interrupt>
       c:	0c 94 31 01 	jmp	0x262	; 0x262 <__bad_interrupt>
      10:	0c 94 31 01 	jmp	0x262	; 0x262 <__bad_interrupt>
      14:	0c 94 31 01 	jmp	0x262	; 0x262 <__bad_interrupt>
      18:	0c 94 31 01 	jmp	0x262	; 0x262 <__bad_interrupt>
      1c:	0c 94 31 01 	jmp	0x262	; 0x262 <__bad_interrupt>
      20:	0c 94 31 01 	jmp	0x262	; 0x262 <__bad_interrupt>
      24:	0c 94 31 01 	jmp	0x262	; 0x262 <__bad_interrupt>
      28:	0c 94 31 01 	jmp	0x262	; 0x262 <__bad_interrupt>
      2c:	0c 94 31 01 	jmp	0x262	; 0x262 <__bad_interrupt>
      30:	0c 94 31 01 	jmp	0x262	; 0x262 <__bad_interrupt>
      34:	0c 94 31 01 	jmp	0x262	; 0x262 <__bad_interrupt>
      38:	0c 94 31 01 	jmp	0x262	; 0x262 <__bad_interrupt>
      3c:	0c 94 31 01 	jmp	0x262	; 0x262 <__bad_interrupt>
      40:	0c 94 31 01 	jmp	0x262	; 0x262 <__bad_interrupt>
      44:	0c 94 31 01 	jmp	0x262	; 0x262 <__bad_interrupt>
      48:	0c 94 31 01 	jmp	0x262	; 0x262 <__bad_interrupt>
      4c:	0c 94 31 01 	jmp	0x262	; 0x262 <__bad_interrupt>
      50:	0c 94 31 01 	jmp	0x262	; 0x262 <__bad_interrupt>
      54:	0c 94 31 01 	jmp	0x262	; 0x262 <__bad_interrupt>
      58:	0c 94 31 01 	jmp	0x262	; 0x262 <__bad_interrupt>
      5c:	0c 94 9a 4b 	jmp	0x9734	; 0x9734 <__vector_23>
      60:	0c 94 31 01 	jmp	0x262	; 0x262 <__bad_interrupt>
      64:	0c 94 2c 3d 	jmp	0x7a58	; 0x7a58 <__vector_25>
      68:	0c 94 31 01 	jmp	0x262	; 0x262 <__bad_interrupt>
      6c:	0c 94 31 01 	jmp	0x262	; 0x262 <__bad_interrupt>
      70:	0c 94 31 01 	jmp	0x262	; 0x262 <__bad_interrupt>
      74:	0c 94 31 01 	jmp	0x262	; 0x262 <__bad_interrupt>
      78:	0c 94 31 01 	jmp	0x262	; 0x262 <__bad_interrupt>
      7c:	0c 94 31 01 	jmp	0x262	; 0x262 <__bad_interrupt>
      80:	0c 94 31 01 	jmp	0x262	; 0x262 <__bad_interrupt>
      84:	0c 94 31 01 	jmp	0x262	; 0x262 <__bad_interrupt>
      88:	0c 94 31 01 	jmp	0x262	; 0x262 <__bad_interrupt>
      8c:	0c 94 31 01 	jmp	0x262	; 0x262 <__bad_interrupt>
      90:	0c 94 61 3d 	jmp	0x7ac2	; 0x7ac2 <__vector_36>
      94:	0c 94 31 01 	jmp	0x262	; 0x262 <__bad_interrupt>
      98:	0c 94 31 01 	jmp	0x262	; 0x262 <__bad_interrupt>
      9c:	0c 94 31 01 	jmp	0x262	; 0x262 <__bad_interrupt>
      a0:	0c 94 31 01 	jmp	0x262	; 0x262 <__bad_interrupt>
      a4:	0c 94 31 01 	jmp	0x262	; 0x262 <__bad_interrupt>
      a8:	0c 94 31 01 	jmp	0x262	; 0x262 <__bad_interrupt>
      ac:	0c 94 31 01 	jmp	0x262	; 0x262 <__bad_interrupt>
      b0:	0c 94 31 01 	jmp	0x262	; 0x262 <__bad_interrupt>
      b4:	0c 94 31 01 	jmp	0x262	; 0x262 <__bad_interrupt>
      b8:	0c 94 31 01 	jmp	0x262	; 0x262 <__bad_interrupt>
      bc:	0c 94 31 01 	jmp	0x262	; 0x262 <__bad_interrupt>
      c0:	0c 94 31 01 	jmp	0x262	; 0x262 <__bad_interrupt>
      c4:	0c 94 31 01 	jmp	0x262	; 0x262 <__bad_interrupt>
      c8:	0c 94 31 01 	jmp	0x262	; 0x262 <__bad_interrupt>
      cc:	0c 94 96 3d 	jmp	0x7b2c	; 0x7b2c <__vector_51>
      d0:	0c 94 31 01 	jmp	0x262	; 0x262 <__bad_interrupt>
      d4:	0c 94 31 01 	jmp	0x262	; 0x262 <__bad_interrupt>
      d8:	0c 94 cb 3d 	jmp	0x7b96	; 0x7b96 <__vector_54>
      dc:	0c 94 31 01 	jmp	0x262	; 0x262 <__bad_interrupt>
      e0:	0c 94 31 01 	jmp	0x262	; 0x262 <__bad_interrupt>

000000e4 <port_to_mode_PGM>:
      e4:	00 00 21 00 24 00 27 00 2a 00 2d 00 30 00 33 00     ..!.$.'.*.-.0.3.
      f4:	01 01 00 00 04 01 07 01 0a 01                       ..........

000000fe <port_to_output_PGM>:
      fe:	00 00 22 00 25 00 28 00 2b 00 2e 00 31 00 34 00     ..".%.(.+...1.4.
     10e:	02 01 00 00 05 01 08 01 0b 01                       ..........

00000118 <port_to_input_PGM>:
     118:	00 00 20 00 23 00 26 00 29 00 2c 00 2f 00 32 00     .. .#.&.).,./.2.
     128:	00 01 00 00 03 01 06 01 09 01                       ..........

00000132 <digital_pin_to_port_PGM>:
     132:	05 05 05 05 07 05 08 08 08 08 02 02 02 02 0a 0a     ................
     142:	08 08 04 04 04 04 01 01 01 01 01 01 01 01 03 03     ................
     152:	03 03 03 03 03 03 04 07 07 07 0c 0c 0c 0c 0c 0c     ................
     162:	0c 0c 02 02 02 02 06 06 06 06 06 06 06 06 0b 0b     ................
     172:	0b 0b 0b 0b 0b 0b                                   ......

00000178 <digital_pin_to_bit_mask_PGM>:
     178:	01 02 10 20 20 08 08 10 20 40 10 20 40 80 02 01     ...  ... @. @...
     188:	02 01 08 04 02 01 01 02 04 08 10 20 40 80 80 40     ........... @..@
     198:	20 10 08 04 02 01 80 04 02 01 80 40 20 10 08 04      ..........@ ...
     1a8:	02 01 08 04 02 01 01 02 04 08 10 20 40 80 01 02     ........... @...
     1b8:	04 08 10 20 40 80                                   ... @.

000001be <digital_pin_to_timer_PGM>:
     1be:	00 00 09 0a 02 08 0b 0c 0d 07 06 03 04 01 00 00     ................
	...
     1ea:	10 0f 0e 00 00 00 00 00 00 00 00 00 00 00 00 00     ................
	...

00000204 <__ctors_start>:
     204:	36 0c       	add	r3, r6
     206:	83 1e       	adc	r8, r19
     208:	51 3f       	cpi	r21, 0xF1	; 241

0000020a <__ctors_end>:
     20a:	2f 0c       	add	r2, r15

0000020c <__dtors_end>:
     20c:	11 24       	eor	r1, r1
     20e:	1f be       	out	0x3f, r1	; 63
     210:	cf ef       	ldi	r28, 0xFF	; 255
     212:	d1 e2       	ldi	r29, 0x21	; 33
     214:	de bf       	out	0x3e, r29	; 62
     216:	cd bf       	out	0x3d, r28	; 61

00000218 <__do_copy_data>:
     218:	16 e0       	ldi	r17, 0x06	; 6
     21a:	a0 e0       	ldi	r26, 0x00	; 0
     21c:	b2 e0       	ldi	r27, 0x02	; 2
     21e:	e0 e8       	ldi	r30, 0x80	; 128
     220:	ff e9       	ldi	r31, 0x9F	; 159
     222:	00 e0       	ldi	r16, 0x00	; 0
     224:	0b bf       	out	0x3b, r16	; 59
     226:	02 c0       	rjmp	.+4      	; 0x22c <__do_copy_data+0x14>
     228:	07 90       	elpm	r0, Z+
     22a:	0d 92       	st	X+, r0
     22c:	a4 31       	cpi	r26, 0x14	; 20
     22e:	b1 07       	cpc	r27, r17
     230:	d9 f7       	brne	.-10     	; 0x228 <__do_copy_data+0x10>
     232:	1b be       	out	0x3b, r1	; 59

00000234 <__do_clear_bss>:
     234:	19 e0       	ldi	r17, 0x09	; 9
     236:	a4 e1       	ldi	r26, 0x14	; 20
     238:	b6 e0       	ldi	r27, 0x06	; 6
     23a:	01 c0       	rjmp	.+2      	; 0x23e <.do_clear_bss_start>

0000023c <.do_clear_bss_loop>:
     23c:	1d 92       	st	X+, r1

0000023e <.do_clear_bss_start>:
     23e:	a9 3d       	cpi	r26, 0xD9	; 217
     240:	b1 07       	cpc	r27, r17
     242:	e1 f7       	brne	.-8      	; 0x23c <.do_clear_bss_loop>

00000244 <__do_global_ctors>:
     244:	12 e0       	ldi	r17, 0x02	; 2
     246:	ca e0       	ldi	r28, 0x0A	; 10
     248:	d2 e0       	ldi	r29, 0x02	; 2
     24a:	04 c0       	rjmp	.+8      	; 0x254 <.do_global_ctors_start>

0000024c <.do_global_ctors_loop>:
     24c:	22 97       	sbiw	r28, 0x02	; 2
     24e:	fe 01       	movw	r30, r28
     250:	0e 94 80 4f 	call	0x9f00	; 0x9f00 <__tablejump__>

00000254 <.do_global_ctors_start>:
     254:	c4 30       	cpi	r28, 0x04	; 4
     256:	d1 07       	cpc	r29, r17
     258:	c9 f7       	brne	.-14     	; 0x24c <.do_global_ctors_loop>
     25a:	0e 94 71 0d 	call	0x1ae2	; 0x1ae2 <main>
     25e:	0c 94 b3 4f 	jmp	0x9f66	; 0x9f66 <__do_global_dtors>

00000262 <__bad_interrupt>:
     262:	0c 94 00 00 	jmp	0	; 0x0 <__vectors>

00000266 <__fixunssfsi>:
     266:	ef 92       	push	r14
     268:	ff 92       	push	r15
     26a:	0f 93       	push	r16
     26c:	1f 93       	push	r17
     26e:	7b 01       	movw	r14, r22
     270:	8c 01       	movw	r16, r24
     272:	20 e0       	ldi	r18, 0x00	; 0
     274:	30 e0       	ldi	r19, 0x00	; 0
     276:	40 e0       	ldi	r20, 0x00	; 0
     278:	5f e4       	ldi	r21, 0x4F	; 79
     27a:	0e 94 af 04 	call	0x95e	; 0x95e <__gesf2>
     27e:	88 23       	and	r24, r24
     280:	8c f0       	brlt	.+34     	; 0x2a4 <__fixunssfsi+0x3e>
     282:	c8 01       	movw	r24, r16
     284:	b7 01       	movw	r22, r14
     286:	20 e0       	ldi	r18, 0x00	; 0
     288:	30 e0       	ldi	r19, 0x00	; 0
     28a:	40 e0       	ldi	r20, 0x00	; 0
     28c:	5f e4       	ldi	r21, 0x4F	; 79
     28e:	0e 94 ab 02 	call	0x556	; 0x556 <__subsf3>
     292:	0e 94 6d 05 	call	0xada	; 0xada <__fixsfsi>
     296:	9b 01       	movw	r18, r22
     298:	ac 01       	movw	r20, r24
     29a:	20 50       	subi	r18, 0x00	; 0
     29c:	30 40       	sbci	r19, 0x00	; 0
     29e:	40 40       	sbci	r20, 0x00	; 0
     2a0:	50 48       	sbci	r21, 0x80	; 128
     2a2:	06 c0       	rjmp	.+12     	; 0x2b0 <__fixunssfsi+0x4a>
     2a4:	c8 01       	movw	r24, r16
     2a6:	b7 01       	movw	r22, r14
     2a8:	0e 94 6d 05 	call	0xada	; 0xada <__fixsfsi>
     2ac:	9b 01       	movw	r18, r22
     2ae:	ac 01       	movw	r20, r24
     2b0:	b9 01       	movw	r22, r18
     2b2:	ca 01       	movw	r24, r20
     2b4:	1f 91       	pop	r17
     2b6:	0f 91       	pop	r16
     2b8:	ff 90       	pop	r15
     2ba:	ef 90       	pop	r14
     2bc:	08 95       	ret

000002be <_fpadd_parts>:
     2be:	a0 e0       	ldi	r26, 0x00	; 0
     2c0:	b0 e0       	ldi	r27, 0x00	; 0
     2c2:	e5 e6       	ldi	r30, 0x65	; 101
     2c4:	f1 e0       	ldi	r31, 0x01	; 1
     2c6:	0c 94 47 4f 	jmp	0x9e8e	; 0x9e8e <__prologue_saves__>
     2ca:	dc 01       	movw	r26, r24
     2cc:	2b 01       	movw	r4, r22
     2ce:	fa 01       	movw	r30, r20
     2d0:	9c 91       	ld	r25, X
     2d2:	92 30       	cpi	r25, 0x02	; 2
     2d4:	08 f4       	brcc	.+2      	; 0x2d8 <_fpadd_parts+0x1a>
     2d6:	39 c1       	rjmp	.+626    	; 0x54a <_fpadd_parts+0x28c>
     2d8:	eb 01       	movw	r28, r22
     2da:	88 81       	ld	r24, Y
     2dc:	82 30       	cpi	r24, 0x02	; 2
     2de:	08 f4       	brcc	.+2      	; 0x2e2 <_fpadd_parts+0x24>
     2e0:	33 c1       	rjmp	.+614    	; 0x548 <_fpadd_parts+0x28a>
     2e2:	94 30       	cpi	r25, 0x04	; 4
     2e4:	69 f4       	brne	.+26     	; 0x300 <_fpadd_parts+0x42>
     2e6:	84 30       	cpi	r24, 0x04	; 4
     2e8:	09 f0       	breq	.+2      	; 0x2ec <_fpadd_parts+0x2e>
     2ea:	2f c1       	rjmp	.+606    	; 0x54a <_fpadd_parts+0x28c>
     2ec:	11 96       	adiw	r26, 0x01	; 1
     2ee:	9c 91       	ld	r25, X
     2f0:	11 97       	sbiw	r26, 0x01	; 1
     2f2:	89 81       	ldd	r24, Y+1	; 0x01
     2f4:	98 17       	cp	r25, r24
     2f6:	09 f4       	brne	.+2      	; 0x2fa <_fpadd_parts+0x3c>
     2f8:	28 c1       	rjmp	.+592    	; 0x54a <_fpadd_parts+0x28c>
     2fa:	a8 e2       	ldi	r26, 0x28	; 40
     2fc:	b4 e0       	ldi	r27, 0x04	; 4
     2fe:	25 c1       	rjmp	.+586    	; 0x54a <_fpadd_parts+0x28c>
     300:	84 30       	cpi	r24, 0x04	; 4
     302:	09 f4       	brne	.+2      	; 0x306 <_fpadd_parts+0x48>
     304:	21 c1       	rjmp	.+578    	; 0x548 <_fpadd_parts+0x28a>
     306:	82 30       	cpi	r24, 0x02	; 2
     308:	a9 f4       	brne	.+42     	; 0x334 <_fpadd_parts+0x76>
     30a:	92 30       	cpi	r25, 0x02	; 2
     30c:	09 f0       	breq	.+2      	; 0x310 <_fpadd_parts+0x52>
     30e:	1d c1       	rjmp	.+570    	; 0x54a <_fpadd_parts+0x28c>
     310:	9a 01       	movw	r18, r20
     312:	ad 01       	movw	r20, r26
     314:	88 e0       	ldi	r24, 0x08	; 8
     316:	ea 01       	movw	r28, r20
     318:	09 90       	ld	r0, Y+
     31a:	ae 01       	movw	r20, r28
     31c:	e9 01       	movw	r28, r18
     31e:	09 92       	st	Y+, r0
     320:	9e 01       	movw	r18, r28
     322:	81 50       	subi	r24, 0x01	; 1
     324:	c1 f7       	brne	.-16     	; 0x316 <_fpadd_parts+0x58>
     326:	e2 01       	movw	r28, r4
     328:	89 81       	ldd	r24, Y+1	; 0x01
     32a:	11 96       	adiw	r26, 0x01	; 1
     32c:	9c 91       	ld	r25, X
     32e:	89 23       	and	r24, r25
     330:	81 83       	std	Z+1, r24	; 0x01
     332:	08 c1       	rjmp	.+528    	; 0x544 <_fpadd_parts+0x286>
     334:	92 30       	cpi	r25, 0x02	; 2
     336:	09 f4       	brne	.+2      	; 0x33a <_fpadd_parts+0x7c>
     338:	07 c1       	rjmp	.+526    	; 0x548 <_fpadd_parts+0x28a>
     33a:	12 96       	adiw	r26, 0x02	; 2
     33c:	2d 90       	ld	r2, X+
     33e:	3c 90       	ld	r3, X
     340:	13 97       	sbiw	r26, 0x03	; 3
     342:	eb 01       	movw	r28, r22
     344:	8a 81       	ldd	r24, Y+2	; 0x02
     346:	9b 81       	ldd	r25, Y+3	; 0x03
     348:	14 96       	adiw	r26, 0x04	; 4
     34a:	ad 90       	ld	r10, X+
     34c:	bd 90       	ld	r11, X+
     34e:	cd 90       	ld	r12, X+
     350:	dc 90       	ld	r13, X
     352:	17 97       	sbiw	r26, 0x07	; 7
     354:	ec 80       	ldd	r14, Y+4	; 0x04
     356:	fd 80       	ldd	r15, Y+5	; 0x05
     358:	0e 81       	ldd	r16, Y+6	; 0x06
     35a:	1f 81       	ldd	r17, Y+7	; 0x07
     35c:	91 01       	movw	r18, r2
     35e:	28 1b       	sub	r18, r24
     360:	39 0b       	sbc	r19, r25
     362:	b9 01       	movw	r22, r18
     364:	37 ff       	sbrs	r19, 7
     366:	04 c0       	rjmp	.+8      	; 0x370 <_fpadd_parts+0xb2>
     368:	66 27       	eor	r22, r22
     36a:	77 27       	eor	r23, r23
     36c:	62 1b       	sub	r22, r18
     36e:	73 0b       	sbc	r23, r19
     370:	60 32       	cpi	r22, 0x20	; 32
     372:	71 05       	cpc	r23, r1
     374:	0c f0       	brlt	.+2      	; 0x378 <_fpadd_parts+0xba>
     376:	61 c0       	rjmp	.+194    	; 0x43a <_fpadd_parts+0x17c>
     378:	12 16       	cp	r1, r18
     37a:	13 06       	cpc	r1, r19
     37c:	6c f5       	brge	.+90     	; 0x3d8 <_fpadd_parts+0x11a>
     37e:	37 01       	movw	r6, r14
     380:	48 01       	movw	r8, r16
     382:	06 2e       	mov	r0, r22
     384:	04 c0       	rjmp	.+8      	; 0x38e <_fpadd_parts+0xd0>
     386:	96 94       	lsr	r9
     388:	87 94       	ror	r8
     38a:	77 94       	ror	r7
     38c:	67 94       	ror	r6
     38e:	0a 94       	dec	r0
     390:	d2 f7       	brpl	.-12     	; 0x386 <_fpadd_parts+0xc8>
     392:	21 e0       	ldi	r18, 0x01	; 1
     394:	30 e0       	ldi	r19, 0x00	; 0
     396:	40 e0       	ldi	r20, 0x00	; 0
     398:	50 e0       	ldi	r21, 0x00	; 0
     39a:	04 c0       	rjmp	.+8      	; 0x3a4 <_fpadd_parts+0xe6>
     39c:	22 0f       	add	r18, r18
     39e:	33 1f       	adc	r19, r19
     3a0:	44 1f       	adc	r20, r20
     3a2:	55 1f       	adc	r21, r21
     3a4:	6a 95       	dec	r22
     3a6:	d2 f7       	brpl	.-12     	; 0x39c <_fpadd_parts+0xde>
     3a8:	21 50       	subi	r18, 0x01	; 1
     3aa:	30 40       	sbci	r19, 0x00	; 0
     3ac:	40 40       	sbci	r20, 0x00	; 0
     3ae:	50 40       	sbci	r21, 0x00	; 0
     3b0:	2e 21       	and	r18, r14
     3b2:	3f 21       	and	r19, r15
     3b4:	40 23       	and	r20, r16
     3b6:	51 23       	and	r21, r17
     3b8:	21 15       	cp	r18, r1
     3ba:	31 05       	cpc	r19, r1
     3bc:	41 05       	cpc	r20, r1
     3be:	51 05       	cpc	r21, r1
     3c0:	21 f0       	breq	.+8      	; 0x3ca <_fpadd_parts+0x10c>
     3c2:	21 e0       	ldi	r18, 0x01	; 1
     3c4:	30 e0       	ldi	r19, 0x00	; 0
     3c6:	40 e0       	ldi	r20, 0x00	; 0
     3c8:	50 e0       	ldi	r21, 0x00	; 0
     3ca:	79 01       	movw	r14, r18
     3cc:	8a 01       	movw	r16, r20
     3ce:	e6 28       	or	r14, r6
     3d0:	f7 28       	or	r15, r7
     3d2:	08 29       	or	r16, r8
     3d4:	19 29       	or	r17, r9
     3d6:	3c c0       	rjmp	.+120    	; 0x450 <_fpadd_parts+0x192>
     3d8:	23 2b       	or	r18, r19
     3da:	d1 f1       	breq	.+116    	; 0x450 <_fpadd_parts+0x192>
     3dc:	26 0e       	add	r2, r22
     3de:	37 1e       	adc	r3, r23
     3e0:	35 01       	movw	r6, r10
     3e2:	46 01       	movw	r8, r12
     3e4:	06 2e       	mov	r0, r22
     3e6:	04 c0       	rjmp	.+8      	; 0x3f0 <_fpadd_parts+0x132>
     3e8:	96 94       	lsr	r9
     3ea:	87 94       	ror	r8
     3ec:	77 94       	ror	r7
     3ee:	67 94       	ror	r6
     3f0:	0a 94       	dec	r0
     3f2:	d2 f7       	brpl	.-12     	; 0x3e8 <_fpadd_parts+0x12a>
     3f4:	21 e0       	ldi	r18, 0x01	; 1
     3f6:	30 e0       	ldi	r19, 0x00	; 0
     3f8:	40 e0       	ldi	r20, 0x00	; 0
     3fa:	50 e0       	ldi	r21, 0x00	; 0
     3fc:	04 c0       	rjmp	.+8      	; 0x406 <_fpadd_parts+0x148>
     3fe:	22 0f       	add	r18, r18
     400:	33 1f       	adc	r19, r19
     402:	44 1f       	adc	r20, r20
     404:	55 1f       	adc	r21, r21
     406:	6a 95       	dec	r22
     408:	d2 f7       	brpl	.-12     	; 0x3fe <_fpadd_parts+0x140>
     40a:	21 50       	subi	r18, 0x01	; 1
     40c:	30 40       	sbci	r19, 0x00	; 0
     40e:	40 40       	sbci	r20, 0x00	; 0
     410:	50 40       	sbci	r21, 0x00	; 0
     412:	2a 21       	and	r18, r10
     414:	3b 21       	and	r19, r11
     416:	4c 21       	and	r20, r12
     418:	5d 21       	and	r21, r13
     41a:	21 15       	cp	r18, r1
     41c:	31 05       	cpc	r19, r1
     41e:	41 05       	cpc	r20, r1
     420:	51 05       	cpc	r21, r1
     422:	21 f0       	breq	.+8      	; 0x42c <_fpadd_parts+0x16e>
     424:	21 e0       	ldi	r18, 0x01	; 1
     426:	30 e0       	ldi	r19, 0x00	; 0
     428:	40 e0       	ldi	r20, 0x00	; 0
     42a:	50 e0       	ldi	r21, 0x00	; 0
     42c:	59 01       	movw	r10, r18
     42e:	6a 01       	movw	r12, r20
     430:	a6 28       	or	r10, r6
     432:	b7 28       	or	r11, r7
     434:	c8 28       	or	r12, r8
     436:	d9 28       	or	r13, r9
     438:	0b c0       	rjmp	.+22     	; 0x450 <_fpadd_parts+0x192>
     43a:	82 15       	cp	r24, r2
     43c:	93 05       	cpc	r25, r3
     43e:	2c f0       	brlt	.+10     	; 0x44a <_fpadd_parts+0x18c>
     440:	1c 01       	movw	r2, r24
     442:	aa 24       	eor	r10, r10
     444:	bb 24       	eor	r11, r11
     446:	65 01       	movw	r12, r10
     448:	03 c0       	rjmp	.+6      	; 0x450 <_fpadd_parts+0x192>
     44a:	ee 24       	eor	r14, r14
     44c:	ff 24       	eor	r15, r15
     44e:	87 01       	movw	r16, r14
     450:	11 96       	adiw	r26, 0x01	; 1
     452:	9c 91       	ld	r25, X
     454:	d2 01       	movw	r26, r4
     456:	11 96       	adiw	r26, 0x01	; 1
     458:	8c 91       	ld	r24, X
     45a:	98 17       	cp	r25, r24
     45c:	09 f4       	brne	.+2      	; 0x460 <_fpadd_parts+0x1a2>
     45e:	45 c0       	rjmp	.+138    	; 0x4ea <_fpadd_parts+0x22c>
     460:	99 23       	and	r25, r25
     462:	39 f0       	breq	.+14     	; 0x472 <_fpadd_parts+0x1b4>
     464:	a8 01       	movw	r20, r16
     466:	97 01       	movw	r18, r14
     468:	2a 19       	sub	r18, r10
     46a:	3b 09       	sbc	r19, r11
     46c:	4c 09       	sbc	r20, r12
     46e:	5d 09       	sbc	r21, r13
     470:	06 c0       	rjmp	.+12     	; 0x47e <_fpadd_parts+0x1c0>
     472:	a6 01       	movw	r20, r12
     474:	95 01       	movw	r18, r10
     476:	2e 19       	sub	r18, r14
     478:	3f 09       	sbc	r19, r15
     47a:	40 0b       	sbc	r20, r16
     47c:	51 0b       	sbc	r21, r17
     47e:	57 fd       	sbrc	r21, 7
     480:	08 c0       	rjmp	.+16     	; 0x492 <_fpadd_parts+0x1d4>
     482:	11 82       	std	Z+1, r1	; 0x01
     484:	33 82       	std	Z+3, r3	; 0x03
     486:	22 82       	std	Z+2, r2	; 0x02
     488:	24 83       	std	Z+4, r18	; 0x04
     48a:	35 83       	std	Z+5, r19	; 0x05
     48c:	46 83       	std	Z+6, r20	; 0x06
     48e:	57 83       	std	Z+7, r21	; 0x07
     490:	1d c0       	rjmp	.+58     	; 0x4cc <_fpadd_parts+0x20e>
     492:	81 e0       	ldi	r24, 0x01	; 1
     494:	81 83       	std	Z+1, r24	; 0x01
     496:	33 82       	std	Z+3, r3	; 0x03
     498:	22 82       	std	Z+2, r2	; 0x02
     49a:	88 27       	eor	r24, r24
     49c:	99 27       	eor	r25, r25
     49e:	dc 01       	movw	r26, r24
     4a0:	82 1b       	sub	r24, r18
     4a2:	93 0b       	sbc	r25, r19
     4a4:	a4 0b       	sbc	r26, r20
     4a6:	b5 0b       	sbc	r27, r21
     4a8:	84 83       	std	Z+4, r24	; 0x04
     4aa:	95 83       	std	Z+5, r25	; 0x05
     4ac:	a6 83       	std	Z+6, r26	; 0x06
     4ae:	b7 83       	std	Z+7, r27	; 0x07
     4b0:	0d c0       	rjmp	.+26     	; 0x4cc <_fpadd_parts+0x20e>
     4b2:	22 0f       	add	r18, r18
     4b4:	33 1f       	adc	r19, r19
     4b6:	44 1f       	adc	r20, r20
     4b8:	55 1f       	adc	r21, r21
     4ba:	24 83       	std	Z+4, r18	; 0x04
     4bc:	35 83       	std	Z+5, r19	; 0x05
     4be:	46 83       	std	Z+6, r20	; 0x06
     4c0:	57 83       	std	Z+7, r21	; 0x07
     4c2:	82 81       	ldd	r24, Z+2	; 0x02
     4c4:	93 81       	ldd	r25, Z+3	; 0x03
     4c6:	01 97       	sbiw	r24, 0x01	; 1
     4c8:	93 83       	std	Z+3, r25	; 0x03
     4ca:	82 83       	std	Z+2, r24	; 0x02
     4cc:	24 81       	ldd	r18, Z+4	; 0x04
     4ce:	35 81       	ldd	r19, Z+5	; 0x05
     4d0:	46 81       	ldd	r20, Z+6	; 0x06
     4d2:	57 81       	ldd	r21, Z+7	; 0x07
     4d4:	da 01       	movw	r26, r20
     4d6:	c9 01       	movw	r24, r18
     4d8:	01 97       	sbiw	r24, 0x01	; 1
     4da:	a1 09       	sbc	r26, r1
     4dc:	b1 09       	sbc	r27, r1
     4de:	8f 5f       	subi	r24, 0xFF	; 255
     4e0:	9f 4f       	sbci	r25, 0xFF	; 255
     4e2:	af 4f       	sbci	r26, 0xFF	; 255
     4e4:	bf 43       	sbci	r27, 0x3F	; 63
     4e6:	28 f3       	brcs	.-54     	; 0x4b2 <_fpadd_parts+0x1f4>
     4e8:	0b c0       	rjmp	.+22     	; 0x500 <_fpadd_parts+0x242>
     4ea:	91 83       	std	Z+1, r25	; 0x01
     4ec:	33 82       	std	Z+3, r3	; 0x03
     4ee:	22 82       	std	Z+2, r2	; 0x02
     4f0:	ea 0c       	add	r14, r10
     4f2:	fb 1c       	adc	r15, r11
     4f4:	0c 1d       	adc	r16, r12
     4f6:	1d 1d       	adc	r17, r13
     4f8:	e4 82       	std	Z+4, r14	; 0x04
     4fa:	f5 82       	std	Z+5, r15	; 0x05
     4fc:	06 83       	std	Z+6, r16	; 0x06
     4fe:	17 83       	std	Z+7, r17	; 0x07
     500:	83 e0       	ldi	r24, 0x03	; 3
     502:	80 83       	st	Z, r24
     504:	24 81       	ldd	r18, Z+4	; 0x04
     506:	35 81       	ldd	r19, Z+5	; 0x05
     508:	46 81       	ldd	r20, Z+6	; 0x06
     50a:	57 81       	ldd	r21, Z+7	; 0x07
     50c:	57 ff       	sbrs	r21, 7
     50e:	1a c0       	rjmp	.+52     	; 0x544 <_fpadd_parts+0x286>
     510:	c9 01       	movw	r24, r18
     512:	aa 27       	eor	r26, r26
     514:	97 fd       	sbrc	r25, 7
     516:	a0 95       	com	r26
     518:	ba 2f       	mov	r27, r26
     51a:	81 70       	andi	r24, 0x01	; 1
     51c:	90 70       	andi	r25, 0x00	; 0
     51e:	a0 70       	andi	r26, 0x00	; 0
     520:	b0 70       	andi	r27, 0x00	; 0
     522:	56 95       	lsr	r21
     524:	47 95       	ror	r20
     526:	37 95       	ror	r19
     528:	27 95       	ror	r18
     52a:	82 2b       	or	r24, r18
     52c:	93 2b       	or	r25, r19
     52e:	a4 2b       	or	r26, r20
     530:	b5 2b       	or	r27, r21
     532:	84 83       	std	Z+4, r24	; 0x04
     534:	95 83       	std	Z+5, r25	; 0x05
     536:	a6 83       	std	Z+6, r26	; 0x06
     538:	b7 83       	std	Z+7, r27	; 0x07
     53a:	82 81       	ldd	r24, Z+2	; 0x02
     53c:	93 81       	ldd	r25, Z+3	; 0x03
     53e:	01 96       	adiw	r24, 0x01	; 1
     540:	93 83       	std	Z+3, r25	; 0x03
     542:	82 83       	std	Z+2, r24	; 0x02
     544:	df 01       	movw	r26, r30
     546:	01 c0       	rjmp	.+2      	; 0x54a <_fpadd_parts+0x28c>
     548:	d2 01       	movw	r26, r4
     54a:	cd 01       	movw	r24, r26
     54c:	cd b7       	in	r28, 0x3d	; 61
     54e:	de b7       	in	r29, 0x3e	; 62
     550:	e2 e1       	ldi	r30, 0x12	; 18
     552:	0c 94 63 4f 	jmp	0x9ec6	; 0x9ec6 <__epilogue_restores__>

00000556 <__subsf3>:
     556:	a0 e2       	ldi	r26, 0x20	; 32
     558:	b0 e0       	ldi	r27, 0x00	; 0
     55a:	e1 eb       	ldi	r30, 0xB1	; 177
     55c:	f2 e0       	ldi	r31, 0x02	; 2
     55e:	0c 94 53 4f 	jmp	0x9ea6	; 0x9ea6 <__prologue_saves__+0x18>
     562:	69 83       	std	Y+1, r22	; 0x01
     564:	7a 83       	std	Y+2, r23	; 0x02
     566:	8b 83       	std	Y+3, r24	; 0x03
     568:	9c 83       	std	Y+4, r25	; 0x04
     56a:	2d 83       	std	Y+5, r18	; 0x05
     56c:	3e 83       	std	Y+6, r19	; 0x06
     56e:	4f 83       	std	Y+7, r20	; 0x07
     570:	58 87       	std	Y+8, r21	; 0x08
     572:	e9 e0       	ldi	r30, 0x09	; 9
     574:	ee 2e       	mov	r14, r30
     576:	f1 2c       	mov	r15, r1
     578:	ec 0e       	add	r14, r28
     57a:	fd 1e       	adc	r15, r29
     57c:	ce 01       	movw	r24, r28
     57e:	01 96       	adiw	r24, 0x01	; 1
     580:	b7 01       	movw	r22, r14
     582:	0e 94 5e 07 	call	0xebc	; 0xebc <__unpack_f>
     586:	8e 01       	movw	r16, r28
     588:	0f 5e       	subi	r16, 0xEF	; 239
     58a:	1f 4f       	sbci	r17, 0xFF	; 255
     58c:	ce 01       	movw	r24, r28
     58e:	05 96       	adiw	r24, 0x05	; 5
     590:	b8 01       	movw	r22, r16
     592:	0e 94 5e 07 	call	0xebc	; 0xebc <__unpack_f>
     596:	8a 89       	ldd	r24, Y+18	; 0x12
     598:	91 e0       	ldi	r25, 0x01	; 1
     59a:	89 27       	eor	r24, r25
     59c:	8a 8b       	std	Y+18, r24	; 0x12
     59e:	c7 01       	movw	r24, r14
     5a0:	b8 01       	movw	r22, r16
     5a2:	ae 01       	movw	r20, r28
     5a4:	47 5e       	subi	r20, 0xE7	; 231
     5a6:	5f 4f       	sbci	r21, 0xFF	; 255
     5a8:	0e 94 5f 01 	call	0x2be	; 0x2be <_fpadd_parts>
     5ac:	0e 94 89 06 	call	0xd12	; 0xd12 <__pack_f>
     5b0:	a0 96       	adiw	r28, 0x20	; 32
     5b2:	e6 e0       	ldi	r30, 0x06	; 6
     5b4:	0c 94 6f 4f 	jmp	0x9ede	; 0x9ede <__epilogue_restores__+0x18>

000005b8 <__addsf3>:
     5b8:	a0 e2       	ldi	r26, 0x20	; 32
     5ba:	b0 e0       	ldi	r27, 0x00	; 0
     5bc:	e2 ee       	ldi	r30, 0xE2	; 226
     5be:	f2 e0       	ldi	r31, 0x02	; 2
     5c0:	0c 94 53 4f 	jmp	0x9ea6	; 0x9ea6 <__prologue_saves__+0x18>
     5c4:	69 83       	std	Y+1, r22	; 0x01
     5c6:	7a 83       	std	Y+2, r23	; 0x02
     5c8:	8b 83       	std	Y+3, r24	; 0x03
     5ca:	9c 83       	std	Y+4, r25	; 0x04
     5cc:	2d 83       	std	Y+5, r18	; 0x05
     5ce:	3e 83       	std	Y+6, r19	; 0x06
     5d0:	4f 83       	std	Y+7, r20	; 0x07
     5d2:	58 87       	std	Y+8, r21	; 0x08
     5d4:	f9 e0       	ldi	r31, 0x09	; 9
     5d6:	ef 2e       	mov	r14, r31
     5d8:	f1 2c       	mov	r15, r1
     5da:	ec 0e       	add	r14, r28
     5dc:	fd 1e       	adc	r15, r29
     5de:	ce 01       	movw	r24, r28
     5e0:	01 96       	adiw	r24, 0x01	; 1
     5e2:	b7 01       	movw	r22, r14
     5e4:	0e 94 5e 07 	call	0xebc	; 0xebc <__unpack_f>
     5e8:	8e 01       	movw	r16, r28
     5ea:	0f 5e       	subi	r16, 0xEF	; 239
     5ec:	1f 4f       	sbci	r17, 0xFF	; 255
     5ee:	ce 01       	movw	r24, r28
     5f0:	05 96       	adiw	r24, 0x05	; 5
     5f2:	b8 01       	movw	r22, r16
     5f4:	0e 94 5e 07 	call	0xebc	; 0xebc <__unpack_f>
     5f8:	c7 01       	movw	r24, r14
     5fa:	b8 01       	movw	r22, r16
     5fc:	ae 01       	movw	r20, r28
     5fe:	47 5e       	subi	r20, 0xE7	; 231
     600:	5f 4f       	sbci	r21, 0xFF	; 255
     602:	0e 94 5f 01 	call	0x2be	; 0x2be <_fpadd_parts>
     606:	0e 94 89 06 	call	0xd12	; 0xd12 <__pack_f>
     60a:	a0 96       	adiw	r28, 0x20	; 32
     60c:	e6 e0       	ldi	r30, 0x06	; 6
     60e:	0c 94 6f 4f 	jmp	0x9ede	; 0x9ede <__epilogue_restores__+0x18>

00000612 <__mulsf3>:
     612:	a0 e2       	ldi	r26, 0x20	; 32
     614:	b0 e0       	ldi	r27, 0x00	; 0
     616:	ef e0       	ldi	r30, 0x0F	; 15
     618:	f3 e0       	ldi	r31, 0x03	; 3
     61a:	0c 94 47 4f 	jmp	0x9e8e	; 0x9e8e <__prologue_saves__>
     61e:	69 83       	std	Y+1, r22	; 0x01
     620:	7a 83       	std	Y+2, r23	; 0x02
     622:	8b 83       	std	Y+3, r24	; 0x03
     624:	9c 83       	std	Y+4, r25	; 0x04
     626:	2d 83       	std	Y+5, r18	; 0x05
     628:	3e 83       	std	Y+6, r19	; 0x06
     62a:	4f 83       	std	Y+7, r20	; 0x07
     62c:	58 87       	std	Y+8, r21	; 0x08
     62e:	ce 01       	movw	r24, r28
     630:	01 96       	adiw	r24, 0x01	; 1
     632:	be 01       	movw	r22, r28
     634:	67 5f       	subi	r22, 0xF7	; 247
     636:	7f 4f       	sbci	r23, 0xFF	; 255
     638:	0e 94 5e 07 	call	0xebc	; 0xebc <__unpack_f>
     63c:	ce 01       	movw	r24, r28
     63e:	05 96       	adiw	r24, 0x05	; 5
     640:	be 01       	movw	r22, r28
     642:	6f 5e       	subi	r22, 0xEF	; 239
     644:	7f 4f       	sbci	r23, 0xFF	; 255
     646:	0e 94 5e 07 	call	0xebc	; 0xebc <__unpack_f>
     64a:	99 85       	ldd	r25, Y+9	; 0x09
     64c:	92 30       	cpi	r25, 0x02	; 2
     64e:	88 f0       	brcs	.+34     	; 0x672 <__mulsf3+0x60>
     650:	89 89       	ldd	r24, Y+17	; 0x11
     652:	82 30       	cpi	r24, 0x02	; 2
     654:	c8 f0       	brcs	.+50     	; 0x688 <__mulsf3+0x76>
     656:	94 30       	cpi	r25, 0x04	; 4
     658:	19 f4       	brne	.+6      	; 0x660 <__mulsf3+0x4e>
     65a:	82 30       	cpi	r24, 0x02	; 2
     65c:	51 f4       	brne	.+20     	; 0x672 <__mulsf3+0x60>
     65e:	04 c0       	rjmp	.+8      	; 0x668 <__mulsf3+0x56>
     660:	84 30       	cpi	r24, 0x04	; 4
     662:	29 f4       	brne	.+10     	; 0x66e <__mulsf3+0x5c>
     664:	92 30       	cpi	r25, 0x02	; 2
     666:	81 f4       	brne	.+32     	; 0x688 <__mulsf3+0x76>
     668:	88 e2       	ldi	r24, 0x28	; 40
     66a:	94 e0       	ldi	r25, 0x04	; 4
     66c:	c6 c0       	rjmp	.+396    	; 0x7fa <__mulsf3+0x1e8>
     66e:	92 30       	cpi	r25, 0x02	; 2
     670:	49 f4       	brne	.+18     	; 0x684 <__mulsf3+0x72>
     672:	20 e0       	ldi	r18, 0x00	; 0
     674:	9a 85       	ldd	r25, Y+10	; 0x0a
     676:	8a 89       	ldd	r24, Y+18	; 0x12
     678:	98 13       	cpse	r25, r24
     67a:	21 e0       	ldi	r18, 0x01	; 1
     67c:	2a 87       	std	Y+10, r18	; 0x0a
     67e:	ce 01       	movw	r24, r28
     680:	09 96       	adiw	r24, 0x09	; 9
     682:	bb c0       	rjmp	.+374    	; 0x7fa <__mulsf3+0x1e8>
     684:	82 30       	cpi	r24, 0x02	; 2
     686:	49 f4       	brne	.+18     	; 0x69a <__mulsf3+0x88>
     688:	20 e0       	ldi	r18, 0x00	; 0
     68a:	9a 85       	ldd	r25, Y+10	; 0x0a
     68c:	8a 89       	ldd	r24, Y+18	; 0x12
     68e:	98 13       	cpse	r25, r24
     690:	21 e0       	ldi	r18, 0x01	; 1
     692:	2a 8b       	std	Y+18, r18	; 0x12
     694:	ce 01       	movw	r24, r28
     696:	41 96       	adiw	r24, 0x11	; 17
     698:	b0 c0       	rjmp	.+352    	; 0x7fa <__mulsf3+0x1e8>
     69a:	2d 84       	ldd	r2, Y+13	; 0x0d
     69c:	3e 84       	ldd	r3, Y+14	; 0x0e
     69e:	4f 84       	ldd	r4, Y+15	; 0x0f
     6a0:	58 88       	ldd	r5, Y+16	; 0x10
     6a2:	6d 88       	ldd	r6, Y+21	; 0x15
     6a4:	7e 88       	ldd	r7, Y+22	; 0x16
     6a6:	8f 88       	ldd	r8, Y+23	; 0x17
     6a8:	98 8c       	ldd	r9, Y+24	; 0x18
     6aa:	ee 24       	eor	r14, r14
     6ac:	ff 24       	eor	r15, r15
     6ae:	87 01       	movw	r16, r14
     6b0:	aa 24       	eor	r10, r10
     6b2:	bb 24       	eor	r11, r11
     6b4:	65 01       	movw	r12, r10
     6b6:	40 e0       	ldi	r20, 0x00	; 0
     6b8:	50 e0       	ldi	r21, 0x00	; 0
     6ba:	60 e0       	ldi	r22, 0x00	; 0
     6bc:	70 e0       	ldi	r23, 0x00	; 0
     6be:	e0 e0       	ldi	r30, 0x00	; 0
     6c0:	f0 e0       	ldi	r31, 0x00	; 0
     6c2:	c1 01       	movw	r24, r2
     6c4:	81 70       	andi	r24, 0x01	; 1
     6c6:	90 70       	andi	r25, 0x00	; 0
     6c8:	89 2b       	or	r24, r25
     6ca:	e9 f0       	breq	.+58     	; 0x706 <__mulsf3+0xf4>
     6cc:	e6 0c       	add	r14, r6
     6ce:	f7 1c       	adc	r15, r7
     6d0:	08 1d       	adc	r16, r8
     6d2:	19 1d       	adc	r17, r9
     6d4:	9a 01       	movw	r18, r20
     6d6:	ab 01       	movw	r20, r22
     6d8:	2a 0d       	add	r18, r10
     6da:	3b 1d       	adc	r19, r11
     6dc:	4c 1d       	adc	r20, r12
     6de:	5d 1d       	adc	r21, r13
     6e0:	80 e0       	ldi	r24, 0x00	; 0
     6e2:	90 e0       	ldi	r25, 0x00	; 0
     6e4:	a0 e0       	ldi	r26, 0x00	; 0
     6e6:	b0 e0       	ldi	r27, 0x00	; 0
     6e8:	e6 14       	cp	r14, r6
     6ea:	f7 04       	cpc	r15, r7
     6ec:	08 05       	cpc	r16, r8
     6ee:	19 05       	cpc	r17, r9
     6f0:	20 f4       	brcc	.+8      	; 0x6fa <__mulsf3+0xe8>
     6f2:	81 e0       	ldi	r24, 0x01	; 1
     6f4:	90 e0       	ldi	r25, 0x00	; 0
     6f6:	a0 e0       	ldi	r26, 0x00	; 0
     6f8:	b0 e0       	ldi	r27, 0x00	; 0
     6fa:	ba 01       	movw	r22, r20
     6fc:	a9 01       	movw	r20, r18
     6fe:	48 0f       	add	r20, r24
     700:	59 1f       	adc	r21, r25
     702:	6a 1f       	adc	r22, r26
     704:	7b 1f       	adc	r23, r27
     706:	aa 0c       	add	r10, r10
     708:	bb 1c       	adc	r11, r11
     70a:	cc 1c       	adc	r12, r12
     70c:	dd 1c       	adc	r13, r13
     70e:	97 fe       	sbrs	r9, 7
     710:	08 c0       	rjmp	.+16     	; 0x722 <__mulsf3+0x110>
     712:	81 e0       	ldi	r24, 0x01	; 1
     714:	90 e0       	ldi	r25, 0x00	; 0
     716:	a0 e0       	ldi	r26, 0x00	; 0
     718:	b0 e0       	ldi	r27, 0x00	; 0
     71a:	a8 2a       	or	r10, r24
     71c:	b9 2a       	or	r11, r25
     71e:	ca 2a       	or	r12, r26
     720:	db 2a       	or	r13, r27
     722:	31 96       	adiw	r30, 0x01	; 1
     724:	e0 32       	cpi	r30, 0x20	; 32
     726:	f1 05       	cpc	r31, r1
     728:	49 f0       	breq	.+18     	; 0x73c <__mulsf3+0x12a>
     72a:	66 0c       	add	r6, r6
     72c:	77 1c       	adc	r7, r7
     72e:	88 1c       	adc	r8, r8
     730:	99 1c       	adc	r9, r9
     732:	56 94       	lsr	r5
     734:	47 94       	ror	r4
     736:	37 94       	ror	r3
     738:	27 94       	ror	r2
     73a:	c3 cf       	rjmp	.-122    	; 0x6c2 <__mulsf3+0xb0>
     73c:	fa 85       	ldd	r31, Y+10	; 0x0a
     73e:	ea 89       	ldd	r30, Y+18	; 0x12
     740:	2b 89       	ldd	r18, Y+19	; 0x13
     742:	3c 89       	ldd	r19, Y+20	; 0x14
     744:	8b 85       	ldd	r24, Y+11	; 0x0b
     746:	9c 85       	ldd	r25, Y+12	; 0x0c
     748:	28 0f       	add	r18, r24
     74a:	39 1f       	adc	r19, r25
     74c:	2e 5f       	subi	r18, 0xFE	; 254
     74e:	3f 4f       	sbci	r19, 0xFF	; 255
     750:	17 c0       	rjmp	.+46     	; 0x780 <__mulsf3+0x16e>
     752:	ca 01       	movw	r24, r20
     754:	81 70       	andi	r24, 0x01	; 1
     756:	90 70       	andi	r25, 0x00	; 0
     758:	89 2b       	or	r24, r25
     75a:	61 f0       	breq	.+24     	; 0x774 <__mulsf3+0x162>
     75c:	16 95       	lsr	r17
     75e:	07 95       	ror	r16
     760:	f7 94       	ror	r15
     762:	e7 94       	ror	r14
     764:	80 e0       	ldi	r24, 0x00	; 0
     766:	90 e0       	ldi	r25, 0x00	; 0
     768:	a0 e0       	ldi	r26, 0x00	; 0
     76a:	b0 e8       	ldi	r27, 0x80	; 128
     76c:	e8 2a       	or	r14, r24
     76e:	f9 2a       	or	r15, r25
     770:	0a 2b       	or	r16, r26
     772:	1b 2b       	or	r17, r27
     774:	76 95       	lsr	r23
     776:	67 95       	ror	r22
     778:	57 95       	ror	r21
     77a:	47 95       	ror	r20
     77c:	2f 5f       	subi	r18, 0xFF	; 255
     77e:	3f 4f       	sbci	r19, 0xFF	; 255
     780:	77 fd       	sbrc	r23, 7
     782:	e7 cf       	rjmp	.-50     	; 0x752 <__mulsf3+0x140>
     784:	0c c0       	rjmp	.+24     	; 0x79e <__mulsf3+0x18c>
     786:	44 0f       	add	r20, r20
     788:	55 1f       	adc	r21, r21
     78a:	66 1f       	adc	r22, r22
     78c:	77 1f       	adc	r23, r23
     78e:	17 fd       	sbrc	r17, 7
     790:	41 60       	ori	r20, 0x01	; 1
     792:	ee 0c       	add	r14, r14
     794:	ff 1c       	adc	r15, r15
     796:	00 1f       	adc	r16, r16
     798:	11 1f       	adc	r17, r17
     79a:	21 50       	subi	r18, 0x01	; 1
     79c:	30 40       	sbci	r19, 0x00	; 0
     79e:	40 30       	cpi	r20, 0x00	; 0
     7a0:	90 e0       	ldi	r25, 0x00	; 0
     7a2:	59 07       	cpc	r21, r25
     7a4:	90 e0       	ldi	r25, 0x00	; 0
     7a6:	69 07       	cpc	r22, r25
     7a8:	90 e4       	ldi	r25, 0x40	; 64
     7aa:	79 07       	cpc	r23, r25
     7ac:	60 f3       	brcs	.-40     	; 0x786 <__mulsf3+0x174>
     7ae:	2b 8f       	std	Y+27, r18	; 0x1b
     7b0:	3c 8f       	std	Y+28, r19	; 0x1c
     7b2:	db 01       	movw	r26, r22
     7b4:	ca 01       	movw	r24, r20
     7b6:	8f 77       	andi	r24, 0x7F	; 127
     7b8:	90 70       	andi	r25, 0x00	; 0
     7ba:	a0 70       	andi	r26, 0x00	; 0
     7bc:	b0 70       	andi	r27, 0x00	; 0
     7be:	80 34       	cpi	r24, 0x40	; 64
     7c0:	91 05       	cpc	r25, r1
     7c2:	a1 05       	cpc	r26, r1
     7c4:	b1 05       	cpc	r27, r1
     7c6:	61 f4       	brne	.+24     	; 0x7e0 <__mulsf3+0x1ce>
     7c8:	47 fd       	sbrc	r20, 7
     7ca:	0a c0       	rjmp	.+20     	; 0x7e0 <__mulsf3+0x1ce>
     7cc:	e1 14       	cp	r14, r1
     7ce:	f1 04       	cpc	r15, r1
     7d0:	01 05       	cpc	r16, r1
     7d2:	11 05       	cpc	r17, r1
     7d4:	29 f0       	breq	.+10     	; 0x7e0 <__mulsf3+0x1ce>
     7d6:	40 5c       	subi	r20, 0xC0	; 192
     7d8:	5f 4f       	sbci	r21, 0xFF	; 255
     7da:	6f 4f       	sbci	r22, 0xFF	; 255
     7dc:	7f 4f       	sbci	r23, 0xFF	; 255
     7de:	40 78       	andi	r20, 0x80	; 128
     7e0:	1a 8e       	std	Y+26, r1	; 0x1a
     7e2:	fe 17       	cp	r31, r30
     7e4:	11 f0       	breq	.+4      	; 0x7ea <__mulsf3+0x1d8>
     7e6:	81 e0       	ldi	r24, 0x01	; 1
     7e8:	8a 8f       	std	Y+26, r24	; 0x1a
     7ea:	4d 8f       	std	Y+29, r20	; 0x1d
     7ec:	5e 8f       	std	Y+30, r21	; 0x1e
     7ee:	6f 8f       	std	Y+31, r22	; 0x1f
     7f0:	78 a3       	std	Y+32, r23	; 0x20
     7f2:	83 e0       	ldi	r24, 0x03	; 3
     7f4:	89 8f       	std	Y+25, r24	; 0x19
     7f6:	ce 01       	movw	r24, r28
     7f8:	49 96       	adiw	r24, 0x19	; 25
     7fa:	0e 94 89 06 	call	0xd12	; 0xd12 <__pack_f>
     7fe:	a0 96       	adiw	r28, 0x20	; 32
     800:	e2 e1       	ldi	r30, 0x12	; 18
     802:	0c 94 63 4f 	jmp	0x9ec6	; 0x9ec6 <__epilogue_restores__>

00000806 <__divsf3>:
     806:	a8 e1       	ldi	r26, 0x18	; 24
     808:	b0 e0       	ldi	r27, 0x00	; 0
     80a:	e9 e0       	ldi	r30, 0x09	; 9
     80c:	f4 e0       	ldi	r31, 0x04	; 4
     80e:	0c 94 4f 4f 	jmp	0x9e9e	; 0x9e9e <__prologue_saves__+0x10>
     812:	69 83       	std	Y+1, r22	; 0x01
     814:	7a 83       	std	Y+2, r23	; 0x02
     816:	8b 83       	std	Y+3, r24	; 0x03
     818:	9c 83       	std	Y+4, r25	; 0x04
     81a:	2d 83       	std	Y+5, r18	; 0x05
     81c:	3e 83       	std	Y+6, r19	; 0x06
     81e:	4f 83       	std	Y+7, r20	; 0x07
     820:	58 87       	std	Y+8, r21	; 0x08
     822:	b9 e0       	ldi	r27, 0x09	; 9
     824:	eb 2e       	mov	r14, r27
     826:	f1 2c       	mov	r15, r1
     828:	ec 0e       	add	r14, r28
     82a:	fd 1e       	adc	r15, r29
     82c:	ce 01       	movw	r24, r28
     82e:	01 96       	adiw	r24, 0x01	; 1
     830:	b7 01       	movw	r22, r14
     832:	0e 94 5e 07 	call	0xebc	; 0xebc <__unpack_f>
     836:	8e 01       	movw	r16, r28
     838:	0f 5e       	subi	r16, 0xEF	; 239
     83a:	1f 4f       	sbci	r17, 0xFF	; 255
     83c:	ce 01       	movw	r24, r28
     83e:	05 96       	adiw	r24, 0x05	; 5
     840:	b8 01       	movw	r22, r16
     842:	0e 94 5e 07 	call	0xebc	; 0xebc <__unpack_f>
     846:	29 85       	ldd	r18, Y+9	; 0x09
     848:	22 30       	cpi	r18, 0x02	; 2
     84a:	08 f4       	brcc	.+2      	; 0x84e <__divsf3+0x48>
     84c:	7e c0       	rjmp	.+252    	; 0x94a <__divsf3+0x144>
     84e:	39 89       	ldd	r19, Y+17	; 0x11
     850:	32 30       	cpi	r19, 0x02	; 2
     852:	10 f4       	brcc	.+4      	; 0x858 <__divsf3+0x52>
     854:	b8 01       	movw	r22, r16
     856:	7c c0       	rjmp	.+248    	; 0x950 <__divsf3+0x14a>
     858:	8a 85       	ldd	r24, Y+10	; 0x0a
     85a:	9a 89       	ldd	r25, Y+18	; 0x12
     85c:	89 27       	eor	r24, r25
     85e:	8a 87       	std	Y+10, r24	; 0x0a
     860:	24 30       	cpi	r18, 0x04	; 4
     862:	11 f0       	breq	.+4      	; 0x868 <__divsf3+0x62>
     864:	22 30       	cpi	r18, 0x02	; 2
     866:	31 f4       	brne	.+12     	; 0x874 <__divsf3+0x6e>
     868:	23 17       	cp	r18, r19
     86a:	09 f0       	breq	.+2      	; 0x86e <__divsf3+0x68>
     86c:	6e c0       	rjmp	.+220    	; 0x94a <__divsf3+0x144>
     86e:	68 e2       	ldi	r22, 0x28	; 40
     870:	74 e0       	ldi	r23, 0x04	; 4
     872:	6e c0       	rjmp	.+220    	; 0x950 <__divsf3+0x14a>
     874:	34 30       	cpi	r19, 0x04	; 4
     876:	39 f4       	brne	.+14     	; 0x886 <__divsf3+0x80>
     878:	1d 86       	std	Y+13, r1	; 0x0d
     87a:	1e 86       	std	Y+14, r1	; 0x0e
     87c:	1f 86       	std	Y+15, r1	; 0x0f
     87e:	18 8a       	std	Y+16, r1	; 0x10
     880:	1c 86       	std	Y+12, r1	; 0x0c
     882:	1b 86       	std	Y+11, r1	; 0x0b
     884:	04 c0       	rjmp	.+8      	; 0x88e <__divsf3+0x88>
     886:	32 30       	cpi	r19, 0x02	; 2
     888:	21 f4       	brne	.+8      	; 0x892 <__divsf3+0x8c>
     88a:	84 e0       	ldi	r24, 0x04	; 4
     88c:	89 87       	std	Y+9, r24	; 0x09
     88e:	b7 01       	movw	r22, r14
     890:	5f c0       	rjmp	.+190    	; 0x950 <__divsf3+0x14a>
     892:	2b 85       	ldd	r18, Y+11	; 0x0b
     894:	3c 85       	ldd	r19, Y+12	; 0x0c
     896:	8b 89       	ldd	r24, Y+19	; 0x13
     898:	9c 89       	ldd	r25, Y+20	; 0x14
     89a:	28 1b       	sub	r18, r24
     89c:	39 0b       	sbc	r19, r25
     89e:	3c 87       	std	Y+12, r19	; 0x0c
     8a0:	2b 87       	std	Y+11, r18	; 0x0b
     8a2:	ed 84       	ldd	r14, Y+13	; 0x0d
     8a4:	fe 84       	ldd	r15, Y+14	; 0x0e
     8a6:	0f 85       	ldd	r16, Y+15	; 0x0f
     8a8:	18 89       	ldd	r17, Y+16	; 0x10
     8aa:	ad 88       	ldd	r10, Y+21	; 0x15
     8ac:	be 88       	ldd	r11, Y+22	; 0x16
     8ae:	cf 88       	ldd	r12, Y+23	; 0x17
     8b0:	d8 8c       	ldd	r13, Y+24	; 0x18
     8b2:	ea 14       	cp	r14, r10
     8b4:	fb 04       	cpc	r15, r11
     8b6:	0c 05       	cpc	r16, r12
     8b8:	1d 05       	cpc	r17, r13
     8ba:	40 f4       	brcc	.+16     	; 0x8cc <__divsf3+0xc6>
     8bc:	ee 0c       	add	r14, r14
     8be:	ff 1c       	adc	r15, r15
     8c0:	00 1f       	adc	r16, r16
     8c2:	11 1f       	adc	r17, r17
     8c4:	21 50       	subi	r18, 0x01	; 1
     8c6:	30 40       	sbci	r19, 0x00	; 0
     8c8:	3c 87       	std	Y+12, r19	; 0x0c
     8ca:	2b 87       	std	Y+11, r18	; 0x0b
     8cc:	20 e0       	ldi	r18, 0x00	; 0
     8ce:	30 e0       	ldi	r19, 0x00	; 0
     8d0:	40 e0       	ldi	r20, 0x00	; 0
     8d2:	50 e0       	ldi	r21, 0x00	; 0
     8d4:	80 e0       	ldi	r24, 0x00	; 0
     8d6:	90 e0       	ldi	r25, 0x00	; 0
     8d8:	a0 e0       	ldi	r26, 0x00	; 0
     8da:	b0 e4       	ldi	r27, 0x40	; 64
     8dc:	60 e0       	ldi	r22, 0x00	; 0
     8de:	70 e0       	ldi	r23, 0x00	; 0
     8e0:	ea 14       	cp	r14, r10
     8e2:	fb 04       	cpc	r15, r11
     8e4:	0c 05       	cpc	r16, r12
     8e6:	1d 05       	cpc	r17, r13
     8e8:	40 f0       	brcs	.+16     	; 0x8fa <__divsf3+0xf4>
     8ea:	28 2b       	or	r18, r24
     8ec:	39 2b       	or	r19, r25
     8ee:	4a 2b       	or	r20, r26
     8f0:	5b 2b       	or	r21, r27
     8f2:	ea 18       	sub	r14, r10
     8f4:	fb 08       	sbc	r15, r11
     8f6:	0c 09       	sbc	r16, r12
     8f8:	1d 09       	sbc	r17, r13
     8fa:	b6 95       	lsr	r27
     8fc:	a7 95       	ror	r26
     8fe:	97 95       	ror	r25
     900:	87 95       	ror	r24
     902:	ee 0c       	add	r14, r14
     904:	ff 1c       	adc	r15, r15
     906:	00 1f       	adc	r16, r16
     908:	11 1f       	adc	r17, r17
     90a:	6f 5f       	subi	r22, 0xFF	; 255
     90c:	7f 4f       	sbci	r23, 0xFF	; 255
     90e:	6f 31       	cpi	r22, 0x1F	; 31
     910:	71 05       	cpc	r23, r1
     912:	31 f7       	brne	.-52     	; 0x8e0 <__divsf3+0xda>
     914:	da 01       	movw	r26, r20
     916:	c9 01       	movw	r24, r18
     918:	8f 77       	andi	r24, 0x7F	; 127
     91a:	90 70       	andi	r25, 0x00	; 0
     91c:	a0 70       	andi	r26, 0x00	; 0
     91e:	b0 70       	andi	r27, 0x00	; 0
     920:	80 34       	cpi	r24, 0x40	; 64
     922:	91 05       	cpc	r25, r1
     924:	a1 05       	cpc	r26, r1
     926:	b1 05       	cpc	r27, r1
     928:	61 f4       	brne	.+24     	; 0x942 <__divsf3+0x13c>
     92a:	27 fd       	sbrc	r18, 7
     92c:	0a c0       	rjmp	.+20     	; 0x942 <__divsf3+0x13c>
     92e:	e1 14       	cp	r14, r1
     930:	f1 04       	cpc	r15, r1
     932:	01 05       	cpc	r16, r1
     934:	11 05       	cpc	r17, r1
     936:	29 f0       	breq	.+10     	; 0x942 <__divsf3+0x13c>
     938:	20 5c       	subi	r18, 0xC0	; 192
     93a:	3f 4f       	sbci	r19, 0xFF	; 255
     93c:	4f 4f       	sbci	r20, 0xFF	; 255
     93e:	5f 4f       	sbci	r21, 0xFF	; 255
     940:	20 78       	andi	r18, 0x80	; 128
     942:	2d 87       	std	Y+13, r18	; 0x0d
     944:	3e 87       	std	Y+14, r19	; 0x0e
     946:	4f 87       	std	Y+15, r20	; 0x0f
     948:	58 8b       	std	Y+16, r21	; 0x10
     94a:	be 01       	movw	r22, r28
     94c:	67 5f       	subi	r22, 0xF7	; 247
     94e:	7f 4f       	sbci	r23, 0xFF	; 255
     950:	cb 01       	movw	r24, r22
     952:	0e 94 89 06 	call	0xd12	; 0xd12 <__pack_f>
     956:	68 96       	adiw	r28, 0x18	; 24
     958:	ea e0       	ldi	r30, 0x0A	; 10
     95a:	0c 94 6b 4f 	jmp	0x9ed6	; 0x9ed6 <__epilogue_restores__+0x10>

0000095e <__gesf2>:
     95e:	a8 e1       	ldi	r26, 0x18	; 24
     960:	b0 e0       	ldi	r27, 0x00	; 0
     962:	e5 eb       	ldi	r30, 0xB5	; 181
     964:	f4 e0       	ldi	r31, 0x04	; 4
     966:	0c 94 53 4f 	jmp	0x9ea6	; 0x9ea6 <__prologue_saves__+0x18>
     96a:	69 83       	std	Y+1, r22	; 0x01
     96c:	7a 83       	std	Y+2, r23	; 0x02
     96e:	8b 83       	std	Y+3, r24	; 0x03
     970:	9c 83       	std	Y+4, r25	; 0x04
     972:	2d 83       	std	Y+5, r18	; 0x05
     974:	3e 83       	std	Y+6, r19	; 0x06
     976:	4f 83       	std	Y+7, r20	; 0x07
     978:	58 87       	std	Y+8, r21	; 0x08
     97a:	89 e0       	ldi	r24, 0x09	; 9
     97c:	e8 2e       	mov	r14, r24
     97e:	f1 2c       	mov	r15, r1
     980:	ec 0e       	add	r14, r28
     982:	fd 1e       	adc	r15, r29
     984:	ce 01       	movw	r24, r28
     986:	01 96       	adiw	r24, 0x01	; 1
     988:	b7 01       	movw	r22, r14
     98a:	0e 94 5e 07 	call	0xebc	; 0xebc <__unpack_f>
     98e:	8e 01       	movw	r16, r28
     990:	0f 5e       	subi	r16, 0xEF	; 239
     992:	1f 4f       	sbci	r17, 0xFF	; 255
     994:	ce 01       	movw	r24, r28
     996:	05 96       	adiw	r24, 0x05	; 5
     998:	b8 01       	movw	r22, r16
     99a:	0e 94 5e 07 	call	0xebc	; 0xebc <__unpack_f>
     99e:	89 85       	ldd	r24, Y+9	; 0x09
     9a0:	82 30       	cpi	r24, 0x02	; 2
     9a2:	40 f0       	brcs	.+16     	; 0x9b4 <__gesf2+0x56>
     9a4:	89 89       	ldd	r24, Y+17	; 0x11
     9a6:	82 30       	cpi	r24, 0x02	; 2
     9a8:	28 f0       	brcs	.+10     	; 0x9b4 <__gesf2+0x56>
     9aa:	c7 01       	movw	r24, r14
     9ac:	b8 01       	movw	r22, r16
     9ae:	0e 94 d6 07 	call	0xfac	; 0xfac <__fpcmp_parts_f>
     9b2:	01 c0       	rjmp	.+2      	; 0x9b6 <__gesf2+0x58>
     9b4:	8f ef       	ldi	r24, 0xFF	; 255
     9b6:	68 96       	adiw	r28, 0x18	; 24
     9b8:	e6 e0       	ldi	r30, 0x06	; 6
     9ba:	0c 94 6f 4f 	jmp	0x9ede	; 0x9ede <__epilogue_restores__+0x18>

000009be <__ltsf2>:
     9be:	a8 e1       	ldi	r26, 0x18	; 24
     9c0:	b0 e0       	ldi	r27, 0x00	; 0
     9c2:	e5 ee       	ldi	r30, 0xE5	; 229
     9c4:	f4 e0       	ldi	r31, 0x04	; 4
     9c6:	0c 94 53 4f 	jmp	0x9ea6	; 0x9ea6 <__prologue_saves__+0x18>
     9ca:	69 83       	std	Y+1, r22	; 0x01
     9cc:	7a 83       	std	Y+2, r23	; 0x02
     9ce:	8b 83       	std	Y+3, r24	; 0x03
     9d0:	9c 83       	std	Y+4, r25	; 0x04
     9d2:	2d 83       	std	Y+5, r18	; 0x05
     9d4:	3e 83       	std	Y+6, r19	; 0x06
     9d6:	4f 83       	std	Y+7, r20	; 0x07
     9d8:	58 87       	std	Y+8, r21	; 0x08
     9da:	89 e0       	ldi	r24, 0x09	; 9
     9dc:	e8 2e       	mov	r14, r24
     9de:	f1 2c       	mov	r15, r1
     9e0:	ec 0e       	add	r14, r28
     9e2:	fd 1e       	adc	r15, r29
     9e4:	ce 01       	movw	r24, r28
     9e6:	01 96       	adiw	r24, 0x01	; 1
     9e8:	b7 01       	movw	r22, r14
     9ea:	0e 94 5e 07 	call	0xebc	; 0xebc <__unpack_f>
     9ee:	8e 01       	movw	r16, r28
     9f0:	0f 5e       	subi	r16, 0xEF	; 239
     9f2:	1f 4f       	sbci	r17, 0xFF	; 255
     9f4:	ce 01       	movw	r24, r28
     9f6:	05 96       	adiw	r24, 0x05	; 5
     9f8:	b8 01       	movw	r22, r16
     9fa:	0e 94 5e 07 	call	0xebc	; 0xebc <__unpack_f>
     9fe:	89 85       	ldd	r24, Y+9	; 0x09
     a00:	82 30       	cpi	r24, 0x02	; 2
     a02:	40 f0       	brcs	.+16     	; 0xa14 <__ltsf2+0x56>
     a04:	89 89       	ldd	r24, Y+17	; 0x11
     a06:	82 30       	cpi	r24, 0x02	; 2
     a08:	28 f0       	brcs	.+10     	; 0xa14 <__ltsf2+0x56>
     a0a:	c7 01       	movw	r24, r14
     a0c:	b8 01       	movw	r22, r16
     a0e:	0e 94 d6 07 	call	0xfac	; 0xfac <__fpcmp_parts_f>
     a12:	01 c0       	rjmp	.+2      	; 0xa16 <__ltsf2+0x58>
     a14:	81 e0       	ldi	r24, 0x01	; 1
     a16:	68 96       	adiw	r28, 0x18	; 24
     a18:	e6 e0       	ldi	r30, 0x06	; 6
     a1a:	0c 94 6f 4f 	jmp	0x9ede	; 0x9ede <__epilogue_restores__+0x18>

00000a1e <__floatsisf>:
     a1e:	a8 e0       	ldi	r26, 0x08	; 8
     a20:	b0 e0       	ldi	r27, 0x00	; 0
     a22:	e5 e1       	ldi	r30, 0x15	; 21
     a24:	f5 e0       	ldi	r31, 0x05	; 5
     a26:	0c 94 50 4f 	jmp	0x9ea0	; 0x9ea0 <__prologue_saves__+0x12>
     a2a:	9b 01       	movw	r18, r22
     a2c:	ac 01       	movw	r20, r24
     a2e:	83 e0       	ldi	r24, 0x03	; 3
     a30:	89 83       	std	Y+1, r24	; 0x01
     a32:	da 01       	movw	r26, r20
     a34:	c9 01       	movw	r24, r18
     a36:	88 27       	eor	r24, r24
     a38:	b7 fd       	sbrc	r27, 7
     a3a:	83 95       	inc	r24
     a3c:	99 27       	eor	r25, r25
     a3e:	aa 27       	eor	r26, r26
     a40:	bb 27       	eor	r27, r27
     a42:	b8 2e       	mov	r11, r24
     a44:	21 15       	cp	r18, r1
     a46:	31 05       	cpc	r19, r1
     a48:	41 05       	cpc	r20, r1
     a4a:	51 05       	cpc	r21, r1
     a4c:	19 f4       	brne	.+6      	; 0xa54 <__floatsisf+0x36>
     a4e:	82 e0       	ldi	r24, 0x02	; 2
     a50:	89 83       	std	Y+1, r24	; 0x01
     a52:	3a c0       	rjmp	.+116    	; 0xac8 <__floatsisf+0xaa>
     a54:	88 23       	and	r24, r24
     a56:	a9 f0       	breq	.+42     	; 0xa82 <__floatsisf+0x64>
     a58:	20 30       	cpi	r18, 0x00	; 0
     a5a:	80 e0       	ldi	r24, 0x00	; 0
     a5c:	38 07       	cpc	r19, r24
     a5e:	80 e0       	ldi	r24, 0x00	; 0
     a60:	48 07       	cpc	r20, r24
     a62:	80 e8       	ldi	r24, 0x80	; 128
     a64:	58 07       	cpc	r21, r24
     a66:	29 f4       	brne	.+10     	; 0xa72 <__floatsisf+0x54>
     a68:	60 e0       	ldi	r22, 0x00	; 0
     a6a:	70 e0       	ldi	r23, 0x00	; 0
     a6c:	80 e0       	ldi	r24, 0x00	; 0
     a6e:	9f ec       	ldi	r25, 0xCF	; 207
     a70:	30 c0       	rjmp	.+96     	; 0xad2 <__floatsisf+0xb4>
     a72:	ee 24       	eor	r14, r14
     a74:	ff 24       	eor	r15, r15
     a76:	87 01       	movw	r16, r14
     a78:	e2 1a       	sub	r14, r18
     a7a:	f3 0a       	sbc	r15, r19
     a7c:	04 0b       	sbc	r16, r20
     a7e:	15 0b       	sbc	r17, r21
     a80:	02 c0       	rjmp	.+4      	; 0xa86 <__floatsisf+0x68>
     a82:	79 01       	movw	r14, r18
     a84:	8a 01       	movw	r16, r20
     a86:	8e e1       	ldi	r24, 0x1E	; 30
     a88:	c8 2e       	mov	r12, r24
     a8a:	d1 2c       	mov	r13, r1
     a8c:	dc 82       	std	Y+4, r13	; 0x04
     a8e:	cb 82       	std	Y+3, r12	; 0x03
     a90:	ed 82       	std	Y+5, r14	; 0x05
     a92:	fe 82       	std	Y+6, r15	; 0x06
     a94:	0f 83       	std	Y+7, r16	; 0x07
     a96:	18 87       	std	Y+8, r17	; 0x08
     a98:	c8 01       	movw	r24, r16
     a9a:	b7 01       	movw	r22, r14
     a9c:	0e 94 3a 06 	call	0xc74	; 0xc74 <__clzsi2>
     aa0:	01 97       	sbiw	r24, 0x01	; 1
     aa2:	18 16       	cp	r1, r24
     aa4:	19 06       	cpc	r1, r25
     aa6:	84 f4       	brge	.+32     	; 0xac8 <__floatsisf+0xaa>
     aa8:	08 2e       	mov	r0, r24
     aaa:	04 c0       	rjmp	.+8      	; 0xab4 <__floatsisf+0x96>
     aac:	ee 0c       	add	r14, r14
     aae:	ff 1c       	adc	r15, r15
     ab0:	00 1f       	adc	r16, r16
     ab2:	11 1f       	adc	r17, r17
     ab4:	0a 94       	dec	r0
     ab6:	d2 f7       	brpl	.-12     	; 0xaac <__floatsisf+0x8e>
     ab8:	ed 82       	std	Y+5, r14	; 0x05
     aba:	fe 82       	std	Y+6, r15	; 0x06
     abc:	0f 83       	std	Y+7, r16	; 0x07
     abe:	18 87       	std	Y+8, r17	; 0x08
     ac0:	c8 1a       	sub	r12, r24
     ac2:	d9 0a       	sbc	r13, r25
     ac4:	dc 82       	std	Y+4, r13	; 0x04
     ac6:	cb 82       	std	Y+3, r12	; 0x03
     ac8:	ba 82       	std	Y+2, r11	; 0x02
     aca:	ce 01       	movw	r24, r28
     acc:	01 96       	adiw	r24, 0x01	; 1
     ace:	0e 94 89 06 	call	0xd12	; 0xd12 <__pack_f>
     ad2:	28 96       	adiw	r28, 0x08	; 8
     ad4:	e9 e0       	ldi	r30, 0x09	; 9
     ad6:	0c 94 6c 4f 	jmp	0x9ed8	; 0x9ed8 <__epilogue_restores__+0x12>

00000ada <__fixsfsi>:
     ada:	ac e0       	ldi	r26, 0x0C	; 12
     adc:	b0 e0       	ldi	r27, 0x00	; 0
     ade:	e3 e7       	ldi	r30, 0x73	; 115
     ae0:	f5 e0       	ldi	r31, 0x05	; 5
     ae2:	0c 94 57 4f 	jmp	0x9eae	; 0x9eae <__prologue_saves__+0x20>
     ae6:	69 83       	std	Y+1, r22	; 0x01
     ae8:	7a 83       	std	Y+2, r23	; 0x02
     aea:	8b 83       	std	Y+3, r24	; 0x03
     aec:	9c 83       	std	Y+4, r25	; 0x04
     aee:	ce 01       	movw	r24, r28
     af0:	01 96       	adiw	r24, 0x01	; 1
     af2:	be 01       	movw	r22, r28
     af4:	6b 5f       	subi	r22, 0xFB	; 251
     af6:	7f 4f       	sbci	r23, 0xFF	; 255
     af8:	0e 94 5e 07 	call	0xebc	; 0xebc <__unpack_f>
     afc:	8d 81       	ldd	r24, Y+5	; 0x05
     afe:	82 30       	cpi	r24, 0x02	; 2
     b00:	61 f1       	breq	.+88     	; 0xb5a <__fixsfsi+0x80>
     b02:	82 30       	cpi	r24, 0x02	; 2
     b04:	50 f1       	brcs	.+84     	; 0xb5a <__fixsfsi+0x80>
     b06:	84 30       	cpi	r24, 0x04	; 4
     b08:	21 f4       	brne	.+8      	; 0xb12 <__fixsfsi+0x38>
     b0a:	8e 81       	ldd	r24, Y+6	; 0x06
     b0c:	88 23       	and	r24, r24
     b0e:	51 f1       	breq	.+84     	; 0xb64 <__fixsfsi+0x8a>
     b10:	2e c0       	rjmp	.+92     	; 0xb6e <__fixsfsi+0x94>
     b12:	2f 81       	ldd	r18, Y+7	; 0x07
     b14:	38 85       	ldd	r19, Y+8	; 0x08
     b16:	37 fd       	sbrc	r19, 7
     b18:	20 c0       	rjmp	.+64     	; 0xb5a <__fixsfsi+0x80>
     b1a:	6e 81       	ldd	r22, Y+6	; 0x06
     b1c:	2f 31       	cpi	r18, 0x1F	; 31
     b1e:	31 05       	cpc	r19, r1
     b20:	1c f0       	brlt	.+6      	; 0xb28 <__fixsfsi+0x4e>
     b22:	66 23       	and	r22, r22
     b24:	f9 f0       	breq	.+62     	; 0xb64 <__fixsfsi+0x8a>
     b26:	23 c0       	rjmp	.+70     	; 0xb6e <__fixsfsi+0x94>
     b28:	8e e1       	ldi	r24, 0x1E	; 30
     b2a:	90 e0       	ldi	r25, 0x00	; 0
     b2c:	82 1b       	sub	r24, r18
     b2e:	93 0b       	sbc	r25, r19
     b30:	29 85       	ldd	r18, Y+9	; 0x09
     b32:	3a 85       	ldd	r19, Y+10	; 0x0a
     b34:	4b 85       	ldd	r20, Y+11	; 0x0b
     b36:	5c 85       	ldd	r21, Y+12	; 0x0c
     b38:	04 c0       	rjmp	.+8      	; 0xb42 <__fixsfsi+0x68>
     b3a:	56 95       	lsr	r21
     b3c:	47 95       	ror	r20
     b3e:	37 95       	ror	r19
     b40:	27 95       	ror	r18
     b42:	8a 95       	dec	r24
     b44:	d2 f7       	brpl	.-12     	; 0xb3a <__fixsfsi+0x60>
     b46:	66 23       	and	r22, r22
     b48:	b1 f0       	breq	.+44     	; 0xb76 <__fixsfsi+0x9c>
     b4a:	50 95       	com	r21
     b4c:	40 95       	com	r20
     b4e:	30 95       	com	r19
     b50:	21 95       	neg	r18
     b52:	3f 4f       	sbci	r19, 0xFF	; 255
     b54:	4f 4f       	sbci	r20, 0xFF	; 255
     b56:	5f 4f       	sbci	r21, 0xFF	; 255
     b58:	0e c0       	rjmp	.+28     	; 0xb76 <__fixsfsi+0x9c>
     b5a:	20 e0       	ldi	r18, 0x00	; 0
     b5c:	30 e0       	ldi	r19, 0x00	; 0
     b5e:	40 e0       	ldi	r20, 0x00	; 0
     b60:	50 e0       	ldi	r21, 0x00	; 0
     b62:	09 c0       	rjmp	.+18     	; 0xb76 <__fixsfsi+0x9c>
     b64:	2f ef       	ldi	r18, 0xFF	; 255
     b66:	3f ef       	ldi	r19, 0xFF	; 255
     b68:	4f ef       	ldi	r20, 0xFF	; 255
     b6a:	5f e7       	ldi	r21, 0x7F	; 127
     b6c:	04 c0       	rjmp	.+8      	; 0xb76 <__fixsfsi+0x9c>
     b6e:	20 e0       	ldi	r18, 0x00	; 0
     b70:	30 e0       	ldi	r19, 0x00	; 0
     b72:	40 e0       	ldi	r20, 0x00	; 0
     b74:	50 e8       	ldi	r21, 0x80	; 128
     b76:	b9 01       	movw	r22, r18
     b78:	ca 01       	movw	r24, r20
     b7a:	2c 96       	adiw	r28, 0x0c	; 12
     b7c:	e2 e0       	ldi	r30, 0x02	; 2
     b7e:	0c 94 73 4f 	jmp	0x9ee6	; 0x9ee6 <__epilogue_restores__+0x20>

00000b82 <__floatunsisf>:
     b82:	a8 e0       	ldi	r26, 0x08	; 8
     b84:	b0 e0       	ldi	r27, 0x00	; 0
     b86:	e7 ec       	ldi	r30, 0xC7	; 199
     b88:	f5 e0       	ldi	r31, 0x05	; 5
     b8a:	0c 94 4f 4f 	jmp	0x9e9e	; 0x9e9e <__prologue_saves__+0x10>
     b8e:	7b 01       	movw	r14, r22
     b90:	8c 01       	movw	r16, r24
     b92:	61 15       	cp	r22, r1
     b94:	71 05       	cpc	r23, r1
     b96:	81 05       	cpc	r24, r1
     b98:	91 05       	cpc	r25, r1
     b9a:	19 f4       	brne	.+6      	; 0xba2 <__floatunsisf+0x20>
     b9c:	82 e0       	ldi	r24, 0x02	; 2
     b9e:	89 83       	std	Y+1, r24	; 0x01
     ba0:	60 c0       	rjmp	.+192    	; 0xc62 <__floatunsisf+0xe0>
     ba2:	83 e0       	ldi	r24, 0x03	; 3
     ba4:	89 83       	std	Y+1, r24	; 0x01
     ba6:	8e e1       	ldi	r24, 0x1E	; 30
     ba8:	c8 2e       	mov	r12, r24
     baa:	d1 2c       	mov	r13, r1
     bac:	dc 82       	std	Y+4, r13	; 0x04
     bae:	cb 82       	std	Y+3, r12	; 0x03
     bb0:	ed 82       	std	Y+5, r14	; 0x05
     bb2:	fe 82       	std	Y+6, r15	; 0x06
     bb4:	0f 83       	std	Y+7, r16	; 0x07
     bb6:	18 87       	std	Y+8, r17	; 0x08
     bb8:	c8 01       	movw	r24, r16
     bba:	b7 01       	movw	r22, r14
     bbc:	0e 94 3a 06 	call	0xc74	; 0xc74 <__clzsi2>
     bc0:	fc 01       	movw	r30, r24
     bc2:	31 97       	sbiw	r30, 0x01	; 1
     bc4:	f7 ff       	sbrs	r31, 7
     bc6:	3b c0       	rjmp	.+118    	; 0xc3e <__floatunsisf+0xbc>
     bc8:	22 27       	eor	r18, r18
     bca:	33 27       	eor	r19, r19
     bcc:	2e 1b       	sub	r18, r30
     bce:	3f 0b       	sbc	r19, r31
     bd0:	57 01       	movw	r10, r14
     bd2:	68 01       	movw	r12, r16
     bd4:	02 2e       	mov	r0, r18
     bd6:	04 c0       	rjmp	.+8      	; 0xbe0 <__floatunsisf+0x5e>
     bd8:	d6 94       	lsr	r13
     bda:	c7 94       	ror	r12
     bdc:	b7 94       	ror	r11
     bde:	a7 94       	ror	r10
     be0:	0a 94       	dec	r0
     be2:	d2 f7       	brpl	.-12     	; 0xbd8 <__floatunsisf+0x56>
     be4:	40 e0       	ldi	r20, 0x00	; 0
     be6:	50 e0       	ldi	r21, 0x00	; 0
     be8:	60 e0       	ldi	r22, 0x00	; 0
     bea:	70 e0       	ldi	r23, 0x00	; 0
     bec:	81 e0       	ldi	r24, 0x01	; 1
     bee:	90 e0       	ldi	r25, 0x00	; 0
     bf0:	a0 e0       	ldi	r26, 0x00	; 0
     bf2:	b0 e0       	ldi	r27, 0x00	; 0
     bf4:	04 c0       	rjmp	.+8      	; 0xbfe <__floatunsisf+0x7c>
     bf6:	88 0f       	add	r24, r24
     bf8:	99 1f       	adc	r25, r25
     bfa:	aa 1f       	adc	r26, r26
     bfc:	bb 1f       	adc	r27, r27
     bfe:	2a 95       	dec	r18
     c00:	d2 f7       	brpl	.-12     	; 0xbf6 <__floatunsisf+0x74>
     c02:	01 97       	sbiw	r24, 0x01	; 1
     c04:	a1 09       	sbc	r26, r1
     c06:	b1 09       	sbc	r27, r1
     c08:	8e 21       	and	r24, r14
     c0a:	9f 21       	and	r25, r15
     c0c:	a0 23       	and	r26, r16
     c0e:	b1 23       	and	r27, r17
     c10:	00 97       	sbiw	r24, 0x00	; 0
     c12:	a1 05       	cpc	r26, r1
     c14:	b1 05       	cpc	r27, r1
     c16:	21 f0       	breq	.+8      	; 0xc20 <__floatunsisf+0x9e>
     c18:	41 e0       	ldi	r20, 0x01	; 1
     c1a:	50 e0       	ldi	r21, 0x00	; 0
     c1c:	60 e0       	ldi	r22, 0x00	; 0
     c1e:	70 e0       	ldi	r23, 0x00	; 0
     c20:	4a 29       	or	r20, r10
     c22:	5b 29       	or	r21, r11
     c24:	6c 29       	or	r22, r12
     c26:	7d 29       	or	r23, r13
     c28:	4d 83       	std	Y+5, r20	; 0x05
     c2a:	5e 83       	std	Y+6, r21	; 0x06
     c2c:	6f 83       	std	Y+7, r22	; 0x07
     c2e:	78 87       	std	Y+8, r23	; 0x08
     c30:	8e e1       	ldi	r24, 0x1E	; 30
     c32:	90 e0       	ldi	r25, 0x00	; 0
     c34:	8e 1b       	sub	r24, r30
     c36:	9f 0b       	sbc	r25, r31
     c38:	9c 83       	std	Y+4, r25	; 0x04
     c3a:	8b 83       	std	Y+3, r24	; 0x03
     c3c:	12 c0       	rjmp	.+36     	; 0xc62 <__floatunsisf+0xe0>
     c3e:	30 97       	sbiw	r30, 0x00	; 0
     c40:	81 f0       	breq	.+32     	; 0xc62 <__floatunsisf+0xe0>
     c42:	0e 2e       	mov	r0, r30
     c44:	04 c0       	rjmp	.+8      	; 0xc4e <__floatunsisf+0xcc>
     c46:	ee 0c       	add	r14, r14
     c48:	ff 1c       	adc	r15, r15
     c4a:	00 1f       	adc	r16, r16
     c4c:	11 1f       	adc	r17, r17
     c4e:	0a 94       	dec	r0
     c50:	d2 f7       	brpl	.-12     	; 0xc46 <__floatunsisf+0xc4>
     c52:	ed 82       	std	Y+5, r14	; 0x05
     c54:	fe 82       	std	Y+6, r15	; 0x06
     c56:	0f 83       	std	Y+7, r16	; 0x07
     c58:	18 87       	std	Y+8, r17	; 0x08
     c5a:	ce 1a       	sub	r12, r30
     c5c:	df 0a       	sbc	r13, r31
     c5e:	dc 82       	std	Y+4, r13	; 0x04
     c60:	cb 82       	std	Y+3, r12	; 0x03
     c62:	1a 82       	std	Y+2, r1	; 0x02
     c64:	ce 01       	movw	r24, r28
     c66:	01 96       	adiw	r24, 0x01	; 1
     c68:	0e 94 89 06 	call	0xd12	; 0xd12 <__pack_f>
     c6c:	28 96       	adiw	r28, 0x08	; 8
     c6e:	ea e0       	ldi	r30, 0x0A	; 10
     c70:	0c 94 6b 4f 	jmp	0x9ed6	; 0x9ed6 <__epilogue_restores__+0x10>

00000c74 <__clzsi2>:
     c74:	ef 92       	push	r14
     c76:	ff 92       	push	r15
     c78:	0f 93       	push	r16
     c7a:	1f 93       	push	r17
     c7c:	7b 01       	movw	r14, r22
     c7e:	8c 01       	movw	r16, r24
     c80:	80 e0       	ldi	r24, 0x00	; 0
     c82:	e8 16       	cp	r14, r24
     c84:	80 e0       	ldi	r24, 0x00	; 0
     c86:	f8 06       	cpc	r15, r24
     c88:	81 e0       	ldi	r24, 0x01	; 1
     c8a:	08 07       	cpc	r16, r24
     c8c:	80 e0       	ldi	r24, 0x00	; 0
     c8e:	18 07       	cpc	r17, r24
     c90:	88 f4       	brcc	.+34     	; 0xcb4 <__clzsi2+0x40>
     c92:	8f ef       	ldi	r24, 0xFF	; 255
     c94:	e8 16       	cp	r14, r24
     c96:	f1 04       	cpc	r15, r1
     c98:	01 05       	cpc	r16, r1
     c9a:	11 05       	cpc	r17, r1
     c9c:	31 f0       	breq	.+12     	; 0xcaa <__clzsi2+0x36>
     c9e:	28 f0       	brcs	.+10     	; 0xcaa <__clzsi2+0x36>
     ca0:	88 e0       	ldi	r24, 0x08	; 8
     ca2:	90 e0       	ldi	r25, 0x00	; 0
     ca4:	a0 e0       	ldi	r26, 0x00	; 0
     ca6:	b0 e0       	ldi	r27, 0x00	; 0
     ca8:	17 c0       	rjmp	.+46     	; 0xcd8 <__clzsi2+0x64>
     caa:	80 e0       	ldi	r24, 0x00	; 0
     cac:	90 e0       	ldi	r25, 0x00	; 0
     cae:	a0 e0       	ldi	r26, 0x00	; 0
     cb0:	b0 e0       	ldi	r27, 0x00	; 0
     cb2:	12 c0       	rjmp	.+36     	; 0xcd8 <__clzsi2+0x64>
     cb4:	80 e0       	ldi	r24, 0x00	; 0
     cb6:	e8 16       	cp	r14, r24
     cb8:	80 e0       	ldi	r24, 0x00	; 0
     cba:	f8 06       	cpc	r15, r24
     cbc:	80 e0       	ldi	r24, 0x00	; 0
     cbe:	08 07       	cpc	r16, r24
     cc0:	81 e0       	ldi	r24, 0x01	; 1
     cc2:	18 07       	cpc	r17, r24
     cc4:	28 f0       	brcs	.+10     	; 0xcd0 <__clzsi2+0x5c>
     cc6:	88 e1       	ldi	r24, 0x18	; 24
     cc8:	90 e0       	ldi	r25, 0x00	; 0
     cca:	a0 e0       	ldi	r26, 0x00	; 0
     ccc:	b0 e0       	ldi	r27, 0x00	; 0
     cce:	04 c0       	rjmp	.+8      	; 0xcd8 <__clzsi2+0x64>
     cd0:	80 e1       	ldi	r24, 0x10	; 16
     cd2:	90 e0       	ldi	r25, 0x00	; 0
     cd4:	a0 e0       	ldi	r26, 0x00	; 0
     cd6:	b0 e0       	ldi	r27, 0x00	; 0
     cd8:	20 e2       	ldi	r18, 0x20	; 32
     cda:	30 e0       	ldi	r19, 0x00	; 0
     cdc:	40 e0       	ldi	r20, 0x00	; 0
     cde:	50 e0       	ldi	r21, 0x00	; 0
     ce0:	28 1b       	sub	r18, r24
     ce2:	39 0b       	sbc	r19, r25
     ce4:	4a 0b       	sbc	r20, r26
     ce6:	5b 0b       	sbc	r21, r27
     ce8:	04 c0       	rjmp	.+8      	; 0xcf2 <__clzsi2+0x7e>
     cea:	16 95       	lsr	r17
     cec:	07 95       	ror	r16
     cee:	f7 94       	ror	r15
     cf0:	e7 94       	ror	r14
     cf2:	8a 95       	dec	r24
     cf4:	d2 f7       	brpl	.-12     	; 0xcea <__clzsi2+0x76>
     cf6:	f7 01       	movw	r30, r14
     cf8:	e0 5d       	subi	r30, 0xD0	; 208
     cfa:	fb 4f       	sbci	r31, 0xFB	; 251
     cfc:	80 81       	ld	r24, Z
     cfe:	28 1b       	sub	r18, r24
     d00:	31 09       	sbc	r19, r1
     d02:	41 09       	sbc	r20, r1
     d04:	51 09       	sbc	r21, r1
     d06:	c9 01       	movw	r24, r18
     d08:	1f 91       	pop	r17
     d0a:	0f 91       	pop	r16
     d0c:	ff 90       	pop	r15
     d0e:	ef 90       	pop	r14
     d10:	08 95       	ret

00000d12 <__pack_f>:
     d12:	df 92       	push	r13
     d14:	ef 92       	push	r14
     d16:	ff 92       	push	r15
     d18:	0f 93       	push	r16
     d1a:	1f 93       	push	r17
     d1c:	fc 01       	movw	r30, r24
     d1e:	e4 80       	ldd	r14, Z+4	; 0x04
     d20:	f5 80       	ldd	r15, Z+5	; 0x05
     d22:	06 81       	ldd	r16, Z+6	; 0x06
     d24:	17 81       	ldd	r17, Z+7	; 0x07
     d26:	d1 80       	ldd	r13, Z+1	; 0x01
     d28:	80 81       	ld	r24, Z
     d2a:	82 30       	cpi	r24, 0x02	; 2
     d2c:	48 f4       	brcc	.+18     	; 0xd40 <__pack_f+0x2e>
     d2e:	80 e0       	ldi	r24, 0x00	; 0
     d30:	90 e0       	ldi	r25, 0x00	; 0
     d32:	a0 e1       	ldi	r26, 0x10	; 16
     d34:	b0 e0       	ldi	r27, 0x00	; 0
     d36:	e8 2a       	or	r14, r24
     d38:	f9 2a       	or	r15, r25
     d3a:	0a 2b       	or	r16, r26
     d3c:	1b 2b       	or	r17, r27
     d3e:	a5 c0       	rjmp	.+330    	; 0xe8a <__pack_f+0x178>
     d40:	84 30       	cpi	r24, 0x04	; 4
     d42:	09 f4       	brne	.+2      	; 0xd46 <__pack_f+0x34>
     d44:	9f c0       	rjmp	.+318    	; 0xe84 <__pack_f+0x172>
     d46:	82 30       	cpi	r24, 0x02	; 2
     d48:	21 f4       	brne	.+8      	; 0xd52 <__pack_f+0x40>
     d4a:	ee 24       	eor	r14, r14
     d4c:	ff 24       	eor	r15, r15
     d4e:	87 01       	movw	r16, r14
     d50:	05 c0       	rjmp	.+10     	; 0xd5c <__pack_f+0x4a>
     d52:	e1 14       	cp	r14, r1
     d54:	f1 04       	cpc	r15, r1
     d56:	01 05       	cpc	r16, r1
     d58:	11 05       	cpc	r17, r1
     d5a:	19 f4       	brne	.+6      	; 0xd62 <__pack_f+0x50>
     d5c:	e0 e0       	ldi	r30, 0x00	; 0
     d5e:	f0 e0       	ldi	r31, 0x00	; 0
     d60:	96 c0       	rjmp	.+300    	; 0xe8e <__pack_f+0x17c>
     d62:	62 81       	ldd	r22, Z+2	; 0x02
     d64:	73 81       	ldd	r23, Z+3	; 0x03
     d66:	9f ef       	ldi	r25, 0xFF	; 255
     d68:	62 38       	cpi	r22, 0x82	; 130
     d6a:	79 07       	cpc	r23, r25
     d6c:	0c f0       	brlt	.+2      	; 0xd70 <__pack_f+0x5e>
     d6e:	5b c0       	rjmp	.+182    	; 0xe26 <__pack_f+0x114>
     d70:	22 e8       	ldi	r18, 0x82	; 130
     d72:	3f ef       	ldi	r19, 0xFF	; 255
     d74:	26 1b       	sub	r18, r22
     d76:	37 0b       	sbc	r19, r23
     d78:	2a 31       	cpi	r18, 0x1A	; 26
     d7a:	31 05       	cpc	r19, r1
     d7c:	2c f0       	brlt	.+10     	; 0xd88 <__pack_f+0x76>
     d7e:	20 e0       	ldi	r18, 0x00	; 0
     d80:	30 e0       	ldi	r19, 0x00	; 0
     d82:	40 e0       	ldi	r20, 0x00	; 0
     d84:	50 e0       	ldi	r21, 0x00	; 0
     d86:	2a c0       	rjmp	.+84     	; 0xddc <__pack_f+0xca>
     d88:	b8 01       	movw	r22, r16
     d8a:	a7 01       	movw	r20, r14
     d8c:	02 2e       	mov	r0, r18
     d8e:	04 c0       	rjmp	.+8      	; 0xd98 <__pack_f+0x86>
     d90:	76 95       	lsr	r23
     d92:	67 95       	ror	r22
     d94:	57 95       	ror	r21
     d96:	47 95       	ror	r20
     d98:	0a 94       	dec	r0
     d9a:	d2 f7       	brpl	.-12     	; 0xd90 <__pack_f+0x7e>
     d9c:	81 e0       	ldi	r24, 0x01	; 1
     d9e:	90 e0       	ldi	r25, 0x00	; 0
     da0:	a0 e0       	ldi	r26, 0x00	; 0
     da2:	b0 e0       	ldi	r27, 0x00	; 0
     da4:	04 c0       	rjmp	.+8      	; 0xdae <__pack_f+0x9c>
     da6:	88 0f       	add	r24, r24
     da8:	99 1f       	adc	r25, r25
     daa:	aa 1f       	adc	r26, r26
     dac:	bb 1f       	adc	r27, r27
     dae:	2a 95       	dec	r18
     db0:	d2 f7       	brpl	.-12     	; 0xda6 <__pack_f+0x94>
     db2:	01 97       	sbiw	r24, 0x01	; 1
     db4:	a1 09       	sbc	r26, r1
     db6:	b1 09       	sbc	r27, r1
     db8:	8e 21       	and	r24, r14
     dba:	9f 21       	and	r25, r15
     dbc:	a0 23       	and	r26, r16
     dbe:	b1 23       	and	r27, r17
     dc0:	00 97       	sbiw	r24, 0x00	; 0
     dc2:	a1 05       	cpc	r26, r1
     dc4:	b1 05       	cpc	r27, r1
     dc6:	21 f0       	breq	.+8      	; 0xdd0 <__pack_f+0xbe>
     dc8:	81 e0       	ldi	r24, 0x01	; 1
     dca:	90 e0       	ldi	r25, 0x00	; 0
     dcc:	a0 e0       	ldi	r26, 0x00	; 0
     dce:	b0 e0       	ldi	r27, 0x00	; 0
     dd0:	9a 01       	movw	r18, r20
     dd2:	ab 01       	movw	r20, r22
     dd4:	28 2b       	or	r18, r24
     dd6:	39 2b       	or	r19, r25
     dd8:	4a 2b       	or	r20, r26
     dda:	5b 2b       	or	r21, r27
     ddc:	da 01       	movw	r26, r20
     dde:	c9 01       	movw	r24, r18
     de0:	8f 77       	andi	r24, 0x7F	; 127
     de2:	90 70       	andi	r25, 0x00	; 0
     de4:	a0 70       	andi	r26, 0x00	; 0
     de6:	b0 70       	andi	r27, 0x00	; 0
     de8:	80 34       	cpi	r24, 0x40	; 64
     dea:	91 05       	cpc	r25, r1
     dec:	a1 05       	cpc	r26, r1
     dee:	b1 05       	cpc	r27, r1
     df0:	39 f4       	brne	.+14     	; 0xe00 <__pack_f+0xee>
     df2:	27 ff       	sbrs	r18, 7
     df4:	09 c0       	rjmp	.+18     	; 0xe08 <__pack_f+0xf6>
     df6:	20 5c       	subi	r18, 0xC0	; 192
     df8:	3f 4f       	sbci	r19, 0xFF	; 255
     dfa:	4f 4f       	sbci	r20, 0xFF	; 255
     dfc:	5f 4f       	sbci	r21, 0xFF	; 255
     dfe:	04 c0       	rjmp	.+8      	; 0xe08 <__pack_f+0xf6>
     e00:	21 5c       	subi	r18, 0xC1	; 193
     e02:	3f 4f       	sbci	r19, 0xFF	; 255
     e04:	4f 4f       	sbci	r20, 0xFF	; 255
     e06:	5f 4f       	sbci	r21, 0xFF	; 255
     e08:	e0 e0       	ldi	r30, 0x00	; 0
     e0a:	f0 e0       	ldi	r31, 0x00	; 0
     e0c:	20 30       	cpi	r18, 0x00	; 0
     e0e:	a0 e0       	ldi	r26, 0x00	; 0
     e10:	3a 07       	cpc	r19, r26
     e12:	a0 e0       	ldi	r26, 0x00	; 0
     e14:	4a 07       	cpc	r20, r26
     e16:	a0 e4       	ldi	r26, 0x40	; 64
     e18:	5a 07       	cpc	r21, r26
     e1a:	10 f0       	brcs	.+4      	; 0xe20 <__pack_f+0x10e>
     e1c:	e1 e0       	ldi	r30, 0x01	; 1
     e1e:	f0 e0       	ldi	r31, 0x00	; 0
     e20:	79 01       	movw	r14, r18
     e22:	8a 01       	movw	r16, r20
     e24:	27 c0       	rjmp	.+78     	; 0xe74 <__pack_f+0x162>
     e26:	60 38       	cpi	r22, 0x80	; 128
     e28:	71 05       	cpc	r23, r1
     e2a:	64 f5       	brge	.+88     	; 0xe84 <__pack_f+0x172>
     e2c:	fb 01       	movw	r30, r22
     e2e:	e1 58       	subi	r30, 0x81	; 129
     e30:	ff 4f       	sbci	r31, 0xFF	; 255
     e32:	d8 01       	movw	r26, r16
     e34:	c7 01       	movw	r24, r14
     e36:	8f 77       	andi	r24, 0x7F	; 127
     e38:	90 70       	andi	r25, 0x00	; 0
     e3a:	a0 70       	andi	r26, 0x00	; 0
     e3c:	b0 70       	andi	r27, 0x00	; 0
     e3e:	80 34       	cpi	r24, 0x40	; 64
     e40:	91 05       	cpc	r25, r1
     e42:	a1 05       	cpc	r26, r1
     e44:	b1 05       	cpc	r27, r1
     e46:	39 f4       	brne	.+14     	; 0xe56 <__pack_f+0x144>
     e48:	e7 fe       	sbrs	r14, 7
     e4a:	0d c0       	rjmp	.+26     	; 0xe66 <__pack_f+0x154>
     e4c:	80 e4       	ldi	r24, 0x40	; 64
     e4e:	90 e0       	ldi	r25, 0x00	; 0
     e50:	a0 e0       	ldi	r26, 0x00	; 0
     e52:	b0 e0       	ldi	r27, 0x00	; 0
     e54:	04 c0       	rjmp	.+8      	; 0xe5e <__pack_f+0x14c>
     e56:	8f e3       	ldi	r24, 0x3F	; 63
     e58:	90 e0       	ldi	r25, 0x00	; 0
     e5a:	a0 e0       	ldi	r26, 0x00	; 0
     e5c:	b0 e0       	ldi	r27, 0x00	; 0
     e5e:	e8 0e       	add	r14, r24
     e60:	f9 1e       	adc	r15, r25
     e62:	0a 1f       	adc	r16, r26
     e64:	1b 1f       	adc	r17, r27
     e66:	17 ff       	sbrs	r17, 7
     e68:	05 c0       	rjmp	.+10     	; 0xe74 <__pack_f+0x162>
     e6a:	16 95       	lsr	r17
     e6c:	07 95       	ror	r16
     e6e:	f7 94       	ror	r15
     e70:	e7 94       	ror	r14
     e72:	31 96       	adiw	r30, 0x01	; 1
     e74:	87 e0       	ldi	r24, 0x07	; 7
     e76:	16 95       	lsr	r17
     e78:	07 95       	ror	r16
     e7a:	f7 94       	ror	r15
     e7c:	e7 94       	ror	r14
     e7e:	8a 95       	dec	r24
     e80:	d1 f7       	brne	.-12     	; 0xe76 <__pack_f+0x164>
     e82:	05 c0       	rjmp	.+10     	; 0xe8e <__pack_f+0x17c>
     e84:	ee 24       	eor	r14, r14
     e86:	ff 24       	eor	r15, r15
     e88:	87 01       	movw	r16, r14
     e8a:	ef ef       	ldi	r30, 0xFF	; 255
     e8c:	f0 e0       	ldi	r31, 0x00	; 0
     e8e:	6e 2f       	mov	r22, r30
     e90:	67 95       	ror	r22
     e92:	66 27       	eor	r22, r22
     e94:	67 95       	ror	r22
     e96:	90 2f       	mov	r25, r16
     e98:	9f 77       	andi	r25, 0x7F	; 127
     e9a:	d7 94       	ror	r13
     e9c:	dd 24       	eor	r13, r13
     e9e:	d7 94       	ror	r13
     ea0:	8e 2f       	mov	r24, r30
     ea2:	86 95       	lsr	r24
     ea4:	49 2f       	mov	r20, r25
     ea6:	46 2b       	or	r20, r22
     ea8:	58 2f       	mov	r21, r24
     eaa:	5d 29       	or	r21, r13
     eac:	b7 01       	movw	r22, r14
     eae:	ca 01       	movw	r24, r20
     eb0:	1f 91       	pop	r17
     eb2:	0f 91       	pop	r16
     eb4:	ff 90       	pop	r15
     eb6:	ef 90       	pop	r14
     eb8:	df 90       	pop	r13
     eba:	08 95       	ret

00000ebc <__unpack_f>:
     ebc:	fc 01       	movw	r30, r24
     ebe:	db 01       	movw	r26, r22
     ec0:	40 81       	ld	r20, Z
     ec2:	51 81       	ldd	r21, Z+1	; 0x01
     ec4:	22 81       	ldd	r18, Z+2	; 0x02
     ec6:	62 2f       	mov	r22, r18
     ec8:	6f 77       	andi	r22, 0x7F	; 127
     eca:	70 e0       	ldi	r23, 0x00	; 0
     ecc:	22 1f       	adc	r18, r18
     ece:	22 27       	eor	r18, r18
     ed0:	22 1f       	adc	r18, r18
     ed2:	93 81       	ldd	r25, Z+3	; 0x03
     ed4:	89 2f       	mov	r24, r25
     ed6:	88 0f       	add	r24, r24
     ed8:	82 2b       	or	r24, r18
     eda:	28 2f       	mov	r18, r24
     edc:	30 e0       	ldi	r19, 0x00	; 0
     ede:	99 1f       	adc	r25, r25
     ee0:	99 27       	eor	r25, r25
     ee2:	99 1f       	adc	r25, r25
     ee4:	11 96       	adiw	r26, 0x01	; 1
     ee6:	9c 93       	st	X, r25
     ee8:	11 97       	sbiw	r26, 0x01	; 1
     eea:	21 15       	cp	r18, r1
     eec:	31 05       	cpc	r19, r1
     eee:	a9 f5       	brne	.+106    	; 0xf5a <__unpack_f+0x9e>
     ef0:	41 15       	cp	r20, r1
     ef2:	51 05       	cpc	r21, r1
     ef4:	61 05       	cpc	r22, r1
     ef6:	71 05       	cpc	r23, r1
     ef8:	11 f4       	brne	.+4      	; 0xefe <__unpack_f+0x42>
     efa:	82 e0       	ldi	r24, 0x02	; 2
     efc:	37 c0       	rjmp	.+110    	; 0xf6c <__unpack_f+0xb0>
     efe:	82 e8       	ldi	r24, 0x82	; 130
     f00:	9f ef       	ldi	r25, 0xFF	; 255
     f02:	13 96       	adiw	r26, 0x03	; 3
     f04:	9c 93       	st	X, r25
     f06:	8e 93       	st	-X, r24
     f08:	12 97       	sbiw	r26, 0x02	; 2
     f0a:	9a 01       	movw	r18, r20
     f0c:	ab 01       	movw	r20, r22
     f0e:	67 e0       	ldi	r22, 0x07	; 7
     f10:	22 0f       	add	r18, r18
     f12:	33 1f       	adc	r19, r19
     f14:	44 1f       	adc	r20, r20
     f16:	55 1f       	adc	r21, r21
     f18:	6a 95       	dec	r22
     f1a:	d1 f7       	brne	.-12     	; 0xf10 <__unpack_f+0x54>
     f1c:	83 e0       	ldi	r24, 0x03	; 3
     f1e:	8c 93       	st	X, r24
     f20:	0d c0       	rjmp	.+26     	; 0xf3c <__unpack_f+0x80>
     f22:	22 0f       	add	r18, r18
     f24:	33 1f       	adc	r19, r19
     f26:	44 1f       	adc	r20, r20
     f28:	55 1f       	adc	r21, r21
     f2a:	12 96       	adiw	r26, 0x02	; 2
     f2c:	8d 91       	ld	r24, X+
     f2e:	9c 91       	ld	r25, X
     f30:	13 97       	sbiw	r26, 0x03	; 3
     f32:	01 97       	sbiw	r24, 0x01	; 1
     f34:	13 96       	adiw	r26, 0x03	; 3
     f36:	9c 93       	st	X, r25
     f38:	8e 93       	st	-X, r24
     f3a:	12 97       	sbiw	r26, 0x02	; 2
     f3c:	20 30       	cpi	r18, 0x00	; 0
     f3e:	80 e0       	ldi	r24, 0x00	; 0
     f40:	38 07       	cpc	r19, r24
     f42:	80 e0       	ldi	r24, 0x00	; 0
     f44:	48 07       	cpc	r20, r24
     f46:	80 e4       	ldi	r24, 0x40	; 64
     f48:	58 07       	cpc	r21, r24
     f4a:	58 f3       	brcs	.-42     	; 0xf22 <__unpack_f+0x66>
     f4c:	14 96       	adiw	r26, 0x04	; 4
     f4e:	2d 93       	st	X+, r18
     f50:	3d 93       	st	X+, r19
     f52:	4d 93       	st	X+, r20
     f54:	5c 93       	st	X, r21
     f56:	17 97       	sbiw	r26, 0x07	; 7
     f58:	08 95       	ret
     f5a:	2f 3f       	cpi	r18, 0xFF	; 255
     f5c:	31 05       	cpc	r19, r1
     f5e:	79 f4       	brne	.+30     	; 0xf7e <__unpack_f+0xc2>
     f60:	41 15       	cp	r20, r1
     f62:	51 05       	cpc	r21, r1
     f64:	61 05       	cpc	r22, r1
     f66:	71 05       	cpc	r23, r1
     f68:	19 f4       	brne	.+6      	; 0xf70 <__unpack_f+0xb4>
     f6a:	84 e0       	ldi	r24, 0x04	; 4
     f6c:	8c 93       	st	X, r24
     f6e:	08 95       	ret
     f70:	64 ff       	sbrs	r22, 4
     f72:	03 c0       	rjmp	.+6      	; 0xf7a <__unpack_f+0xbe>
     f74:	81 e0       	ldi	r24, 0x01	; 1
     f76:	8c 93       	st	X, r24
     f78:	12 c0       	rjmp	.+36     	; 0xf9e <__unpack_f+0xe2>
     f7a:	1c 92       	st	X, r1
     f7c:	10 c0       	rjmp	.+32     	; 0xf9e <__unpack_f+0xe2>
     f7e:	2f 57       	subi	r18, 0x7F	; 127
     f80:	30 40       	sbci	r19, 0x00	; 0
     f82:	13 96       	adiw	r26, 0x03	; 3
     f84:	3c 93       	st	X, r19
     f86:	2e 93       	st	-X, r18
     f88:	12 97       	sbiw	r26, 0x02	; 2
     f8a:	83 e0       	ldi	r24, 0x03	; 3
     f8c:	8c 93       	st	X, r24
     f8e:	87 e0       	ldi	r24, 0x07	; 7
     f90:	44 0f       	add	r20, r20
     f92:	55 1f       	adc	r21, r21
     f94:	66 1f       	adc	r22, r22
     f96:	77 1f       	adc	r23, r23
     f98:	8a 95       	dec	r24
     f9a:	d1 f7       	brne	.-12     	; 0xf90 <__unpack_f+0xd4>
     f9c:	70 64       	ori	r23, 0x40	; 64
     f9e:	14 96       	adiw	r26, 0x04	; 4
     fa0:	4d 93       	st	X+, r20
     fa2:	5d 93       	st	X+, r21
     fa4:	6d 93       	st	X+, r22
     fa6:	7c 93       	st	X, r23
     fa8:	17 97       	sbiw	r26, 0x07	; 7
     faa:	08 95       	ret

00000fac <__fpcmp_parts_f>:
     fac:	1f 93       	push	r17
     fae:	dc 01       	movw	r26, r24
     fb0:	fb 01       	movw	r30, r22
     fb2:	9c 91       	ld	r25, X
     fb4:	92 30       	cpi	r25, 0x02	; 2
     fb6:	08 f4       	brcc	.+2      	; 0xfba <__fpcmp_parts_f+0xe>
     fb8:	47 c0       	rjmp	.+142    	; 0x1048 <__fpcmp_parts_f+0x9c>
     fba:	80 81       	ld	r24, Z
     fbc:	82 30       	cpi	r24, 0x02	; 2
     fbe:	08 f4       	brcc	.+2      	; 0xfc2 <__fpcmp_parts_f+0x16>
     fc0:	43 c0       	rjmp	.+134    	; 0x1048 <__fpcmp_parts_f+0x9c>
     fc2:	94 30       	cpi	r25, 0x04	; 4
     fc4:	51 f4       	brne	.+20     	; 0xfda <__fpcmp_parts_f+0x2e>
     fc6:	11 96       	adiw	r26, 0x01	; 1
     fc8:	1c 91       	ld	r17, X
     fca:	84 30       	cpi	r24, 0x04	; 4
     fcc:	99 f5       	brne	.+102    	; 0x1034 <__fpcmp_parts_f+0x88>
     fce:	81 81       	ldd	r24, Z+1	; 0x01
     fd0:	68 2f       	mov	r22, r24
     fd2:	70 e0       	ldi	r23, 0x00	; 0
     fd4:	61 1b       	sub	r22, r17
     fd6:	71 09       	sbc	r23, r1
     fd8:	3f c0       	rjmp	.+126    	; 0x1058 <__fpcmp_parts_f+0xac>
     fda:	84 30       	cpi	r24, 0x04	; 4
     fdc:	21 f0       	breq	.+8      	; 0xfe6 <__fpcmp_parts_f+0x3a>
     fde:	92 30       	cpi	r25, 0x02	; 2
     fe0:	31 f4       	brne	.+12     	; 0xfee <__fpcmp_parts_f+0x42>
     fe2:	82 30       	cpi	r24, 0x02	; 2
     fe4:	b9 f1       	breq	.+110    	; 0x1054 <__fpcmp_parts_f+0xa8>
     fe6:	81 81       	ldd	r24, Z+1	; 0x01
     fe8:	88 23       	and	r24, r24
     fea:	89 f1       	breq	.+98     	; 0x104e <__fpcmp_parts_f+0xa2>
     fec:	2d c0       	rjmp	.+90     	; 0x1048 <__fpcmp_parts_f+0x9c>
     fee:	11 96       	adiw	r26, 0x01	; 1
     ff0:	1c 91       	ld	r17, X
     ff2:	11 97       	sbiw	r26, 0x01	; 1
     ff4:	82 30       	cpi	r24, 0x02	; 2
     ff6:	f1 f0       	breq	.+60     	; 0x1034 <__fpcmp_parts_f+0x88>
     ff8:	81 81       	ldd	r24, Z+1	; 0x01
     ffa:	18 17       	cp	r17, r24
     ffc:	d9 f4       	brne	.+54     	; 0x1034 <__fpcmp_parts_f+0x88>
     ffe:	12 96       	adiw	r26, 0x02	; 2
    1000:	2d 91       	ld	r18, X+
    1002:	3c 91       	ld	r19, X
    1004:	13 97       	sbiw	r26, 0x03	; 3
    1006:	82 81       	ldd	r24, Z+2	; 0x02
    1008:	93 81       	ldd	r25, Z+3	; 0x03
    100a:	82 17       	cp	r24, r18
    100c:	93 07       	cpc	r25, r19
    100e:	94 f0       	brlt	.+36     	; 0x1034 <__fpcmp_parts_f+0x88>
    1010:	28 17       	cp	r18, r24
    1012:	39 07       	cpc	r19, r25
    1014:	bc f0       	brlt	.+46     	; 0x1044 <__fpcmp_parts_f+0x98>
    1016:	14 96       	adiw	r26, 0x04	; 4
    1018:	8d 91       	ld	r24, X+
    101a:	9d 91       	ld	r25, X+
    101c:	0d 90       	ld	r0, X+
    101e:	bc 91       	ld	r27, X
    1020:	a0 2d       	mov	r26, r0
    1022:	24 81       	ldd	r18, Z+4	; 0x04
    1024:	35 81       	ldd	r19, Z+5	; 0x05
    1026:	46 81       	ldd	r20, Z+6	; 0x06
    1028:	57 81       	ldd	r21, Z+7	; 0x07
    102a:	28 17       	cp	r18, r24
    102c:	39 07       	cpc	r19, r25
    102e:	4a 07       	cpc	r20, r26
    1030:	5b 07       	cpc	r21, r27
    1032:	18 f4       	brcc	.+6      	; 0x103a <__fpcmp_parts_f+0x8e>
    1034:	11 23       	and	r17, r17
    1036:	41 f0       	breq	.+16     	; 0x1048 <__fpcmp_parts_f+0x9c>
    1038:	0a c0       	rjmp	.+20     	; 0x104e <__fpcmp_parts_f+0xa2>
    103a:	82 17       	cp	r24, r18
    103c:	93 07       	cpc	r25, r19
    103e:	a4 07       	cpc	r26, r20
    1040:	b5 07       	cpc	r27, r21
    1042:	40 f4       	brcc	.+16     	; 0x1054 <__fpcmp_parts_f+0xa8>
    1044:	11 23       	and	r17, r17
    1046:	19 f0       	breq	.+6      	; 0x104e <__fpcmp_parts_f+0xa2>
    1048:	61 e0       	ldi	r22, 0x01	; 1
    104a:	70 e0       	ldi	r23, 0x00	; 0
    104c:	05 c0       	rjmp	.+10     	; 0x1058 <__fpcmp_parts_f+0xac>
    104e:	6f ef       	ldi	r22, 0xFF	; 255
    1050:	7f ef       	ldi	r23, 0xFF	; 255
    1052:	02 c0       	rjmp	.+4      	; 0x1058 <__fpcmp_parts_f+0xac>
    1054:	60 e0       	ldi	r22, 0x00	; 0
    1056:	70 e0       	ldi	r23, 0x00	; 0
    1058:	cb 01       	movw	r24, r22
    105a:	1f 91       	pop	r17
    105c:	08 95       	ret

0000105e <malloc>:
    105e:	cf 93       	push	r28
    1060:	df 93       	push	r29
    1062:	bc 01       	movw	r22, r24
    1064:	82 30       	cpi	r24, 0x02	; 2
    1066:	91 05       	cpc	r25, r1
    1068:	10 f4       	brcc	.+4      	; 0x106e <malloc+0x10>
    106a:	62 e0       	ldi	r22, 0x02	; 2
    106c:	70 e0       	ldi	r23, 0x00	; 0
    106e:	a0 91 d7 09 	lds	r26, 0x09D7
    1072:	b0 91 d8 09 	lds	r27, 0x09D8
    1076:	ed 01       	movw	r28, r26
    1078:	e0 e0       	ldi	r30, 0x00	; 0
    107a:	f0 e0       	ldi	r31, 0x00	; 0
    107c:	40 e0       	ldi	r20, 0x00	; 0
    107e:	50 e0       	ldi	r21, 0x00	; 0
    1080:	21 c0       	rjmp	.+66     	; 0x10c4 <malloc+0x66>
    1082:	88 81       	ld	r24, Y
    1084:	99 81       	ldd	r25, Y+1	; 0x01
    1086:	86 17       	cp	r24, r22
    1088:	97 07       	cpc	r25, r23
    108a:	69 f4       	brne	.+26     	; 0x10a6 <malloc+0x48>
    108c:	8a 81       	ldd	r24, Y+2	; 0x02
    108e:	9b 81       	ldd	r25, Y+3	; 0x03
    1090:	30 97       	sbiw	r30, 0x00	; 0
    1092:	19 f0       	breq	.+6      	; 0x109a <malloc+0x3c>
    1094:	93 83       	std	Z+3, r25	; 0x03
    1096:	82 83       	std	Z+2, r24	; 0x02
    1098:	04 c0       	rjmp	.+8      	; 0x10a2 <malloc+0x44>
    109a:	90 93 d8 09 	sts	0x09D8, r25
    109e:	80 93 d7 09 	sts	0x09D7, r24
    10a2:	fe 01       	movw	r30, r28
    10a4:	34 c0       	rjmp	.+104    	; 0x110e <malloc+0xb0>
    10a6:	68 17       	cp	r22, r24
    10a8:	79 07       	cpc	r23, r25
    10aa:	38 f4       	brcc	.+14     	; 0x10ba <malloc+0x5c>
    10ac:	41 15       	cp	r20, r1
    10ae:	51 05       	cpc	r21, r1
    10b0:	19 f0       	breq	.+6      	; 0x10b8 <malloc+0x5a>
    10b2:	84 17       	cp	r24, r20
    10b4:	95 07       	cpc	r25, r21
    10b6:	08 f4       	brcc	.+2      	; 0x10ba <malloc+0x5c>
    10b8:	ac 01       	movw	r20, r24
    10ba:	fe 01       	movw	r30, r28
    10bc:	8a 81       	ldd	r24, Y+2	; 0x02
    10be:	9b 81       	ldd	r25, Y+3	; 0x03
    10c0:	9c 01       	movw	r18, r24
    10c2:	e9 01       	movw	r28, r18
    10c4:	20 97       	sbiw	r28, 0x00	; 0
    10c6:	e9 f6       	brne	.-70     	; 0x1082 <malloc+0x24>
    10c8:	41 15       	cp	r20, r1
    10ca:	51 05       	cpc	r21, r1
    10cc:	a9 f1       	breq	.+106    	; 0x1138 <malloc+0xda>
    10ce:	ca 01       	movw	r24, r20
    10d0:	86 1b       	sub	r24, r22
    10d2:	97 0b       	sbc	r25, r23
    10d4:	04 97       	sbiw	r24, 0x04	; 4
    10d6:	08 f4       	brcc	.+2      	; 0x10da <malloc+0x7c>
    10d8:	ba 01       	movw	r22, r20
    10da:	e0 e0       	ldi	r30, 0x00	; 0
    10dc:	f0 e0       	ldi	r31, 0x00	; 0
    10de:	2a c0       	rjmp	.+84     	; 0x1134 <malloc+0xd6>
    10e0:	8d 91       	ld	r24, X+
    10e2:	9c 91       	ld	r25, X
    10e4:	11 97       	sbiw	r26, 0x01	; 1
    10e6:	84 17       	cp	r24, r20
    10e8:	95 07       	cpc	r25, r21
    10ea:	f9 f4       	brne	.+62     	; 0x112a <malloc+0xcc>
    10ec:	64 17       	cp	r22, r20
    10ee:	75 07       	cpc	r23, r21
    10f0:	81 f4       	brne	.+32     	; 0x1112 <malloc+0xb4>
    10f2:	12 96       	adiw	r26, 0x02	; 2
    10f4:	8d 91       	ld	r24, X+
    10f6:	9c 91       	ld	r25, X
    10f8:	13 97       	sbiw	r26, 0x03	; 3
    10fa:	30 97       	sbiw	r30, 0x00	; 0
    10fc:	19 f0       	breq	.+6      	; 0x1104 <malloc+0xa6>
    10fe:	93 83       	std	Z+3, r25	; 0x03
    1100:	82 83       	std	Z+2, r24	; 0x02
    1102:	04 c0       	rjmp	.+8      	; 0x110c <malloc+0xae>
    1104:	90 93 d8 09 	sts	0x09D8, r25
    1108:	80 93 d7 09 	sts	0x09D7, r24
    110c:	fd 01       	movw	r30, r26
    110e:	32 96       	adiw	r30, 0x02	; 2
    1110:	4c c0       	rjmp	.+152    	; 0x11aa <malloc+0x14c>
    1112:	ca 01       	movw	r24, r20
    1114:	86 1b       	sub	r24, r22
    1116:	97 0b       	sbc	r25, r23
    1118:	fd 01       	movw	r30, r26
    111a:	e8 0f       	add	r30, r24
    111c:	f9 1f       	adc	r31, r25
    111e:	61 93       	st	Z+, r22
    1120:	71 93       	st	Z+, r23
    1122:	02 97       	sbiw	r24, 0x02	; 2
    1124:	8d 93       	st	X+, r24
    1126:	9c 93       	st	X, r25
    1128:	40 c0       	rjmp	.+128    	; 0x11aa <malloc+0x14c>
    112a:	fd 01       	movw	r30, r26
    112c:	82 81       	ldd	r24, Z+2	; 0x02
    112e:	93 81       	ldd	r25, Z+3	; 0x03
    1130:	9c 01       	movw	r18, r24
    1132:	d9 01       	movw	r26, r18
    1134:	10 97       	sbiw	r26, 0x00	; 0
    1136:	a1 f6       	brne	.-88     	; 0x10e0 <malloc+0x82>
    1138:	80 91 d5 09 	lds	r24, 0x09D5
    113c:	90 91 d6 09 	lds	r25, 0x09D6
    1140:	89 2b       	or	r24, r25
    1142:	41 f4       	brne	.+16     	; 0x1154 <malloc+0xf6>
    1144:	80 91 32 05 	lds	r24, 0x0532
    1148:	90 91 33 05 	lds	r25, 0x0533
    114c:	90 93 d6 09 	sts	0x09D6, r25
    1150:	80 93 d5 09 	sts	0x09D5, r24
    1154:	40 91 34 05 	lds	r20, 0x0534
    1158:	50 91 35 05 	lds	r21, 0x0535
    115c:	41 15       	cp	r20, r1
    115e:	51 05       	cpc	r21, r1
    1160:	41 f4       	brne	.+16     	; 0x1172 <malloc+0x114>
    1162:	4d b7       	in	r20, 0x3d	; 61
    1164:	5e b7       	in	r21, 0x3e	; 62
    1166:	80 91 30 05 	lds	r24, 0x0530
    116a:	90 91 31 05 	lds	r25, 0x0531
    116e:	48 1b       	sub	r20, r24
    1170:	59 0b       	sbc	r21, r25
    1172:	20 91 d5 09 	lds	r18, 0x09D5
    1176:	30 91 d6 09 	lds	r19, 0x09D6
    117a:	ca 01       	movw	r24, r20
    117c:	82 1b       	sub	r24, r18
    117e:	93 0b       	sbc	r25, r19
    1180:	86 17       	cp	r24, r22
    1182:	97 07       	cpc	r25, r23
    1184:	80 f0       	brcs	.+32     	; 0x11a6 <malloc+0x148>
    1186:	ab 01       	movw	r20, r22
    1188:	4e 5f       	subi	r20, 0xFE	; 254
    118a:	5f 4f       	sbci	r21, 0xFF	; 255
    118c:	84 17       	cp	r24, r20
    118e:	95 07       	cpc	r25, r21
    1190:	50 f0       	brcs	.+20     	; 0x11a6 <malloc+0x148>
    1192:	42 0f       	add	r20, r18
    1194:	53 1f       	adc	r21, r19
    1196:	50 93 d6 09 	sts	0x09D6, r21
    119a:	40 93 d5 09 	sts	0x09D5, r20
    119e:	f9 01       	movw	r30, r18
    11a0:	61 93       	st	Z+, r22
    11a2:	71 93       	st	Z+, r23
    11a4:	02 c0       	rjmp	.+4      	; 0x11aa <malloc+0x14c>
    11a6:	e0 e0       	ldi	r30, 0x00	; 0
    11a8:	f0 e0       	ldi	r31, 0x00	; 0
    11aa:	cf 01       	movw	r24, r30
    11ac:	df 91       	pop	r29
    11ae:	cf 91       	pop	r28
    11b0:	08 95       	ret

000011b2 <free>:
    11b2:	cf 93       	push	r28
    11b4:	df 93       	push	r29
    11b6:	00 97       	sbiw	r24, 0x00	; 0
    11b8:	09 f4       	brne	.+2      	; 0x11bc <free+0xa>
    11ba:	50 c0       	rjmp	.+160    	; 0x125c <free+0xaa>
    11bc:	ec 01       	movw	r28, r24
    11be:	22 97       	sbiw	r28, 0x02	; 2
    11c0:	1b 82       	std	Y+3, r1	; 0x03
    11c2:	1a 82       	std	Y+2, r1	; 0x02
    11c4:	a0 91 d7 09 	lds	r26, 0x09D7
    11c8:	b0 91 d8 09 	lds	r27, 0x09D8
    11cc:	10 97       	sbiw	r26, 0x00	; 0
    11ce:	09 f1       	breq	.+66     	; 0x1212 <free+0x60>
    11d0:	40 e0       	ldi	r20, 0x00	; 0
    11d2:	50 e0       	ldi	r21, 0x00	; 0
    11d4:	ac 17       	cp	r26, r28
    11d6:	bd 07       	cpc	r27, r29
    11d8:	08 f1       	brcs	.+66     	; 0x121c <free+0x6a>
    11da:	bb 83       	std	Y+3, r27	; 0x03
    11dc:	aa 83       	std	Y+2, r26	; 0x02
    11de:	fe 01       	movw	r30, r28
    11e0:	21 91       	ld	r18, Z+
    11e2:	31 91       	ld	r19, Z+
    11e4:	e2 0f       	add	r30, r18
    11e6:	f3 1f       	adc	r31, r19
    11e8:	ae 17       	cp	r26, r30
    11ea:	bf 07       	cpc	r27, r31
    11ec:	79 f4       	brne	.+30     	; 0x120c <free+0x5a>
    11ee:	8d 91       	ld	r24, X+
    11f0:	9c 91       	ld	r25, X
    11f2:	11 97       	sbiw	r26, 0x01	; 1
    11f4:	28 0f       	add	r18, r24
    11f6:	39 1f       	adc	r19, r25
    11f8:	2e 5f       	subi	r18, 0xFE	; 254
    11fa:	3f 4f       	sbci	r19, 0xFF	; 255
    11fc:	39 83       	std	Y+1, r19	; 0x01
    11fe:	28 83       	st	Y, r18
    1200:	12 96       	adiw	r26, 0x02	; 2
    1202:	8d 91       	ld	r24, X+
    1204:	9c 91       	ld	r25, X
    1206:	13 97       	sbiw	r26, 0x03	; 3
    1208:	9b 83       	std	Y+3, r25	; 0x03
    120a:	8a 83       	std	Y+2, r24	; 0x02
    120c:	41 15       	cp	r20, r1
    120e:	51 05       	cpc	r21, r1
    1210:	71 f4       	brne	.+28     	; 0x122e <free+0x7c>
    1212:	d0 93 d8 09 	sts	0x09D8, r29
    1216:	c0 93 d7 09 	sts	0x09D7, r28
    121a:	20 c0       	rjmp	.+64     	; 0x125c <free+0xaa>
    121c:	12 96       	adiw	r26, 0x02	; 2
    121e:	8d 91       	ld	r24, X+
    1220:	9c 91       	ld	r25, X
    1222:	13 97       	sbiw	r26, 0x03	; 3
    1224:	ad 01       	movw	r20, r26
    1226:	00 97       	sbiw	r24, 0x00	; 0
    1228:	11 f0       	breq	.+4      	; 0x122e <free+0x7c>
    122a:	dc 01       	movw	r26, r24
    122c:	d3 cf       	rjmp	.-90     	; 0x11d4 <free+0x22>
    122e:	fa 01       	movw	r30, r20
    1230:	d3 83       	std	Z+3, r29	; 0x03
    1232:	c2 83       	std	Z+2, r28	; 0x02
    1234:	21 91       	ld	r18, Z+
    1236:	31 91       	ld	r19, Z+
    1238:	e2 0f       	add	r30, r18
    123a:	f3 1f       	adc	r31, r19
    123c:	ce 17       	cp	r28, r30
    123e:	df 07       	cpc	r29, r31
    1240:	69 f4       	brne	.+26     	; 0x125c <free+0xaa>
    1242:	88 81       	ld	r24, Y
    1244:	99 81       	ldd	r25, Y+1	; 0x01
    1246:	28 0f       	add	r18, r24
    1248:	39 1f       	adc	r19, r25
    124a:	2e 5f       	subi	r18, 0xFE	; 254
    124c:	3f 4f       	sbci	r19, 0xFF	; 255
    124e:	fa 01       	movw	r30, r20
    1250:	31 83       	std	Z+1, r19	; 0x01
    1252:	20 83       	st	Z, r18
    1254:	8a 81       	ldd	r24, Y+2	; 0x02
    1256:	9b 81       	ldd	r25, Y+3	; 0x03
    1258:	93 83       	std	Z+3, r25	; 0x03
    125a:	82 83       	std	Z+2, r24	; 0x02
    125c:	df 91       	pop	r29
    125e:	cf 91       	pop	r28
    1260:	08 95       	ret

00001262 <do_random>:
    1262:	a0 e0       	ldi	r26, 0x00	; 0
    1264:	b0 e0       	ldi	r27, 0x00	; 0
    1266:	e7 e3       	ldi	r30, 0x37	; 55
    1268:	f9 e0       	ldi	r31, 0x09	; 9
    126a:	0c 94 4f 4f 	jmp	0x9e9e	; 0x9e9e <__prologue_saves__+0x10>
    126e:	ec 01       	movw	r28, r24
    1270:	a8 80       	ld	r10, Y
    1272:	b9 80       	ldd	r11, Y+1	; 0x01
    1274:	ca 80       	ldd	r12, Y+2	; 0x02
    1276:	db 80       	ldd	r13, Y+3	; 0x03
    1278:	a1 14       	cp	r10, r1
    127a:	b1 04       	cpc	r11, r1
    127c:	c1 04       	cpc	r12, r1
    127e:	d1 04       	cpc	r13, r1
    1280:	41 f4       	brne	.+16     	; 0x1292 <do_random+0x30>
    1282:	84 e2       	ldi	r24, 0x24	; 36
    1284:	a8 2e       	mov	r10, r24
    1286:	89 ed       	ldi	r24, 0xD9	; 217
    1288:	b8 2e       	mov	r11, r24
    128a:	8b e5       	ldi	r24, 0x5B	; 91
    128c:	c8 2e       	mov	r12, r24
    128e:	87 e0       	ldi	r24, 0x07	; 7
    1290:	d8 2e       	mov	r13, r24
    1292:	c6 01       	movw	r24, r12
    1294:	b5 01       	movw	r22, r10
    1296:	2d e1       	ldi	r18, 0x1D	; 29
    1298:	33 ef       	ldi	r19, 0xF3	; 243
    129a:	41 e0       	ldi	r20, 0x01	; 1
    129c:	50 e0       	ldi	r21, 0x00	; 0
    129e:	0e 94 2c 4f 	call	0x9e58	; 0x9e58 <__divmodsi4>
    12a2:	27 ea       	ldi	r18, 0xA7	; 167
    12a4:	31 e4       	ldi	r19, 0x41	; 65
    12a6:	40 e0       	ldi	r20, 0x00	; 0
    12a8:	50 e0       	ldi	r21, 0x00	; 0
    12aa:	0e 94 eb 4e 	call	0x9dd6	; 0x9dd6 <__mulsi3>
    12ae:	7b 01       	movw	r14, r22
    12b0:	8c 01       	movw	r16, r24
    12b2:	c6 01       	movw	r24, r12
    12b4:	b5 01       	movw	r22, r10
    12b6:	2d e1       	ldi	r18, 0x1D	; 29
    12b8:	33 ef       	ldi	r19, 0xF3	; 243
    12ba:	41 e0       	ldi	r20, 0x01	; 1
    12bc:	50 e0       	ldi	r21, 0x00	; 0
    12be:	0e 94 2c 4f 	call	0x9e58	; 0x9e58 <__divmodsi4>
    12c2:	ca 01       	movw	r24, r20
    12c4:	b9 01       	movw	r22, r18
    12c6:	2c ee       	ldi	r18, 0xEC	; 236
    12c8:	34 ef       	ldi	r19, 0xF4	; 244
    12ca:	4f ef       	ldi	r20, 0xFF	; 255
    12cc:	5f ef       	ldi	r21, 0xFF	; 255
    12ce:	0e 94 eb 4e 	call	0x9dd6	; 0x9dd6 <__mulsi3>
    12d2:	6e 0d       	add	r22, r14
    12d4:	7f 1d       	adc	r23, r15
    12d6:	80 1f       	adc	r24, r16
    12d8:	91 1f       	adc	r25, r17
    12da:	97 ff       	sbrs	r25, 7
    12dc:	04 c0       	rjmp	.+8      	; 0x12e6 <do_random+0x84>
    12de:	61 50       	subi	r22, 0x01	; 1
    12e0:	70 40       	sbci	r23, 0x00	; 0
    12e2:	80 40       	sbci	r24, 0x00	; 0
    12e4:	90 48       	sbci	r25, 0x80	; 128
    12e6:	68 83       	st	Y, r22
    12e8:	79 83       	std	Y+1, r23	; 0x01
    12ea:	8a 83       	std	Y+2, r24	; 0x02
    12ec:	9b 83       	std	Y+3, r25	; 0x03
    12ee:	9b 01       	movw	r18, r22
    12f0:	ac 01       	movw	r20, r24
    12f2:	5f 77       	andi	r21, 0x7F	; 127
    12f4:	b9 01       	movw	r22, r18
    12f6:	ca 01       	movw	r24, r20
    12f8:	cd b7       	in	r28, 0x3d	; 61
    12fa:	de b7       	in	r29, 0x3e	; 62
    12fc:	ea e0       	ldi	r30, 0x0A	; 10
    12fe:	0c 94 6b 4f 	jmp	0x9ed6	; 0x9ed6 <__epilogue_restores__+0x10>

00001302 <random_r>:
    1302:	0e 94 31 09 	call	0x1262	; 0x1262 <do_random>
    1306:	08 95       	ret

00001308 <random>:
    1308:	86 e3       	ldi	r24, 0x36	; 54
    130a:	95 e0       	ldi	r25, 0x05	; 5
    130c:	0e 94 31 09 	call	0x1262	; 0x1262 <do_random>
    1310:	08 95       	ret

00001312 <srandom>:
    1312:	60 93 36 05 	sts	0x0536, r22
    1316:	70 93 37 05 	sts	0x0537, r23
    131a:	80 93 38 05 	sts	0x0538, r24
    131e:	90 93 39 05 	sts	0x0539, r25
    1322:	08 95       	ret

00001324 <realloc>:
    1324:	a0 e0       	ldi	r26, 0x00	; 0
    1326:	b0 e0       	ldi	r27, 0x00	; 0
    1328:	e8 e9       	ldi	r30, 0x98	; 152
    132a:	f9 e0       	ldi	r31, 0x09	; 9
    132c:	0c 94 49 4f 	jmp	0x9e92	; 0x9e92 <__prologue_saves__+0x4>
    1330:	6c 01       	movw	r12, r24
    1332:	00 97       	sbiw	r24, 0x00	; 0
    1334:	29 f4       	brne	.+10     	; 0x1340 <realloc+0x1c>
    1336:	cb 01       	movw	r24, r22
    1338:	0e 94 2f 08 	call	0x105e	; 0x105e <malloc>
    133c:	6c 01       	movw	r12, r24
    133e:	c1 c0       	rjmp	.+386    	; 0x14c2 <realloc+0x19e>
    1340:	8e ef       	ldi	r24, 0xFE	; 254
    1342:	88 2e       	mov	r8, r24
    1344:	8f ef       	ldi	r24, 0xFF	; 255
    1346:	98 2e       	mov	r9, r24
    1348:	8c 0c       	add	r8, r12
    134a:	9d 1c       	adc	r9, r13
    134c:	86 01       	movw	r16, r12
    134e:	06 0f       	add	r16, r22
    1350:	17 1f       	adc	r17, r23
    1352:	08 15       	cp	r16, r8
    1354:	19 05       	cpc	r17, r9
    1356:	08 f4       	brcc	.+2      	; 0x135a <realloc+0x36>
    1358:	b2 c0       	rjmp	.+356    	; 0x14be <realloc+0x19a>
    135a:	f4 01       	movw	r30, r8
    135c:	a0 81       	ld	r26, Z
    135e:	b1 81       	ldd	r27, Z+1	; 0x01
    1360:	a6 17       	cp	r26, r22
    1362:	b7 07       	cpc	r27, r23
    1364:	b8 f0       	brcs	.+46     	; 0x1394 <realloc+0x70>
    1366:	a5 30       	cpi	r26, 0x05	; 5
    1368:	b1 05       	cpc	r27, r1
    136a:	08 f4       	brcc	.+2      	; 0x136e <realloc+0x4a>
    136c:	aa c0       	rjmp	.+340    	; 0x14c2 <realloc+0x19e>
    136e:	cd 01       	movw	r24, r26
    1370:	04 97       	sbiw	r24, 0x04	; 4
    1372:	86 17       	cp	r24, r22
    1374:	97 07       	cpc	r25, r23
    1376:	08 f4       	brcc	.+2      	; 0x137a <realloc+0x56>
    1378:	a4 c0       	rjmp	.+328    	; 0x14c2 <realloc+0x19e>
    137a:	12 97       	sbiw	r26, 0x02	; 2
    137c:	a6 1b       	sub	r26, r22
    137e:	b7 0b       	sbc	r27, r23
    1380:	f8 01       	movw	r30, r16
    1382:	a1 93       	st	Z+, r26
    1384:	b1 93       	st	Z+, r27
    1386:	d4 01       	movw	r26, r8
    1388:	6d 93       	st	X+, r22
    138a:	7c 93       	st	X, r23
    138c:	cf 01       	movw	r24, r30
    138e:	0e 94 d9 08 	call	0x11b2	; 0x11b2 <free>
    1392:	97 c0       	rjmp	.+302    	; 0x14c2 <realloc+0x19e>
    1394:	7b 01       	movw	r14, r22
    1396:	ea 1a       	sub	r14, r26
    1398:	fb 0a       	sbc	r15, r27
    139a:	ee ef       	ldi	r30, 0xFE	; 254
    139c:	ff ef       	ldi	r31, 0xFF	; 255
    139e:	ee 0e       	add	r14, r30
    13a0:	ff 1e       	adc	r15, r31
    13a2:	36 01       	movw	r6, r12
    13a4:	6a 0e       	add	r6, r26
    13a6:	7b 1e       	adc	r7, r27
    13a8:	c0 91 d7 09 	lds	r28, 0x09D7
    13ac:	d0 91 d8 09 	lds	r29, 0x09D8
    13b0:	44 24       	eor	r4, r4
    13b2:	55 24       	eor	r5, r5
    13b4:	aa 24       	eor	r10, r10
    13b6:	bb 24       	eor	r11, r11
    13b8:	4a c0       	rjmp	.+148    	; 0x144e <realloc+0x12a>
    13ba:	c6 15       	cp	r28, r6
    13bc:	d7 05       	cpc	r29, r7
    13be:	e1 f5       	brne	.+120    	; 0x1438 <realloc+0x114>
    13c0:	48 81       	ld	r20, Y
    13c2:	59 81       	ldd	r21, Y+1	; 0x01
    13c4:	4e 15       	cp	r20, r14
    13c6:	5f 05       	cpc	r21, r15
    13c8:	b8 f1       	brcs	.+110    	; 0x1438 <realloc+0x114>
    13ca:	ca 01       	movw	r24, r20
    13cc:	04 97       	sbiw	r24, 0x04	; 4
    13ce:	8e 15       	cp	r24, r14
    13d0:	9f 05       	cpc	r25, r15
    13d2:	b0 f4       	brcc	.+44     	; 0x1400 <realloc+0xdc>
    13d4:	12 96       	adiw	r26, 0x02	; 2
    13d6:	a4 0f       	add	r26, r20
    13d8:	b5 1f       	adc	r27, r21
    13da:	f4 01       	movw	r30, r8
    13dc:	b1 83       	std	Z+1, r27	; 0x01
    13de:	a0 83       	st	Z, r26
    13e0:	2a 81       	ldd	r18, Y+2	; 0x02
    13e2:	3b 81       	ldd	r19, Y+3	; 0x03
    13e4:	41 14       	cp	r4, r1
    13e6:	51 04       	cpc	r5, r1
    13e8:	31 f0       	breq	.+12     	; 0x13f6 <realloc+0xd2>
    13ea:	d2 01       	movw	r26, r4
    13ec:	13 96       	adiw	r26, 0x03	; 3
    13ee:	3c 93       	st	X, r19
    13f0:	2e 93       	st	-X, r18
    13f2:	12 97       	sbiw	r26, 0x02	; 2
    13f4:	66 c0       	rjmp	.+204    	; 0x14c2 <realloc+0x19e>
    13f6:	30 93 d8 09 	sts	0x09D8, r19
    13fa:	20 93 d7 09 	sts	0x09D7, r18
    13fe:	61 c0       	rjmp	.+194    	; 0x14c2 <realloc+0x19e>
    1400:	8a 81       	ldd	r24, Y+2	; 0x02
    1402:	9b 81       	ldd	r25, Y+3	; 0x03
    1404:	f8 01       	movw	r30, r16
    1406:	93 83       	std	Z+3, r25	; 0x03
    1408:	82 83       	std	Z+2, r24	; 0x02
    140a:	42 50       	subi	r20, 0x02	; 2
    140c:	50 40       	sbci	r21, 0x00	; 0
    140e:	4e 19       	sub	r20, r14
    1410:	5f 09       	sbc	r21, r15
    1412:	51 83       	std	Z+1, r21	; 0x01
    1414:	40 83       	st	Z, r20
    1416:	41 14       	cp	r4, r1
    1418:	51 04       	cpc	r5, r1
    141a:	31 f0       	breq	.+12     	; 0x1428 <realloc+0x104>
    141c:	d2 01       	movw	r26, r4
    141e:	13 96       	adiw	r26, 0x03	; 3
    1420:	1c 93       	st	X, r17
    1422:	0e 93       	st	-X, r16
    1424:	12 97       	sbiw	r26, 0x02	; 2
    1426:	04 c0       	rjmp	.+8      	; 0x1430 <realloc+0x10c>
    1428:	10 93 d8 09 	sts	0x09D8, r17
    142c:	00 93 d7 09 	sts	0x09D7, r16
    1430:	f4 01       	movw	r30, r8
    1432:	71 83       	std	Z+1, r23	; 0x01
    1434:	60 83       	st	Z, r22
    1436:	45 c0       	rjmp	.+138    	; 0x14c2 <realloc+0x19e>
    1438:	88 81       	ld	r24, Y
    143a:	99 81       	ldd	r25, Y+1	; 0x01
    143c:	a8 16       	cp	r10, r24
    143e:	b9 06       	cpc	r11, r25
    1440:	08 f4       	brcc	.+2      	; 0x1444 <realloc+0x120>
    1442:	5c 01       	movw	r10, r24
    1444:	2e 01       	movw	r4, r28
    1446:	8a 81       	ldd	r24, Y+2	; 0x02
    1448:	9b 81       	ldd	r25, Y+3	; 0x03
    144a:	9c 01       	movw	r18, r24
    144c:	e9 01       	movw	r28, r18
    144e:	20 97       	sbiw	r28, 0x00	; 0
    1450:	09 f0       	breq	.+2      	; 0x1454 <realloc+0x130>
    1452:	b3 cf       	rjmp	.-154    	; 0x13ba <realloc+0x96>
    1454:	80 91 d5 09 	lds	r24, 0x09D5
    1458:	90 91 d6 09 	lds	r25, 0x09D6
    145c:	86 15       	cp	r24, r6
    145e:	97 05       	cpc	r25, r7
    1460:	e9 f4       	brne	.+58     	; 0x149c <realloc+0x178>
    1462:	a6 16       	cp	r10, r22
    1464:	b7 06       	cpc	r11, r23
    1466:	d0 f4       	brcc	.+52     	; 0x149c <realloc+0x178>
    1468:	20 91 34 05 	lds	r18, 0x0534
    146c:	30 91 35 05 	lds	r19, 0x0535
    1470:	21 15       	cp	r18, r1
    1472:	31 05       	cpc	r19, r1
    1474:	41 f4       	brne	.+16     	; 0x1486 <realloc+0x162>
    1476:	2d b7       	in	r18, 0x3d	; 61
    1478:	3e b7       	in	r19, 0x3e	; 62
    147a:	80 91 30 05 	lds	r24, 0x0530
    147e:	90 91 31 05 	lds	r25, 0x0531
    1482:	28 1b       	sub	r18, r24
    1484:	39 0b       	sbc	r19, r25
    1486:	02 17       	cp	r16, r18
    1488:	13 07       	cpc	r17, r19
    148a:	c8 f4       	brcc	.+50     	; 0x14be <realloc+0x19a>
    148c:	10 93 d6 09 	sts	0x09D6, r17
    1490:	00 93 d5 09 	sts	0x09D5, r16
    1494:	d4 01       	movw	r26, r8
    1496:	6d 93       	st	X+, r22
    1498:	7c 93       	st	X, r23
    149a:	13 c0       	rjmp	.+38     	; 0x14c2 <realloc+0x19e>
    149c:	cb 01       	movw	r24, r22
    149e:	0e 94 2f 08 	call	0x105e	; 0x105e <malloc>
    14a2:	ec 01       	movw	r28, r24
    14a4:	00 97       	sbiw	r24, 0x00	; 0
    14a6:	59 f0       	breq	.+22     	; 0x14be <realloc+0x19a>
    14a8:	f4 01       	movw	r30, r8
    14aa:	40 81       	ld	r20, Z
    14ac:	51 81       	ldd	r21, Z+1	; 0x01
    14ae:	b6 01       	movw	r22, r12
    14b0:	0e 94 8e 0a 	call	0x151c	; 0x151c <memcpy>
    14b4:	c6 01       	movw	r24, r12
    14b6:	0e 94 d9 08 	call	0x11b2	; 0x11b2 <free>
    14ba:	6e 01       	movw	r12, r28
    14bc:	02 c0       	rjmp	.+4      	; 0x14c2 <realloc+0x19e>
    14be:	cc 24       	eor	r12, r12
    14c0:	dd 24       	eor	r13, r13
    14c2:	c6 01       	movw	r24, r12
    14c4:	cd b7       	in	r28, 0x3d	; 61
    14c6:	de b7       	in	r29, 0x3e	; 62
    14c8:	e0 e1       	ldi	r30, 0x10	; 16
    14ca:	0c 94 65 4f 	jmp	0x9eca	; 0x9eca <__epilogue_restores__+0x4>

000014ce <atol>:
    14ce:	1f 93       	push	r17
    14d0:	fc 01       	movw	r30, r24
    14d2:	99 27       	eor	r25, r25
    14d4:	88 27       	eor	r24, r24
    14d6:	bc 01       	movw	r22, r24
    14d8:	e8 94       	clt
    14da:	11 91       	ld	r17, Z+
    14dc:	10 32       	cpi	r17, 0x20	; 32
    14de:	e9 f3       	breq	.-6      	; 0x14da <atol+0xc>
    14e0:	19 30       	cpi	r17, 0x09	; 9
    14e2:	10 f0       	brcs	.+4      	; 0x14e8 <atol+0x1a>
    14e4:	1e 30       	cpi	r17, 0x0E	; 14
    14e6:	c8 f3       	brcs	.-14     	; 0x14da <atol+0xc>
    14e8:	1b 32       	cpi	r17, 0x2B	; 43
    14ea:	51 f0       	breq	.+20     	; 0x1500 <atol+0x32>
    14ec:	1d 32       	cpi	r17, 0x2D	; 45
    14ee:	49 f4       	brne	.+18     	; 0x1502 <atol+0x34>
    14f0:	68 94       	set
    14f2:	06 c0       	rjmp	.+12     	; 0x1500 <atol+0x32>
    14f4:	0e 94 54 0b 	call	0x16a8	; 0x16a8 <__mulsi_const_10>
    14f8:	61 0f       	add	r22, r17
    14fa:	71 1d       	adc	r23, r1
    14fc:	81 1d       	adc	r24, r1
    14fe:	91 1d       	adc	r25, r1
    1500:	11 91       	ld	r17, Z+
    1502:	10 53       	subi	r17, 0x30	; 48
    1504:	1a 30       	cpi	r17, 0x0A	; 10
    1506:	b0 f3       	brcs	.-20     	; 0x14f4 <atol+0x26>
    1508:	3e f4       	brtc	.+14     	; 0x1518 <atol+0x4a>
    150a:	90 95       	com	r25
    150c:	80 95       	com	r24
    150e:	70 95       	com	r23
    1510:	61 95       	neg	r22
    1512:	7f 4f       	sbci	r23, 0xFF	; 255
    1514:	8f 4f       	sbci	r24, 0xFF	; 255
    1516:	9f 4f       	sbci	r25, 0xFF	; 255
    1518:	1f 91       	pop	r17
    151a:	08 95       	ret

0000151c <memcpy>:
    151c:	fb 01       	movw	r30, r22
    151e:	dc 01       	movw	r26, r24
    1520:	02 c0       	rjmp	.+4      	; 0x1526 <memcpy+0xa>
    1522:	01 90       	ld	r0, Z+
    1524:	0d 92       	st	X+, r0
    1526:	41 50       	subi	r20, 0x01	; 1
    1528:	50 40       	sbci	r21, 0x00	; 0
    152a:	d8 f7       	brcc	.-10     	; 0x1522 <memcpy+0x6>
    152c:	08 95       	ret

0000152e <strcat>:
    152e:	fb 01       	movw	r30, r22
    1530:	dc 01       	movw	r26, r24
    1532:	0d 90       	ld	r0, X+
    1534:	00 20       	and	r0, r0
    1536:	e9 f7       	brne	.-6      	; 0x1532 <strcat+0x4>
    1538:	11 97       	sbiw	r26, 0x01	; 1
    153a:	01 90       	ld	r0, Z+
    153c:	0d 92       	st	X+, r0
    153e:	00 20       	and	r0, r0
    1540:	e1 f7       	brne	.-8      	; 0x153a <strcat+0xc>
    1542:	08 95       	ret

00001544 <strchr>:
    1544:	fc 01       	movw	r30, r24
    1546:	81 91       	ld	r24, Z+
    1548:	86 17       	cp	r24, r22
    154a:	21 f0       	breq	.+8      	; 0x1554 <strchr+0x10>
    154c:	88 23       	and	r24, r24
    154e:	d9 f7       	brne	.-10     	; 0x1546 <strchr+0x2>
    1550:	99 27       	eor	r25, r25
    1552:	08 95       	ret
    1554:	31 97       	sbiw	r30, 0x01	; 1
    1556:	cf 01       	movw	r24, r30
    1558:	08 95       	ret

0000155a <strcmp>:
    155a:	fb 01       	movw	r30, r22
    155c:	dc 01       	movw	r26, r24
    155e:	8d 91       	ld	r24, X+
    1560:	01 90       	ld	r0, Z+
    1562:	80 19       	sub	r24, r0
    1564:	01 10       	cpse	r0, r1
    1566:	d9 f3       	breq	.-10     	; 0x155e <strcmp+0x4>
    1568:	99 0b       	sbc	r25, r25
    156a:	08 95       	ret

0000156c <strcpy>:
    156c:	fb 01       	movw	r30, r22
    156e:	dc 01       	movw	r26, r24
    1570:	01 90       	ld	r0, Z+
    1572:	0d 92       	st	X+, r0
    1574:	00 20       	and	r0, r0
    1576:	e1 f7       	brne	.-8      	; 0x1570 <strcpy+0x4>
    1578:	08 95       	ret

0000157a <strncmp>:
    157a:	fb 01       	movw	r30, r22
    157c:	dc 01       	movw	r26, r24
    157e:	41 50       	subi	r20, 0x01	; 1
    1580:	50 40       	sbci	r21, 0x00	; 0
    1582:	30 f0       	brcs	.+12     	; 0x1590 <strncmp+0x16>
    1584:	8d 91       	ld	r24, X+
    1586:	01 90       	ld	r0, Z+
    1588:	80 19       	sub	r24, r0
    158a:	19 f4       	brne	.+6      	; 0x1592 <strncmp+0x18>
    158c:	00 20       	and	r0, r0
    158e:	b9 f7       	brne	.-18     	; 0x157e <strncmp+0x4>
    1590:	88 1b       	sub	r24, r24
    1592:	99 0b       	sbc	r25, r25
    1594:	08 95       	ret

00001596 <strncpy>:
    1596:	fb 01       	movw	r30, r22
    1598:	dc 01       	movw	r26, r24
    159a:	41 50       	subi	r20, 0x01	; 1
    159c:	50 40       	sbci	r21, 0x00	; 0
    159e:	48 f0       	brcs	.+18     	; 0x15b2 <strncpy+0x1c>
    15a0:	01 90       	ld	r0, Z+
    15a2:	0d 92       	st	X+, r0
    15a4:	00 20       	and	r0, r0
    15a6:	c9 f7       	brne	.-14     	; 0x159a <strncpy+0x4>
    15a8:	01 c0       	rjmp	.+2      	; 0x15ac <strncpy+0x16>
    15aa:	1d 92       	st	X+, r1
    15ac:	41 50       	subi	r20, 0x01	; 1
    15ae:	50 40       	sbci	r21, 0x00	; 0
    15b0:	e0 f7       	brcc	.-8      	; 0x15aa <strncpy+0x14>
    15b2:	08 95       	ret

000015b4 <strrchr>:
    15b4:	fc 01       	movw	r30, r24
    15b6:	81 e0       	ldi	r24, 0x01	; 1
    15b8:	90 e0       	ldi	r25, 0x00	; 0
    15ba:	01 90       	ld	r0, Z+
    15bc:	06 16       	cp	r0, r22
    15be:	09 f4       	brne	.+2      	; 0x15c2 <strrchr+0xe>
    15c0:	cf 01       	movw	r24, r30
    15c2:	00 20       	and	r0, r0
    15c4:	d1 f7       	brne	.-12     	; 0x15ba <strrchr+0x6>
    15c6:	01 97       	sbiw	r24, 0x01	; 1
    15c8:	08 95       	ret

000015ca <strstr>:
    15ca:	fb 01       	movw	r30, r22
    15cc:	51 91       	ld	r21, Z+
    15ce:	55 23       	and	r21, r21
    15d0:	a9 f0       	breq	.+42     	; 0x15fc <strstr+0x32>
    15d2:	bf 01       	movw	r22, r30
    15d4:	dc 01       	movw	r26, r24
    15d6:	4d 91       	ld	r20, X+
    15d8:	45 17       	cp	r20, r21
    15da:	41 11       	cpse	r20, r1
    15dc:	e1 f7       	brne	.-8      	; 0x15d6 <strstr+0xc>
    15de:	59 f4       	brne	.+22     	; 0x15f6 <strstr+0x2c>
    15e0:	cd 01       	movw	r24, r26
    15e2:	01 90       	ld	r0, Z+
    15e4:	00 20       	and	r0, r0
    15e6:	49 f0       	breq	.+18     	; 0x15fa <strstr+0x30>
    15e8:	4d 91       	ld	r20, X+
    15ea:	40 15       	cp	r20, r0
    15ec:	41 11       	cpse	r20, r1
    15ee:	c9 f3       	breq	.-14     	; 0x15e2 <strstr+0x18>
    15f0:	fb 01       	movw	r30, r22
    15f2:	41 11       	cpse	r20, r1
    15f4:	ef cf       	rjmp	.-34     	; 0x15d4 <strstr+0xa>
    15f6:	81 e0       	ldi	r24, 0x01	; 1
    15f8:	90 e0       	ldi	r25, 0x00	; 0
    15fa:	01 97       	sbiw	r24, 0x01	; 1
    15fc:	08 95       	ret

000015fe <itoa>:
    15fe:	fb 01       	movw	r30, r22
    1600:	9f 01       	movw	r18, r30
    1602:	e8 94       	clt
    1604:	42 30       	cpi	r20, 0x02	; 2
    1606:	c4 f0       	brlt	.+48     	; 0x1638 <itoa+0x3a>
    1608:	45 32       	cpi	r20, 0x25	; 37
    160a:	b4 f4       	brge	.+44     	; 0x1638 <itoa+0x3a>
    160c:	4a 30       	cpi	r20, 0x0A	; 10
    160e:	29 f4       	brne	.+10     	; 0x161a <itoa+0x1c>
    1610:	97 fb       	bst	r25, 7
    1612:	1e f4       	brtc	.+6      	; 0x161a <itoa+0x1c>
    1614:	90 95       	com	r25
    1616:	81 95       	neg	r24
    1618:	9f 4f       	sbci	r25, 0xFF	; 255
    161a:	64 2f       	mov	r22, r20
    161c:	77 27       	eor	r23, r23
    161e:	0e 94 9f 4f 	call	0x9f3e	; 0x9f3e <__udivmodhi4>
    1622:	80 5d       	subi	r24, 0xD0	; 208
    1624:	8a 33       	cpi	r24, 0x3A	; 58
    1626:	0c f0       	brlt	.+2      	; 0x162a <itoa+0x2c>
    1628:	89 5d       	subi	r24, 0xD9	; 217
    162a:	81 93       	st	Z+, r24
    162c:	cb 01       	movw	r24, r22
    162e:	00 97       	sbiw	r24, 0x00	; 0
    1630:	a1 f7       	brne	.-24     	; 0x161a <itoa+0x1c>
    1632:	16 f4       	brtc	.+4      	; 0x1638 <itoa+0x3a>
    1634:	5d e2       	ldi	r21, 0x2D	; 45
    1636:	51 93       	st	Z+, r21
    1638:	10 82       	st	Z, r1
    163a:	c9 01       	movw	r24, r18
    163c:	0c 94 8e 0b 	jmp	0x171c	; 0x171c <strrev>

00001640 <ltoa>:
    1640:	fa 01       	movw	r30, r20
    1642:	cf 93       	push	r28
    1644:	ff 93       	push	r31
    1646:	ef 93       	push	r30
    1648:	22 30       	cpi	r18, 0x02	; 2
    164a:	44 f1       	brlt	.+80     	; 0x169c <ltoa+0x5c>
    164c:	25 32       	cpi	r18, 0x25	; 37
    164e:	34 f5       	brge	.+76     	; 0x169c <ltoa+0x5c>
    1650:	c2 2f       	mov	r28, r18
    1652:	e8 94       	clt
    1654:	ca 30       	cpi	r28, 0x0A	; 10
    1656:	49 f4       	brne	.+18     	; 0x166a <ltoa+0x2a>
    1658:	97 fb       	bst	r25, 7
    165a:	3e f4       	brtc	.+14     	; 0x166a <ltoa+0x2a>
    165c:	90 95       	com	r25
    165e:	80 95       	com	r24
    1660:	70 95       	com	r23
    1662:	61 95       	neg	r22
    1664:	7f 4f       	sbci	r23, 0xFF	; 255
    1666:	8f 4f       	sbci	r24, 0xFF	; 255
    1668:	9f 4f       	sbci	r25, 0xFF	; 255
    166a:	2c 2f       	mov	r18, r28
    166c:	33 27       	eor	r19, r19
    166e:	44 27       	eor	r20, r20
    1670:	55 27       	eor	r21, r21
    1672:	ff 93       	push	r31
    1674:	ef 93       	push	r30
    1676:	0e 94 0a 4f 	call	0x9e14	; 0x9e14 <__udivmodsi4>
    167a:	ef 91       	pop	r30
    167c:	ff 91       	pop	r31
    167e:	60 5d       	subi	r22, 0xD0	; 208
    1680:	6a 33       	cpi	r22, 0x3A	; 58
    1682:	0c f0       	brlt	.+2      	; 0x1686 <ltoa+0x46>
    1684:	69 5d       	subi	r22, 0xD9	; 217
    1686:	61 93       	st	Z+, r22
    1688:	b9 01       	movw	r22, r18
    168a:	ca 01       	movw	r24, r20
    168c:	60 50       	subi	r22, 0x00	; 0
    168e:	70 40       	sbci	r23, 0x00	; 0
    1690:	80 40       	sbci	r24, 0x00	; 0
    1692:	90 40       	sbci	r25, 0x00	; 0
    1694:	51 f7       	brne	.-44     	; 0x166a <ltoa+0x2a>
    1696:	16 f4       	brtc	.+4      	; 0x169c <ltoa+0x5c>
    1698:	cd e2       	ldi	r28, 0x2D	; 45
    169a:	c1 93       	st	Z+, r28
    169c:	10 82       	st	Z, r1
    169e:	8f 91       	pop	r24
    16a0:	9f 91       	pop	r25
    16a2:	cf 91       	pop	r28
    16a4:	0c 94 8e 0b 	jmp	0x171c	; 0x171c <strrev>

000016a8 <__mulsi_const_10>:
    16a8:	59 2f       	mov	r21, r25
    16aa:	48 2f       	mov	r20, r24
    16ac:	37 2f       	mov	r19, r23
    16ae:	26 2f       	mov	r18, r22
    16b0:	66 0f       	add	r22, r22
    16b2:	77 1f       	adc	r23, r23
    16b4:	88 1f       	adc	r24, r24
    16b6:	99 1f       	adc	r25, r25
    16b8:	66 0f       	add	r22, r22
    16ba:	77 1f       	adc	r23, r23
    16bc:	88 1f       	adc	r24, r24
    16be:	99 1f       	adc	r25, r25
    16c0:	62 0f       	add	r22, r18
    16c2:	73 1f       	adc	r23, r19
    16c4:	84 1f       	adc	r24, r20
    16c6:	95 1f       	adc	r25, r21
    16c8:	66 0f       	add	r22, r22
    16ca:	77 1f       	adc	r23, r23
    16cc:	88 1f       	adc	r24, r24
    16ce:	99 1f       	adc	r25, r25
    16d0:	08 95       	ret

000016d2 <ultoa>:
    16d2:	fa 01       	movw	r30, r20
    16d4:	cf 93       	push	r28
    16d6:	ff 93       	push	r31
    16d8:	ef 93       	push	r30
    16da:	22 30       	cpi	r18, 0x02	; 2
    16dc:	cc f0       	brlt	.+50     	; 0x1710 <ultoa+0x3e>
    16de:	25 32       	cpi	r18, 0x25	; 37
    16e0:	bc f4       	brge	.+46     	; 0x1710 <ultoa+0x3e>
    16e2:	c2 2f       	mov	r28, r18
    16e4:	2c 2f       	mov	r18, r28
    16e6:	33 27       	eor	r19, r19
    16e8:	44 27       	eor	r20, r20
    16ea:	55 27       	eor	r21, r21
    16ec:	ff 93       	push	r31
    16ee:	ef 93       	push	r30
    16f0:	0e 94 0a 4f 	call	0x9e14	; 0x9e14 <__udivmodsi4>
    16f4:	ef 91       	pop	r30
    16f6:	ff 91       	pop	r31
    16f8:	60 5d       	subi	r22, 0xD0	; 208
    16fa:	6a 33       	cpi	r22, 0x3A	; 58
    16fc:	0c f0       	brlt	.+2      	; 0x1700 <ultoa+0x2e>
    16fe:	69 5d       	subi	r22, 0xD9	; 217
    1700:	61 93       	st	Z+, r22
    1702:	b9 01       	movw	r22, r18
    1704:	ca 01       	movw	r24, r20
    1706:	60 50       	subi	r22, 0x00	; 0
    1708:	70 40       	sbci	r23, 0x00	; 0
    170a:	80 40       	sbci	r24, 0x00	; 0
    170c:	90 40       	sbci	r25, 0x00	; 0
    170e:	51 f7       	brne	.-44     	; 0x16e4 <ultoa+0x12>
    1710:	10 82       	st	Z, r1
    1712:	8f 91       	pop	r24
    1714:	9f 91       	pop	r25
    1716:	cf 91       	pop	r28
    1718:	0c 94 8e 0b 	jmp	0x171c	; 0x171c <strrev>

0000171c <strrev>:
    171c:	dc 01       	movw	r26, r24
    171e:	fc 01       	movw	r30, r24
    1720:	67 2f       	mov	r22, r23
    1722:	71 91       	ld	r23, Z+
    1724:	77 23       	and	r23, r23
    1726:	e1 f7       	brne	.-8      	; 0x1720 <strrev+0x4>
    1728:	32 97       	sbiw	r30, 0x02	; 2
    172a:	04 c0       	rjmp	.+8      	; 0x1734 <strrev+0x18>
    172c:	7c 91       	ld	r23, X
    172e:	6d 93       	st	X+, r22
    1730:	70 83       	st	Z, r23
    1732:	62 91       	ld	r22, -Z
    1734:	ae 17       	cp	r26, r30
    1736:	bf 07       	cpc	r27, r31
    1738:	c8 f3       	brcs	.-14     	; 0x172c <strrev+0x10>
    173a:	08 95       	ret

0000173c <__cxa_pure_virtual>:
    173c:	f8 94       	cli
    173e:	ff cf       	rjmp	.-2      	; 0x173e <__cxa_pure_virtual+0x2>

00001740 <_ZN11XBeeRequestaSERKS_>:
    1740:	fc 01       	movw	r30, r24
    1742:	db 01       	movw	r26, r22
    1744:	12 96       	adiw	r26, 0x02	; 2
    1746:	8c 91       	ld	r24, X
    1748:	12 97       	sbiw	r26, 0x02	; 2
    174a:	82 83       	std	Z+2, r24	; 0x02
    174c:	13 96       	adiw	r26, 0x03	; 3
    174e:	8c 91       	ld	r24, X
    1750:	83 83       	std	Z+3, r24	; 0x03
    1752:	cf 01       	movw	r24, r30
    1754:	08 95       	ret

00001756 <_ZN16AtCommandRequestaSERKS_>:
    1756:	ef 92       	push	r14
    1758:	ff 92       	push	r15
    175a:	0f 93       	push	r16
    175c:	1f 93       	push	r17
    175e:	7c 01       	movw	r14, r24
    1760:	8b 01       	movw	r16, r22
    1762:	0e 94 a0 0b 	call	0x1740	; 0x1740 <_ZN11XBeeRequestaSERKS_>
    1766:	f8 01       	movw	r30, r16
    1768:	84 81       	ldd	r24, Z+4	; 0x04
    176a:	95 81       	ldd	r25, Z+5	; 0x05
    176c:	f7 01       	movw	r30, r14
    176e:	95 83       	std	Z+5, r25	; 0x05
    1770:	84 83       	std	Z+4, r24	; 0x04
    1772:	f8 01       	movw	r30, r16
    1774:	86 81       	ldd	r24, Z+6	; 0x06
    1776:	97 81       	ldd	r25, Z+7	; 0x07
    1778:	f7 01       	movw	r30, r14
    177a:	97 83       	std	Z+7, r25	; 0x07
    177c:	86 83       	std	Z+6, r24	; 0x06
    177e:	f8 01       	movw	r30, r16
    1780:	80 85       	ldd	r24, Z+8	; 0x08
    1782:	f7 01       	movw	r30, r14
    1784:	80 87       	std	Z+8, r24	; 0x08
    1786:	c7 01       	movw	r24, r14
    1788:	1f 91       	pop	r17
    178a:	0f 91       	pop	r16
    178c:	ff 90       	pop	r15
    178e:	ef 90       	pop	r14
    1790:	08 95       	ret

00001792 <_Z12cleanPayloadv>:
    1792:	e4 e1       	ldi	r30, 0x14	; 20
    1794:	f6 e0       	ldi	r31, 0x06	; 6
    1796:	11 92       	st	Z+, r1
    1798:	86 e0       	ldi	r24, 0x06	; 6
    179a:	ec 33       	cpi	r30, 0x3C	; 60
    179c:	f8 07       	cpc	r31, r24
    179e:	d9 f7       	brne	.-10     	; 0x1796 <_Z12cleanPayloadv+0x4>
    17a0:	08 95       	ret

000017a2 <_Z13cleanRXPacketv>:
    17a2:	ec e3       	ldi	r30, 0x3C	; 60
    17a4:	f6 e0       	ldi	r31, 0x06	; 6
    17a6:	11 92       	st	Z+, r1
    17a8:	86 e0       	ldi	r24, 0x06	; 6
    17aa:	e4 36       	cpi	r30, 0x64	; 100
    17ac:	f8 07       	cpc	r31, r24
    17ae:	d9 f7       	brne	.-10     	; 0x17a6 <_Z13cleanRXPacketv+0x4>
    17b0:	08 95       	ret

000017b2 <_ZN6StringD1Ev>:
    17b2:	0f 93       	push	r16
    17b4:	1f 93       	push	r17
    17b6:	8c 01       	movw	r16, r24
    17b8:	fc 01       	movw	r30, r24
    17ba:	80 81       	ld	r24, Z
    17bc:	91 81       	ldd	r25, Z+1	; 0x01
    17be:	0e 94 d9 08 	call	0x11b2	; 0x11b2 <free>
    17c2:	f8 01       	movw	r30, r16
    17c4:	13 82       	std	Z+3, r1	; 0x03
    17c6:	12 82       	std	Z+2, r1	; 0x02
    17c8:	15 82       	std	Z+5, r1	; 0x05
    17ca:	14 82       	std	Z+4, r1	; 0x04
    17cc:	1f 91       	pop	r17
    17ce:	0f 91       	pop	r16
    17d0:	08 95       	ret

000017d2 <_Z41__static_initialization_and_destruction_0ii>:
    17d2:	81 30       	cpi	r24, 0x01	; 1
    17d4:	91 05       	cpc	r25, r1
    17d6:	89 f5       	brne	.+98     	; 0x183a <_Z41__static_initialization_and_destruction_0ii+0x68>
    17d8:	6f 5f       	subi	r22, 0xFF	; 255
    17da:	7f 4f       	sbci	r23, 0xFF	; 255
    17dc:	09 f0       	breq	.+2      	; 0x17e0 <_Z41__static_initialization_and_destruction_0ii+0xe>
    17de:	3e c0       	rjmp	.+124    	; 0x185c <_Z41__static_initialization_and_destruction_0ii+0x8a>
    17e0:	8f ea       	ldi	r24, 0xAF	; 175
    17e2:	96 e0       	ldi	r25, 0x06	; 6
    17e4:	60 e0       	ldi	r22, 0x00	; 0
    17e6:	72 e0       	ldi	r23, 0x02	; 2
    17e8:	0e 94 9f 47 	call	0x8f3e	; 0x8f3e <_ZN6StringC1EPKc>
    17ec:	85 eb       	ldi	r24, 0xB5	; 181
    17ee:	96 e0       	ldi	r25, 0x06	; 6
    17f0:	6d e0       	ldi	r22, 0x0D	; 13
    17f2:	72 e0       	ldi	r23, 0x02	; 2
    17f4:	0e 94 9f 47 	call	0x8f3e	; 0x8f3e <_ZN6StringC1EPKc>
    17f8:	8b eb       	ldi	r24, 0xBB	; 187
    17fa:	96 e0       	ldi	r25, 0x06	; 6
    17fc:	68 e1       	ldi	r22, 0x18	; 24
    17fe:	72 e0       	ldi	r23, 0x02	; 2
    1800:	0e 94 9f 47 	call	0x8f3e	; 0x8f3e <_ZN6StringC1EPKc>
    1804:	90 91 44 05 	lds	r25, 0x0544
    1808:	80 91 45 05 	lds	r24, 0x0545
    180c:	80 93 c1 06 	sts	0x06C1, r24
    1810:	90 93 c2 06 	sts	0x06C2, r25
    1814:	83 ec       	ldi	r24, 0xC3	; 195
    1816:	96 e0       	ldi	r25, 0x06	; 6
    1818:	0e 94 52 13 	call	0x26a4	; 0x26a4 <_ZN4XBeeC1Ev>
    181c:	82 e4       	ldi	r24, 0x42	; 66
    181e:	97 e0       	ldi	r25, 0x07	; 7
    1820:	0e 94 1b 0f 	call	0x1e36	; 0x1e36 <_ZN16TxStatusResponseC1Ev>
    1824:	8c e4       	ldi	r24, 0x4C	; 76
    1826:	97 e0       	ldi	r25, 0x07	; 7
    1828:	60 e4       	ldi	r22, 0x40	; 64
    182a:	75 e0       	ldi	r23, 0x05	; 5
    182c:	0e 94 29 1c 	call	0x3852	; 0x3852 <_ZN16AtCommandRequestC1EPh>
    1830:	85 e5       	ldi	r24, 0x55	; 85
    1832:	97 e0       	ldi	r25, 0x07	; 7
    1834:	0e 94 23 0f 	call	0x1e46	; 0x1e46 <_ZN17AtCommandResponseC1Ev>
    1838:	08 95       	ret
    183a:	89 2b       	or	r24, r25
    183c:	79 f4       	brne	.+30     	; 0x185c <_Z41__static_initialization_and_destruction_0ii+0x8a>
    183e:	6f 5f       	subi	r22, 0xFF	; 255
    1840:	7f 4f       	sbci	r23, 0xFF	; 255
    1842:	61 f4       	brne	.+24     	; 0x185c <_Z41__static_initialization_and_destruction_0ii+0x8a>
    1844:	8b eb       	ldi	r24, 0xBB	; 187
    1846:	96 e0       	ldi	r25, 0x06	; 6
    1848:	0e 94 d9 0b 	call	0x17b2	; 0x17b2 <_ZN6StringD1Ev>
    184c:	85 eb       	ldi	r24, 0xB5	; 181
    184e:	96 e0       	ldi	r25, 0x06	; 6
    1850:	0e 94 d9 0b 	call	0x17b2	; 0x17b2 <_ZN6StringD1Ev>
    1854:	8f ea       	ldi	r24, 0xAF	; 175
    1856:	96 e0       	ldi	r25, 0x06	; 6
    1858:	0e 94 d9 0b 	call	0x17b2	; 0x17b2 <_ZN6StringD1Ev>
    185c:	08 95       	ret

0000185e <_GLOBAL__D___cxa_pure_virtual>:
    185e:	80 e0       	ldi	r24, 0x00	; 0
    1860:	90 e0       	ldi	r25, 0x00	; 0
    1862:	6f ef       	ldi	r22, 0xFF	; 255
    1864:	7f ef       	ldi	r23, 0xFF	; 255
    1866:	0e 94 e9 0b 	call	0x17d2	; 0x17d2 <_Z41__static_initialization_and_destruction_0ii>
    186a:	08 95       	ret

0000186c <_GLOBAL__I___cxa_pure_virtual>:
    186c:	81 e0       	ldi	r24, 0x01	; 1
    186e:	90 e0       	ldi	r25, 0x00	; 0
    1870:	6f ef       	ldi	r22, 0xFF	; 255
    1872:	7f ef       	ldi	r23, 0xFF	; 255
    1874:	0e 94 e9 0b 	call	0x17d2	; 0x17d2 <_Z41__static_initialization_and_destruction_0ii>
    1878:	08 95       	ret

0000187a <_Z17handleTXAftermathv>:
    187a:	1f 93       	push	r17
    187c:	83 ec       	ldi	r24, 0xC3	; 195
    187e:	96 e0       	ldi	r25, 0x06	; 6
    1880:	68 ee       	ldi	r22, 0xE8	; 232
    1882:	73 e0       	ldi	r23, 0x03	; 3
    1884:	0e 94 94 1e 	call	0x3d28	; 0x3d28 <_ZN4XBee10readPacketEi>
    1888:	88 23       	and	r24, r24
    188a:	19 f1       	breq	.+70     	; 0x18d2 <_Z17handleTXAftermathv+0x58>
    188c:	83 ec       	ldi	r24, 0xC3	; 195
    188e:	96 e0       	ldi	r25, 0x06	; 6
    1890:	0e 94 ab 13 	call	0x2756	; 0x2756 <_ZN4XBee11getResponseEv>
    1894:	0e 94 04 0e 	call	0x1c08	; 0x1c08 <_ZN12XBeeResponse8getApiIdEv>
    1898:	89 38       	cpi	r24, 0x89	; 137
    189a:	09 f5       	brne	.+66     	; 0x18de <_Z17handleTXAftermathv+0x64>
    189c:	83 ec       	ldi	r24, 0xC3	; 195
    189e:	96 e0       	ldi	r25, 0x06	; 6
    18a0:	0e 94 ab 13 	call	0x2756	; 0x2756 <_ZN4XBee11getResponseEv>
    18a4:	62 e4       	ldi	r22, 0x42	; 66
    18a6:	77 e0       	ldi	r23, 0x07	; 7
    18a8:	0e 94 f9 12 	call	0x25f2	; 0x25f2 <_ZN12XBeeResponse21getZBTxStatusResponseERS_>
    18ac:	82 e4       	ldi	r24, 0x42	; 66
    18ae:	97 e0       	ldi	r25, 0x07	; 7
    18b0:	0e 94 40 10 	call	0x2080	; 0x2080 <_ZN16TxStatusResponse9getStatusEv>
    18b4:	88 23       	and	r24, r24
    18b6:	41 f4       	brne	.+16     	; 0x18c8 <_Z17handleTXAftermathv+0x4e>
    18b8:	8f e7       	ldi	r24, 0x7F	; 127
    18ba:	99 e0       	ldi	r25, 0x09	; 9
    18bc:	6d e2       	ldi	r22, 0x2D	; 45
    18be:	72 e0       	ldi	r23, 0x02	; 2
    18c0:	0e 94 04 42 	call	0x8408	; 0x8408 <_ZN5Print7printlnEPKc>
    18c4:	11 e0       	ldi	r17, 0x01	; 1
    18c6:	0c c0       	rjmp	.+24     	; 0x18e0 <_Z17handleTXAftermathv+0x66>
    18c8:	8f e7       	ldi	r24, 0x7F	; 127
    18ca:	99 e0       	ldi	r25, 0x09	; 9
    18cc:	63 e4       	ldi	r22, 0x43	; 67
    18ce:	72 e0       	ldi	r23, 0x02	; 2
    18d0:	04 c0       	rjmp	.+8      	; 0x18da <_Z17handleTXAftermathv+0x60>
    18d2:	8f e7       	ldi	r24, 0x7F	; 127
    18d4:	99 e0       	ldi	r25, 0x09	; 9
    18d6:	63 e6       	ldi	r22, 0x63	; 99
    18d8:	72 e0       	ldi	r23, 0x02	; 2
    18da:	0e 94 04 42 	call	0x8408	; 0x8408 <_ZN5Print7printlnEPKc>
    18de:	10 e0       	ldi	r17, 0x00	; 0
    18e0:	0e 94 c9 0b 	call	0x1792	; 0x1792 <_Z12cleanPayloadv>
    18e4:	0e 94 d1 0b 	call	0x17a2	; 0x17a2 <_Z13cleanRXPacketv>
    18e8:	81 2f       	mov	r24, r17
    18ea:	1f 91       	pop	r17
    18ec:	08 95       	ret

000018ee <_Z13sendAtCommandv>:
    18ee:	cf 93       	push	r28
    18f0:	df 93       	push	r29
    18f2:	8f e7       	ldi	r24, 0x7F	; 127
    18f4:	99 e0       	ldi	r25, 0x09	; 9
    18f6:	6b e8       	ldi	r22, 0x8B	; 139
    18f8:	72 e0       	ldi	r23, 0x02	; 2
    18fa:	0e 94 04 42 	call	0x8408	; 0x8408 <_ZN5Print7printlnEPKc>
    18fe:	83 ec       	ldi	r24, 0xC3	; 195
    1900:	96 e0       	ldi	r25, 0x06	; 6
    1902:	6c e4       	ldi	r22, 0x4C	; 76
    1904:	77 e0       	ldi	r23, 0x07	; 7
    1906:	0e 94 f5 1e 	call	0x3dea	; 0x3dea <_ZN4XBee4sendER11XBeeRequest>
    190a:	83 ec       	ldi	r24, 0xC3	; 195
    190c:	96 e0       	ldi	r25, 0x06	; 6
    190e:	68 e8       	ldi	r22, 0x88	; 136
    1910:	73 e1       	ldi	r23, 0x13	; 19
    1912:	0e 94 94 1e 	call	0x3d28	; 0x3d28 <_ZN4XBee10readPacketEi>
    1916:	88 23       	and	r24, r24
    1918:	09 f4       	brne	.+2      	; 0x191c <_Z13sendAtCommandv+0x2e>
    191a:	a5 c0       	rjmp	.+330    	; 0x1a66 <_Z13sendAtCommandv+0x178>
    191c:	83 ec       	ldi	r24, 0xC3	; 195
    191e:	96 e0       	ldi	r25, 0x06	; 6
    1920:	0e 94 ab 13 	call	0x2756	; 0x2756 <_ZN4XBee11getResponseEv>
    1924:	0e 94 04 0e 	call	0x1c08	; 0x1c08 <_ZN12XBeeResponse8getApiIdEv>
    1928:	88 38       	cpi	r24, 0x88	; 136
    192a:	09 f0       	breq	.+2      	; 0x192e <_Z13sendAtCommandv+0x40>
    192c:	88 c0       	rjmp	.+272    	; 0x1a3e <_Z13sendAtCommandv+0x150>
    192e:	83 ec       	ldi	r24, 0xC3	; 195
    1930:	96 e0       	ldi	r25, 0x06	; 6
    1932:	0e 94 ab 13 	call	0x2756	; 0x2756 <_ZN4XBee11getResponseEv>
    1936:	65 e5       	ldi	r22, 0x55	; 85
    1938:	77 e0       	ldi	r23, 0x07	; 7
    193a:	0e 94 90 12 	call	0x2520	; 0x2520 <_ZN12XBeeResponse20getAtCommandResponseERS_>
    193e:	85 e5       	ldi	r24, 0x55	; 85
    1940:	97 e0       	ldi	r25, 0x07	; 7
    1942:	0e 94 77 0f 	call	0x1eee	; 0x1eee <_ZN17AtCommandResponse4isOkEv>
    1946:	88 23       	and	r24, r24
    1948:	09 f4       	brne	.+2      	; 0x194c <_Z13sendAtCommandv+0x5e>
    194a:	69 c0       	rjmp	.+210    	; 0x1a1e <_Z13sendAtCommandv+0x130>
    194c:	8f e7       	ldi	r24, 0x7F	; 127
    194e:	99 e0       	ldi	r25, 0x09	; 9
    1950:	67 ea       	ldi	r22, 0xA7	; 167
    1952:	72 e0       	ldi	r23, 0x02	; 2
    1954:	0e 94 58 40 	call	0x80b0	; 0x80b0 <_ZN5Print5printEPKc>
    1958:	85 e5       	ldi	r24, 0x55	; 85
    195a:	97 e0       	ldi	r25, 0x07	; 7
    195c:	0e 94 7f 0f 	call	0x1efe	; 0x1efe <_ZN17AtCommandResponse10getCommandEv>
    1960:	fc 01       	movw	r30, r24
    1962:	8f e7       	ldi	r24, 0x7F	; 127
    1964:	99 e0       	ldi	r25, 0x09	; 9
    1966:	60 81       	ld	r22, Z
    1968:	40 e0       	ldi	r20, 0x00	; 0
    196a:	50 e0       	ldi	r21, 0x00	; 0
    196c:	0e 94 42 41 	call	0x8284	; 0x8284 <_ZN5Print5printEhi>
    1970:	85 e5       	ldi	r24, 0x55	; 85
    1972:	97 e0       	ldi	r25, 0x07	; 7
    1974:	0e 94 7f 0f 	call	0x1efe	; 0x1efe <_ZN17AtCommandResponse10getCommandEv>
    1978:	fc 01       	movw	r30, r24
    197a:	8f e7       	ldi	r24, 0x7F	; 127
    197c:	99 e0       	ldi	r25, 0x09	; 9
    197e:	61 81       	ldd	r22, Z+1	; 0x01
    1980:	40 e0       	ldi	r20, 0x00	; 0
    1982:	50 e0       	ldi	r21, 0x00	; 0
    1984:	0e 94 42 41 	call	0x8284	; 0x8284 <_ZN5Print5printEhi>
    1988:	8f e7       	ldi	r24, 0x7F	; 127
    198a:	99 e0       	ldi	r25, 0x09	; 9
    198c:	61 eb       	ldi	r22, 0xB1	; 177
    198e:	72 e0       	ldi	r23, 0x02	; 2
    1990:	0e 94 04 42 	call	0x8408	; 0x8408 <_ZN5Print7printlnEPKc>
    1994:	85 e5       	ldi	r24, 0x55	; 85
    1996:	97 e0       	ldi	r25, 0x07	; 7
    1998:	0e 94 24 0f 	call	0x1e48	; 0x1e48 <_ZN17AtCommandResponse14getValueLengthEv>
    199c:	88 23       	and	r24, r24
    199e:	09 f4       	brne	.+2      	; 0x19a2 <_Z13sendAtCommandv+0xb4>
    19a0:	84 c0       	rjmp	.+264    	; 0x1aaa <_Z13sendAtCommandv+0x1bc>
    19a2:	8f e7       	ldi	r24, 0x7F	; 127
    19a4:	99 e0       	ldi	r25, 0x09	; 9
    19a6:	63 ec       	ldi	r22, 0xC3	; 195
    19a8:	72 e0       	ldi	r23, 0x02	; 2
    19aa:	0e 94 58 40 	call	0x80b0	; 0x80b0 <_ZN5Print5printEPKc>
    19ae:	85 e5       	ldi	r24, 0x55	; 85
    19b0:	97 e0       	ldi	r25, 0x07	; 7
    19b2:	0e 94 24 0f 	call	0x1e48	; 0x1e48 <_ZN17AtCommandResponse14getValueLengthEv>
    19b6:	68 2f       	mov	r22, r24
    19b8:	8f e7       	ldi	r24, 0x7F	; 127
    19ba:	99 e0       	ldi	r25, 0x09	; 9
    19bc:	4a e0       	ldi	r20, 0x0A	; 10
    19be:	50 e0       	ldi	r21, 0x00	; 0
    19c0:	0e 94 ea 41 	call	0x83d4	; 0x83d4 <_ZN5Print7printlnEhi>
    19c4:	8f e7       	ldi	r24, 0x7F	; 127
    19c6:	99 e0       	ldi	r25, 0x09	; 9
    19c8:	6c ed       	ldi	r22, 0xDC	; 220
    19ca:	72 e0       	ldi	r23, 0x02	; 2
    19cc:	0e 94 58 40 	call	0x80b0	; 0x80b0 <_ZN5Print5printEPKc>
    19d0:	c0 e0       	ldi	r28, 0x00	; 0
    19d2:	d0 e0       	ldi	r29, 0x00	; 0
    19d4:	15 c0       	rjmp	.+42     	; 0x1a00 <_Z13sendAtCommandv+0x112>
    19d6:	85 e5       	ldi	r24, 0x55	; 85
    19d8:	97 e0       	ldi	r25, 0x07	; 7
    19da:	0e 94 5e 0f 	call	0x1ebc	; 0x1ebc <_ZN17AtCommandResponse8getValueEv>
    19de:	fc 01       	movw	r30, r24
    19e0:	ec 0f       	add	r30, r28
    19e2:	fd 1f       	adc	r31, r29
    19e4:	8f e7       	ldi	r24, 0x7F	; 127
    19e6:	99 e0       	ldi	r25, 0x09	; 9
    19e8:	60 81       	ld	r22, Z
    19ea:	40 e1       	ldi	r20, 0x10	; 16
    19ec:	50 e0       	ldi	r21, 0x00	; 0
    19ee:	0e 94 42 41 	call	0x8284	; 0x8284 <_ZN5Print5printEhi>
    19f2:	8f e7       	ldi	r24, 0x7F	; 127
    19f4:	99 e0       	ldi	r25, 0x09	; 9
    19f6:	6c ee       	ldi	r22, 0xEC	; 236
    19f8:	72 e0       	ldi	r23, 0x02	; 2
    19fa:	0e 94 58 40 	call	0x80b0	; 0x80b0 <_ZN5Print5printEPKc>
    19fe:	21 96       	adiw	r28, 0x01	; 1
    1a00:	85 e5       	ldi	r24, 0x55	; 85
    1a02:	97 e0       	ldi	r25, 0x07	; 7
    1a04:	0e 94 24 0f 	call	0x1e48	; 0x1e48 <_ZN17AtCommandResponse14getValueLengthEv>
    1a08:	90 e0       	ldi	r25, 0x00	; 0
    1a0a:	c8 17       	cp	r28, r24
    1a0c:	d9 07       	cpc	r29, r25
    1a0e:	1c f3       	brlt	.-58     	; 0x19d6 <_Z13sendAtCommandv+0xe8>
    1a10:	8f e7       	ldi	r24, 0x7F	; 127
    1a12:	99 e0       	ldi	r25, 0x09	; 9
    1a14:	6e ee       	ldi	r22, 0xEE	; 238
    1a16:	72 e0       	ldi	r23, 0x02	; 2
    1a18:	0e 94 04 42 	call	0x8408	; 0x8408 <_ZN5Print7printlnEPKc>
    1a1c:	46 c0       	rjmp	.+140    	; 0x1aaa <_Z13sendAtCommandv+0x1bc>
    1a1e:	8f e7       	ldi	r24, 0x7F	; 127
    1a20:	99 e0       	ldi	r25, 0x09	; 9
    1a22:	6f ee       	ldi	r22, 0xEF	; 239
    1a24:	72 e0       	ldi	r23, 0x02	; 2
    1a26:	0e 94 58 40 	call	0x80b0	; 0x80b0 <_ZN5Print5printEPKc>
    1a2a:	85 e5       	ldi	r24, 0x55	; 85
    1a2c:	97 e0       	ldi	r25, 0x07	; 7
    1a2e:	0e 94 72 0f 	call	0x1ee4	; 0x1ee4 <_ZN17AtCommandResponse9getStatusEv>
    1a32:	68 2f       	mov	r22, r24
    1a34:	8f e7       	ldi	r24, 0x7F	; 127
    1a36:	99 e0       	ldi	r25, 0x09	; 9
    1a38:	40 e1       	ldi	r20, 0x10	; 16
    1a3a:	50 e0       	ldi	r21, 0x00	; 0
    1a3c:	2d c0       	rjmp	.+90     	; 0x1a98 <_Z13sendAtCommandv+0x1aa>
    1a3e:	8f e7       	ldi	r24, 0x7F	; 127
    1a40:	99 e0       	ldi	r25, 0x09	; 9
    1a42:	6b e0       	ldi	r22, 0x0B	; 11
    1a44:	73 e0       	ldi	r23, 0x03	; 3
    1a46:	0e 94 58 40 	call	0x80b0	; 0x80b0 <_ZN5Print5printEPKc>
    1a4a:	83 ec       	ldi	r24, 0xC3	; 195
    1a4c:	96 e0       	ldi	r25, 0x06	; 6
    1a4e:	0e 94 ab 13 	call	0x2756	; 0x2756 <_ZN4XBee11getResponseEv>
    1a52:	0e 94 04 0e 	call	0x1c08	; 0x1c08 <_ZN12XBeeResponse8getApiIdEv>
    1a56:	68 2f       	mov	r22, r24
    1a58:	8f e7       	ldi	r24, 0x7F	; 127
    1a5a:	99 e0       	ldi	r25, 0x09	; 9
    1a5c:	40 e1       	ldi	r20, 0x10	; 16
    1a5e:	50 e0       	ldi	r21, 0x00	; 0
    1a60:	0e 94 42 41 	call	0x8284	; 0x8284 <_ZN5Print5printEhi>
    1a64:	22 c0       	rjmp	.+68     	; 0x1aaa <_Z13sendAtCommandv+0x1bc>
    1a66:	83 ec       	ldi	r24, 0xC3	; 195
    1a68:	96 e0       	ldi	r25, 0x06	; 6
    1a6a:	0e 94 ab 13 	call	0x2756	; 0x2756 <_ZN4XBee11getResponseEv>
    1a6e:	0e 94 28 0e 	call	0x1c50	; 0x1c50 <_ZN12XBeeResponse7isErrorEv>
    1a72:	88 23       	and	r24, r24
    1a74:	a1 f0       	breq	.+40     	; 0x1a9e <_Z13sendAtCommandv+0x1b0>
    1a76:	8f e7       	ldi	r24, 0x7F	; 127
    1a78:	99 e0       	ldi	r25, 0x09	; 9
    1a7a:	69 e2       	ldi	r22, 0x29	; 41
    1a7c:	73 e0       	ldi	r23, 0x03	; 3
    1a7e:	0e 94 58 40 	call	0x80b0	; 0x80b0 <_ZN5Print5printEPKc>
    1a82:	83 ec       	ldi	r24, 0xC3	; 195
    1a84:	96 e0       	ldi	r25, 0x06	; 6
    1a86:	0e 94 ab 13 	call	0x2756	; 0x2756 <_ZN4XBee11getResponseEv>
    1a8a:	0e 94 2d 0e 	call	0x1c5a	; 0x1c5a <_ZN12XBeeResponse12getErrorCodeEv>
    1a8e:	68 2f       	mov	r22, r24
    1a90:	8f e7       	ldi	r24, 0x7F	; 127
    1a92:	99 e0       	ldi	r25, 0x09	; 9
    1a94:	40 e0       	ldi	r20, 0x00	; 0
    1a96:	50 e0       	ldi	r21, 0x00	; 0
    1a98:	0e 94 ea 41 	call	0x83d4	; 0x83d4 <_ZN5Print7printlnEhi>
    1a9c:	06 c0       	rjmp	.+12     	; 0x1aaa <_Z13sendAtCommandv+0x1bc>
    1a9e:	8f e7       	ldi	r24, 0x7F	; 127
    1aa0:	99 e0       	ldi	r25, 0x09	; 9
    1aa2:	6d e4       	ldi	r22, 0x4D	; 77
    1aa4:	73 e0       	ldi	r23, 0x03	; 3
    1aa6:	0e 94 58 40 	call	0x80b0	; 0x80b0 <_ZN5Print5printEPKc>
    1aaa:	df 91       	pop	r29
    1aac:	cf 91       	pop	r28
    1aae:	08 95       	ret

00001ab0 <_Z12randoPayloadv>:
    1ab0:	0e 94 c9 0b 	call	0x1792	; 0x1792 <_Z12cleanPayloadv>
    1ab4:	60 e0       	ldi	r22, 0x00	; 0
    1ab6:	70 e0       	ldi	r23, 0x00	; 0
    1ab8:	80 e0       	ldi	r24, 0x00	; 0
    1aba:	90 e0       	ldi	r25, 0x00	; 0
    1abc:	23 e0       	ldi	r18, 0x03	; 3
    1abe:	30 e0       	ldi	r19, 0x00	; 0
    1ac0:	40 e0       	ldi	r20, 0x00	; 0
    1ac2:	50 e0       	ldi	r21, 0x00	; 0
    1ac4:	0e 94 67 43 	call	0x86ce	; 0x86ce <_Z6randomll>
    1ac8:	26 e0       	ldi	r18, 0x06	; 6
    1aca:	62 9f       	mul	r22, r18
    1acc:	c0 01       	movw	r24, r0
    1ace:	11 24       	eor	r1, r1
    1ad0:	81 55       	subi	r24, 0x51	; 81
    1ad2:	99 4f       	sbci	r25, 0xF9	; 249
    1ad4:	64 e1       	ldi	r22, 0x14	; 20
    1ad6:	76 e0       	ldi	r23, 0x06	; 6
    1ad8:	48 e2       	ldi	r20, 0x28	; 40
    1ada:	50 e0       	ldi	r21, 0x00	; 0
    1adc:	0e 94 eb 43 	call	0x87d6	; 0x87d6 <_ZN6String8getBytesEPhj>
    1ae0:	08 95       	ret

00001ae2 <main>:
    1ae2:	0f 93       	push	r16
    1ae4:	1f 93       	push	r17
    1ae6:	df 93       	push	r29
    1ae8:	cf 93       	push	r28
    1aea:	cd b7       	in	r28, 0x3d	; 61
    1aec:	de b7       	in	r29, 0x3e	; 62
    1aee:	6c 97       	sbiw	r28, 0x1c	; 28
    1af0:	0f b6       	in	r0, 0x3f	; 63
    1af2:	f8 94       	cli
    1af4:	de bf       	out	0x3e, r29	; 62
    1af6:	0f be       	out	0x3f, r0	; 63
    1af8:	cd bf       	out	0x3d, r28	; 61
    1afa:	0e 94 79 4c 	call	0x98f2	; 0x98f2 <init>
    1afe:	82 e9       	ldi	r24, 0x92	; 146
    1b00:	99 e0       	ldi	r25, 0x09	; 9
    1b02:	40 e8       	ldi	r20, 0x80	; 128
    1b04:	55 e2       	ldi	r21, 0x25	; 37
    1b06:	60 e0       	ldi	r22, 0x00	; 0
    1b08:	70 e0       	ldi	r23, 0x00	; 0
    1b0a:	0e 94 60 3e 	call	0x7cc0	; 0x7cc0 <_ZN14HardwareSerial5beginEl>
    1b0e:	83 ec       	ldi	r24, 0xC3	; 195
    1b10:	96 e0       	ldi	r25, 0x06	; 6
    1b12:	62 e9       	ldi	r22, 0x92	; 146
    1b14:	79 e0       	ldi	r23, 0x09	; 9
    1b16:	0e 94 a4 13 	call	0x2748	; 0x2748 <_ZN4XBee9setSerialER14HardwareSerial>
    1b1a:	80 e0       	ldi	r24, 0x00	; 0
    1b1c:	0e 94 de 4c 	call	0x99bc	; 0x99bc <analogRead>
    1b20:	0e 94 85 43 	call	0x870a	; 0x870a <_Z10randomSeedj>
    1b24:	8f e7       	ldi	r24, 0x7F	; 127
    1b26:	99 e0       	ldi	r25, 0x09	; 9
    1b28:	40 e8       	ldi	r20, 0x80	; 128
    1b2a:	55 e2       	ldi	r21, 0x25	; 37
    1b2c:	60 e0       	ldi	r22, 0x00	; 0
    1b2e:	70 e0       	ldi	r23, 0x00	; 0
    1b30:	0e 94 60 3e 	call	0x7cc0	; 0x7cc0 <_ZN14HardwareSerial5beginEl>
    1b34:	8f e7       	ldi	r24, 0x7F	; 127
    1b36:	99 e0       	ldi	r25, 0x09	; 9
    1b38:	64 e6       	ldi	r22, 0x64	; 100
    1b3a:	73 e0       	ldi	r23, 0x03	; 3
    1b3c:	0e 94 04 42 	call	0x8408	; 0x8408 <_ZN5Print7printlnEPKc>
    1b40:	68 e8       	ldi	r22, 0x88	; 136
    1b42:	73 e1       	ldi	r23, 0x13	; 19
    1b44:	80 e0       	ldi	r24, 0x00	; 0
    1b46:	90 e0       	ldi	r25, 0x00	; 0
    1b48:	0e 94 16 4c 	call	0x982c	; 0x982c <delay>
    1b4c:	8e 01       	movw	r16, r28
    1b4e:	0f 5f       	subi	r16, 0xFF	; 255
    1b50:	1f 4f       	sbci	r17, 0xFF	; 255
    1b52:	c8 01       	movw	r24, r16
    1b54:	60 e4       	ldi	r22, 0x40	; 64
    1b56:	75 e0       	ldi	r23, 0x05	; 5
    1b58:	41 ec       	ldi	r20, 0xC1	; 193
    1b5a:	56 e0       	ldi	r21, 0x06	; 6
    1b5c:	22 e0       	ldi	r18, 0x02	; 2
    1b5e:	0e 94 d6 1b 	call	0x37ac	; 0x37ac <_ZN16AtCommandRequestC1EPhS0_h>
    1b62:	8c e4       	ldi	r24, 0x4C	; 76
    1b64:	97 e0       	ldi	r25, 0x07	; 7
    1b66:	b8 01       	movw	r22, r16
    1b68:	0e 94 ab 0b 	call	0x1756	; 0x1756 <_ZN16AtCommandRequestaSERKS_>
    1b6c:	0e 94 77 0c 	call	0x18ee	; 0x18ee <_Z13sendAtCommandv>
    1b70:	8e 01       	movw	r16, r28
    1b72:	06 5f       	subi	r16, 0xF6	; 246
    1b74:	1f 4f       	sbci	r17, 0xFF	; 255
    1b76:	c8 01       	movw	r24, r16
    1b78:	62 e4       	ldi	r22, 0x42	; 66
    1b7a:	75 e0       	ldi	r23, 0x05	; 5
    1b7c:	0e 94 29 1c 	call	0x3852	; 0x3852 <_ZN16AtCommandRequestC1EPh>
    1b80:	8c e4       	ldi	r24, 0x4C	; 76
    1b82:	97 e0       	ldi	r25, 0x07	; 7
    1b84:	b8 01       	movw	r22, r16
    1b86:	0e 94 ab 0b 	call	0x1756	; 0x1756 <_ZN16AtCommandRequestaSERKS_>
    1b8a:	0e 94 77 0c 	call	0x18ee	; 0x18ee <_Z13sendAtCommandv>
    1b8e:	8f e7       	ldi	r24, 0x7F	; 127
    1b90:	99 e0       	ldi	r25, 0x09	; 9
    1b92:	6e ea       	ldi	r22, 0xAE	; 174
    1b94:	73 e0       	ldi	r23, 0x03	; 3
    1b96:	0e 94 04 42 	call	0x8408	; 0x8408 <_ZN5Print7printlnEPKc>
    1b9a:	8f e7       	ldi	r24, 0x7F	; 127
    1b9c:	99 e0       	ldi	r25, 0x09	; 9
    1b9e:	6b eb       	ldi	r22, 0xBB	; 187
    1ba0:	73 e0       	ldi	r23, 0x03	; 3
    1ba2:	0e 94 04 42 	call	0x8408	; 0x8408 <_ZN5Print7printlnEPKc>
    1ba6:	8f e7       	ldi	r24, 0x7F	; 127
    1ba8:	99 e0       	ldi	r25, 0x09	; 9
    1baa:	6e ec       	ldi	r22, 0xCE	; 206
    1bac:	73 e0       	ldi	r23, 0x03	; 3
    1bae:	0e 94 58 40 	call	0x80b0	; 0x80b0 <_ZN5Print5printEPKc>
    1bb2:	8e 01       	movw	r16, r28
    1bb4:	0d 5e       	subi	r16, 0xED	; 237
    1bb6:	1f 4f       	sbci	r17, 0xFF	; 255
    1bb8:	64 e6       	ldi	r22, 0x64	; 100
    1bba:	70 e0       	ldi	r23, 0x00	; 0
    1bbc:	80 e0       	ldi	r24, 0x00	; 0
    1bbe:	90 e0       	ldi	r25, 0x00	; 0
    1bc0:	0e 94 16 4c 	call	0x982c	; 0x982c <delay>
    1bc4:	0e 94 58 0d 	call	0x1ab0	; 0x1ab0 <_Z12randoPayloadv>
    1bc8:	8f e7       	ldi	r24, 0x7F	; 127
    1bca:	99 e0       	ldi	r25, 0x09	; 9
    1bcc:	6f ed       	ldi	r22, 0xDF	; 223
    1bce:	73 e0       	ldi	r23, 0x03	; 3
    1bd0:	0e 94 04 42 	call	0x8408	; 0x8408 <_ZN5Print7printlnEPKc>
    1bd4:	60 91 46 05 	lds	r22, 0x0546
    1bd8:	70 91 47 05 	lds	r23, 0x0547
    1bdc:	c8 01       	movw	r24, r16
    1bde:	44 e1       	ldi	r20, 0x14	; 20
    1be0:	56 e0       	ldi	r21, 0x06	; 6
    1be2:	28 e2       	ldi	r18, 0x28	; 40
    1be4:	0e 94 4b 1a 	call	0x3496	; 0x3496 <_ZN11Tx16RequestC1EjPhh>
    1be8:	83 ec       	ldi	r24, 0xC3	; 195
    1bea:	96 e0       	ldi	r25, 0x06	; 6
    1bec:	b8 01       	movw	r22, r16
    1bee:	0e 94 f5 1e 	call	0x3dea	; 0x3dea <_ZN4XBee4sendER11XBeeRequest>
    1bf2:	0e 94 3d 0c 	call	0x187a	; 0x187a <_Z17handleTXAftermathv>
    1bf6:	68 ee       	ldi	r22, 0xE8	; 232
    1bf8:	73 e0       	ldi	r23, 0x03	; 3
    1bfa:	80 e0       	ldi	r24, 0x00	; 0
    1bfc:	90 e0       	ldi	r25, 0x00	; 0
    1bfe:	0e 94 16 4c 	call	0x982c	; 0x982c <delay>
    1c02:	da cf       	rjmp	.-76     	; 0x1bb8 <main+0xd6>

00001c04 <_ZN12XBeeResponseC2Ev>:
    1c04:	08 95       	ret

00001c06 <_ZN12XBeeResponseC1Ev>:
    1c06:	08 95       	ret

00001c08 <_ZN12XBeeResponse8getApiIdEv>:
    1c08:	fc 01       	movw	r30, r24
    1c0a:	82 81       	ldd	r24, Z+2	; 0x02
    1c0c:	08 95       	ret

00001c0e <_ZN12XBeeResponse8setApiIdEh>:
    1c0e:	fc 01       	movw	r30, r24
    1c10:	62 83       	std	Z+2, r22	; 0x02
    1c12:	08 95       	ret

00001c14 <_ZN12XBeeResponse12getMsbLengthEv>:
    1c14:	fc 01       	movw	r30, r24
    1c16:	83 81       	ldd	r24, Z+3	; 0x03
    1c18:	08 95       	ret

00001c1a <_ZN12XBeeResponse12setMsbLengthEh>:
    1c1a:	fc 01       	movw	r30, r24
    1c1c:	63 83       	std	Z+3, r22	; 0x03
    1c1e:	08 95       	ret

00001c20 <_ZN12XBeeResponse12getLsbLengthEv>:
    1c20:	fc 01       	movw	r30, r24
    1c22:	84 81       	ldd	r24, Z+4	; 0x04
    1c24:	08 95       	ret

00001c26 <_ZN12XBeeResponse12setLsbLengthEh>:
    1c26:	fc 01       	movw	r30, r24
    1c28:	64 83       	std	Z+4, r22	; 0x04
    1c2a:	08 95       	ret

00001c2c <_ZN12XBeeResponse11getChecksumEv>:
    1c2c:	fc 01       	movw	r30, r24
    1c2e:	85 81       	ldd	r24, Z+5	; 0x05
    1c30:	08 95       	ret

00001c32 <_ZN12XBeeResponse11setChecksumEh>:
    1c32:	fc 01       	movw	r30, r24
    1c34:	65 83       	std	Z+5, r22	; 0x05
    1c36:	08 95       	ret

00001c38 <_ZN12XBeeResponse18getFrameDataLengthEv>:
    1c38:	fc 01       	movw	r30, r24
    1c3a:	86 81       	ldd	r24, Z+6	; 0x06
    1c3c:	08 95       	ret

00001c3e <_ZN12XBeeResponse14setFrameLengthEh>:
    1c3e:	fc 01       	movw	r30, r24
    1c40:	66 83       	std	Z+6, r22	; 0x06
    1c42:	08 95       	ret

00001c44 <_ZN12XBeeResponse11isAvailableEv>:
    1c44:	fc 01       	movw	r30, r24
    1c46:	87 81       	ldd	r24, Z+7	; 0x07
    1c48:	08 95       	ret

00001c4a <_ZN12XBeeResponse12setAvailableEb>:
    1c4a:	fc 01       	movw	r30, r24
    1c4c:	67 83       	std	Z+7, r22	; 0x07
    1c4e:	08 95       	ret

00001c50 <_ZN12XBeeResponse7isErrorEv>:
    1c50:	fc 01       	movw	r30, r24
    1c52:	80 85       	ldd	r24, Z+8	; 0x08
    1c54:	81 11       	cpse	r24, r1
    1c56:	81 e0       	ldi	r24, 0x01	; 1
    1c58:	08 95       	ret

00001c5a <_ZN12XBeeResponse12getErrorCodeEv>:
    1c5a:	fc 01       	movw	r30, r24
    1c5c:	80 85       	ldd	r24, Z+8	; 0x08
    1c5e:	08 95       	ret

00001c60 <_ZN12XBeeResponse12setErrorCodeEh>:
    1c60:	fc 01       	movw	r30, r24
    1c62:	60 87       	std	Z+8, r22	; 0x08
    1c64:	08 95       	ret

00001c66 <_ZN12XBeeResponse9setCommonERS_>:
    1c66:	ef 92       	push	r14
    1c68:	ff 92       	push	r15
    1c6a:	0f 93       	push	r16
    1c6c:	1f 93       	push	r17
    1c6e:	8c 01       	movw	r16, r24
    1c70:	7b 01       	movw	r14, r22
    1c72:	0e 94 04 0e 	call	0x1c08	; 0x1c08 <_ZN12XBeeResponse8getApiIdEv>
    1c76:	68 2f       	mov	r22, r24
    1c78:	c7 01       	movw	r24, r14
    1c7a:	0e 94 07 0e 	call	0x1c0e	; 0x1c0e <_ZN12XBeeResponse8setApiIdEh>
    1c7e:	c8 01       	movw	r24, r16
    1c80:	0e 94 22 0e 	call	0x1c44	; 0x1c44 <_ZN12XBeeResponse11isAvailableEv>
    1c84:	68 2f       	mov	r22, r24
    1c86:	c7 01       	movw	r24, r14
    1c88:	0e 94 25 0e 	call	0x1c4a	; 0x1c4a <_ZN12XBeeResponse12setAvailableEb>
    1c8c:	c8 01       	movw	r24, r16
    1c8e:	0e 94 16 0e 	call	0x1c2c	; 0x1c2c <_ZN12XBeeResponse11getChecksumEv>
    1c92:	68 2f       	mov	r22, r24
    1c94:	c7 01       	movw	r24, r14
    1c96:	0e 94 19 0e 	call	0x1c32	; 0x1c32 <_ZN12XBeeResponse11setChecksumEh>
    1c9a:	c8 01       	movw	r24, r16
    1c9c:	0e 94 2d 0e 	call	0x1c5a	; 0x1c5a <_ZN12XBeeResponse12getErrorCodeEv>
    1ca0:	68 2f       	mov	r22, r24
    1ca2:	c7 01       	movw	r24, r14
    1ca4:	0e 94 30 0e 	call	0x1c60	; 0x1c60 <_ZN12XBeeResponse12setErrorCodeEh>
    1ca8:	c8 01       	movw	r24, r16
    1caa:	0e 94 1c 0e 	call	0x1c38	; 0x1c38 <_ZN12XBeeResponse18getFrameDataLengthEv>
    1cae:	68 2f       	mov	r22, r24
    1cb0:	c7 01       	movw	r24, r14
    1cb2:	0e 94 1f 0e 	call	0x1c3e	; 0x1c3e <_ZN12XBeeResponse14setFrameLengthEh>
    1cb6:	c8 01       	movw	r24, r16
    1cb8:	0e 94 0a 0e 	call	0x1c14	; 0x1c14 <_ZN12XBeeResponse12getMsbLengthEv>
    1cbc:	68 2f       	mov	r22, r24
    1cbe:	c7 01       	movw	r24, r14
    1cc0:	0e 94 0d 0e 	call	0x1c1a	; 0x1c1a <_ZN12XBeeResponse12setMsbLengthEh>
    1cc4:	c8 01       	movw	r24, r16
    1cc6:	0e 94 10 0e 	call	0x1c20	; 0x1c20 <_ZN12XBeeResponse12getLsbLengthEv>
    1cca:	68 2f       	mov	r22, r24
    1ccc:	c7 01       	movw	r24, r14
    1cce:	0e 94 13 0e 	call	0x1c26	; 0x1c26 <_ZN12XBeeResponse12setLsbLengthEh>
    1cd2:	1f 91       	pop	r17
    1cd4:	0f 91       	pop	r16
    1cd6:	ff 90       	pop	r15
    1cd8:	ef 90       	pop	r14
    1cda:	08 95       	ret

00001cdc <_ZN12ZBRxResponse13getDataOffsetEv>:
    1cdc:	8b e0       	ldi	r24, 0x0B	; 11
    1cde:	08 95       	ret

00001ce0 <_ZN12ZBRxResponse18getRemoteAddress64Ev>:
    1ce0:	9c 01       	movw	r18, r24
    1ce2:	25 5f       	subi	r18, 0xF5	; 245
    1ce4:	3f 4f       	sbci	r19, 0xFF	; 255
    1ce6:	c9 01       	movw	r24, r18
    1ce8:	08 95       	ret

00001cea <_ZN12Rx64Response18getRemoteAddress64Ev>:
    1cea:	9c 01       	movw	r18, r24
    1cec:	25 5f       	subi	r18, 0xF5	; 245
    1cee:	3f 4f       	sbci	r19, 0xFF	; 255
    1cf0:	c9 01       	movw	r24, r18
    1cf2:	08 95       	ret

00001cf4 <_ZN22RxIoSampleBaseResponse15getSampleOffsetEv>:
    1cf4:	fc 01       	movw	r30, r24
    1cf6:	a0 81       	ld	r26, Z
    1cf8:	b1 81       	ldd	r27, Z+1	; 0x01
    1cfa:	14 96       	adiw	r26, 0x04	; 4
    1cfc:	2d 91       	ld	r18, X+
    1cfe:	3c 91       	ld	r19, X
    1d00:	15 97       	sbiw	r26, 0x05	; 5
    1d02:	f9 01       	movw	r30, r18
    1d04:	09 95       	icall
    1d06:	8e 5f       	subi	r24, 0xFE	; 254
    1d08:	08 95       	ret

00001d0a <_ZN20Rx16IoSampleResponse13getRssiOffsetEv>:
    1d0a:	82 e0       	ldi	r24, 0x02	; 2
    1d0c:	08 95       	ret

00001d0e <_ZN20Rx64IoSampleResponse18getRemoteAddress64Ev>:
    1d0e:	9c 01       	movw	r18, r24
    1d10:	25 5f       	subi	r18, 0xF5	; 245
    1d12:	3f 4f       	sbci	r19, 0xFF	; 255
    1d14:	c9 01       	movw	r24, r18
    1d16:	08 95       	ret

00001d18 <_ZN20Rx64IoSampleResponse13getRssiOffsetEv>:
    1d18:	88 e0       	ldi	r24, 0x08	; 8
    1d1a:	08 95       	ret

00001d1c <_ZN10RxResponse13getDataOffsetEv>:
    1d1c:	fc 01       	movw	r30, r24
    1d1e:	a0 81       	ld	r26, Z
    1d20:	b1 81       	ldd	r27, Z+1	; 0x01
    1d22:	14 96       	adiw	r26, 0x04	; 4
    1d24:	2d 91       	ld	r18, X+
    1d26:	3c 91       	ld	r19, X
    1d28:	15 97       	sbiw	r26, 0x05	; 5
    1d2a:	f9 01       	movw	r30, r18
    1d2c:	09 95       	icall
    1d2e:	8e 5f       	subi	r24, 0xFE	; 254
    1d30:	08 95       	ret

00001d32 <_ZN12Rx16Response13getRssiOffsetEv>:
    1d32:	82 e0       	ldi	r24, 0x02	; 2
    1d34:	08 95       	ret

00001d36 <_ZN12Rx64Response13getRssiOffsetEv>:
    1d36:	88 e0       	ldi	r24, 0x08	; 8
    1d38:	08 95       	ret

00001d3a <_ZN23RemoteAtCommandResponse14getValueLengthEv>:
    1d3a:	0e 94 1c 0e 	call	0x1c38	; 0x1c38 <_ZN12XBeeResponse18getFrameDataLengthEv>
    1d3e:	8e 50       	subi	r24, 0x0E	; 14
    1d40:	08 95       	ret

00001d42 <_ZN23RemoteAtCommandResponse18getRemoteAddress64Ev>:
    1d42:	9c 01       	movw	r18, r24
    1d44:	26 5f       	subi	r18, 0xF6	; 246
    1d46:	3f 4f       	sbci	r19, 0xFF	; 255
    1d48:	c9 01       	movw	r24, r18
    1d4a:	08 95       	ret

00001d4c <_ZN14RxDataResponseC2Ev>:
    1d4c:	fc 01       	movw	r30, r24
    1d4e:	8f ec       	ldi	r24, 0xCF	; 207
    1d50:	95 e0       	ldi	r25, 0x05	; 5
    1d52:	91 83       	std	Z+1, r25	; 0x01
    1d54:	80 83       	st	Z, r24
    1d56:	08 95       	ret

00001d58 <_ZN10RxResponseC1Ev>:
    1d58:	0f 93       	push	r16
    1d5a:	1f 93       	push	r17
    1d5c:	8c 01       	movw	r16, r24
    1d5e:	0e 94 a6 0e 	call	0x1d4c	; 0x1d4c <_ZN14RxDataResponseC2Ev>
    1d62:	89 e9       	ldi	r24, 0x99	; 153
    1d64:	95 e0       	ldi	r25, 0x05	; 5
    1d66:	f8 01       	movw	r30, r16
    1d68:	91 83       	std	Z+1, r25	; 0x01
    1d6a:	80 83       	st	Z, r24
    1d6c:	1f 91       	pop	r17
    1d6e:	0f 91       	pop	r16
    1d70:	08 95       	ret

00001d72 <_ZN10RxResponseC2Ev>:
    1d72:	0f 93       	push	r16
    1d74:	1f 93       	push	r17
    1d76:	8c 01       	movw	r16, r24
    1d78:	0e 94 a6 0e 	call	0x1d4c	; 0x1d4c <_ZN14RxDataResponseC2Ev>
    1d7c:	89 e9       	ldi	r24, 0x99	; 153
    1d7e:	95 e0       	ldi	r25, 0x05	; 5
    1d80:	f8 01       	movw	r30, r16
    1d82:	91 83       	std	Z+1, r25	; 0x01
    1d84:	80 83       	st	Z, r24
    1d86:	1f 91       	pop	r17
    1d88:	0f 91       	pop	r16
    1d8a:	08 95       	ret

00001d8c <_ZN22RxIoSampleBaseResponseC1Ev>:
    1d8c:	0f 93       	push	r16
    1d8e:	1f 93       	push	r17
    1d90:	8c 01       	movw	r16, r24
    1d92:	0e 94 b9 0e 	call	0x1d72	; 0x1d72 <_ZN10RxResponseC2Ev>
    1d96:	87 ed       	ldi	r24, 0xD7	; 215
    1d98:	95 e0       	ldi	r25, 0x05	; 5
    1d9a:	f8 01       	movw	r30, r16
    1d9c:	91 83       	std	Z+1, r25	; 0x01
    1d9e:	80 83       	st	Z, r24
    1da0:	1f 91       	pop	r17
    1da2:	0f 91       	pop	r16
    1da4:	08 95       	ret

00001da6 <_ZN22RxIoSampleBaseResponseC2Ev>:
    1da6:	0f 93       	push	r16
    1da8:	1f 93       	push	r17
    1daa:	8c 01       	movw	r16, r24
    1dac:	0e 94 b9 0e 	call	0x1d72	; 0x1d72 <_ZN10RxResponseC2Ev>
    1db0:	87 ed       	ldi	r24, 0xD7	; 215
    1db2:	95 e0       	ldi	r25, 0x05	; 5
    1db4:	f8 01       	movw	r30, r16
    1db6:	91 83       	std	Z+1, r25	; 0x01
    1db8:	80 83       	st	Z, r24
    1dba:	1f 91       	pop	r17
    1dbc:	0f 91       	pop	r16
    1dbe:	08 95       	ret

00001dc0 <_ZN20Rx16IoSampleResponseC1Ev>:
    1dc0:	0f 93       	push	r16
    1dc2:	1f 93       	push	r17
    1dc4:	8c 01       	movw	r16, r24
    1dc6:	0e 94 d3 0e 	call	0x1da6	; 0x1da6 <_ZN22RxIoSampleBaseResponseC2Ev>
    1dca:	8d ea       	ldi	r24, 0xAD	; 173
    1dcc:	95 e0       	ldi	r25, 0x05	; 5
    1dce:	f8 01       	movw	r30, r16
    1dd0:	91 83       	std	Z+1, r25	; 0x01
    1dd2:	80 83       	st	Z, r24
    1dd4:	1f 91       	pop	r17
    1dd6:	0f 91       	pop	r16
    1dd8:	08 95       	ret

00001dda <_ZN20Rx16IoSampleResponseC2Ev>:
    1dda:	0f 93       	push	r16
    1ddc:	1f 93       	push	r17
    1dde:	8c 01       	movw	r16, r24
    1de0:	0e 94 d3 0e 	call	0x1da6	; 0x1da6 <_ZN22RxIoSampleBaseResponseC2Ev>
    1de4:	8d ea       	ldi	r24, 0xAD	; 173
    1de6:	95 e0       	ldi	r25, 0x05	; 5
    1de8:	f8 01       	movw	r30, r16
    1dea:	91 83       	std	Z+1, r25	; 0x01
    1dec:	80 83       	st	Z, r24
    1dee:	1f 91       	pop	r17
    1df0:	0f 91       	pop	r16
    1df2:	08 95       	ret

00001df4 <_ZN12Rx16ResponseC1Ev>:
    1df4:	0f 93       	push	r16
    1df6:	1f 93       	push	r17
    1df8:	8c 01       	movw	r16, r24
    1dfa:	0e 94 b9 0e 	call	0x1d72	; 0x1d72 <_ZN10RxResponseC2Ev>
    1dfe:	8f e8       	ldi	r24, 0x8F	; 143
    1e00:	95 e0       	ldi	r25, 0x05	; 5
    1e02:	f8 01       	movw	r30, r16
    1e04:	91 83       	std	Z+1, r25	; 0x01
    1e06:	80 83       	st	Z, r24
    1e08:	1f 91       	pop	r17
    1e0a:	0f 91       	pop	r16
    1e0c:	08 95       	ret

00001e0e <_ZN12Rx16ResponseC2Ev>:
    1e0e:	0f 93       	push	r16
    1e10:	1f 93       	push	r17
    1e12:	8c 01       	movw	r16, r24
    1e14:	0e 94 b9 0e 	call	0x1d72	; 0x1d72 <_ZN10RxResponseC2Ev>
    1e18:	8f e8       	ldi	r24, 0x8F	; 143
    1e1a:	95 e0       	ldi	r25, 0x05	; 5
    1e1c:	f8 01       	movw	r30, r16
    1e1e:	91 83       	std	Z+1, r25	; 0x01
    1e20:	80 83       	st	Z, r24
    1e22:	1f 91       	pop	r17
    1e24:	0f 91       	pop	r16
    1e26:	08 95       	ret

00001e28 <_ZN14RxDataResponseC1Ev>:
    1e28:	fc 01       	movw	r30, r24
    1e2a:	8f ec       	ldi	r24, 0xCF	; 207
    1e2c:	95 e0       	ldi	r25, 0x05	; 5
    1e2e:	91 83       	std	Z+1, r25	; 0x01
    1e30:	80 83       	st	Z, r24
    1e32:	08 95       	ret

00001e34 <_ZN15FrameIdResponseC2Ev>:
    1e34:	08 95       	ret

00001e36 <_ZN16TxStatusResponseC1Ev>:
    1e36:	08 95       	ret

00001e38 <_ZN16TxStatusResponseC2Ev>:
    1e38:	08 95       	ret

00001e3a <_ZN18ZBTxStatusResponseC1Ev>:
    1e3a:	08 95       	ret

00001e3c <_ZN18ZBTxStatusResponseC2Ev>:
    1e3c:	08 95       	ret

00001e3e <_ZN15FrameIdResponseC1Ev>:
    1e3e:	08 95       	ret

00001e40 <_ZN19ModemStatusResponseC2Ev>:
    1e40:	08 95       	ret

00001e42 <_ZN19ModemStatusResponseC1Ev>:
    1e42:	08 95       	ret

00001e44 <_ZN17AtCommandResponseC2Ev>:
    1e44:	08 95       	ret

00001e46 <_ZN17AtCommandResponseC1Ev>:
    1e46:	08 95       	ret

00001e48 <_ZN17AtCommandResponse14getValueLengthEv>:
    1e48:	0e 94 1c 0e 	call	0x1c38	; 0x1c38 <_ZN12XBeeResponse18getFrameDataLengthEv>
    1e4c:	84 50       	subi	r24, 0x04	; 4
    1e4e:	08 95       	ret

00001e50 <_ZN12XBeeResponse15getPacketLengthEv>:
    1e50:	fc 01       	movw	r30, r24
    1e52:	84 81       	ldd	r24, Z+4	; 0x04
    1e54:	90 e0       	ldi	r25, 0x00	; 0
    1e56:	08 95       	ret

00001e58 <_ZN10RxResponse13getDataLengthEv>:
    1e58:	ff 92       	push	r15
    1e5a:	0f 93       	push	r16
    1e5c:	1f 93       	push	r17
    1e5e:	8c 01       	movw	r16, r24
    1e60:	02 96       	adiw	r24, 0x02	; 2
    1e62:	0e 94 28 0f 	call	0x1e50	; 0x1e50 <_ZN12XBeeResponse15getPacketLengthEv>
    1e66:	f8 2e       	mov	r15, r24
    1e68:	d8 01       	movw	r26, r16
    1e6a:	ed 91       	ld	r30, X+
    1e6c:	fc 91       	ld	r31, X
    1e6e:	02 80       	ldd	r0, Z+2	; 0x02
    1e70:	f3 81       	ldd	r31, Z+3	; 0x03
    1e72:	e0 2d       	mov	r30, r0
    1e74:	c8 01       	movw	r24, r16
    1e76:	09 95       	icall
    1e78:	fa 94       	dec	r15
    1e7a:	f8 1a       	sub	r15, r24
    1e7c:	8f 2d       	mov	r24, r15
    1e7e:	1f 91       	pop	r17
    1e80:	0f 91       	pop	r16
    1e82:	ff 90       	pop	r15
    1e84:	08 95       	ret

00001e86 <_ZN12ZBRxResponse13getDataLengthEv>:
    1e86:	ff 92       	push	r15
    1e88:	0f 93       	push	r16
    1e8a:	1f 93       	push	r17
    1e8c:	8c 01       	movw	r16, r24
    1e8e:	02 96       	adiw	r24, 0x02	; 2
    1e90:	0e 94 28 0f 	call	0x1e50	; 0x1e50 <_ZN12XBeeResponse15getPacketLengthEv>
    1e94:	f8 2e       	mov	r15, r24
    1e96:	d8 01       	movw	r26, r16
    1e98:	ed 91       	ld	r30, X+
    1e9a:	fc 91       	ld	r31, X
    1e9c:	02 80       	ldd	r0, Z+2	; 0x02
    1e9e:	f3 81       	ldd	r31, Z+3	; 0x03
    1ea0:	e0 2d       	mov	r30, r0
    1ea2:	c8 01       	movw	r24, r16
    1ea4:	09 95       	icall
    1ea6:	fa 94       	dec	r15
    1ea8:	f8 1a       	sub	r15, r24
    1eaa:	8f 2d       	mov	r24, r15
    1eac:	1f 91       	pop	r17
    1eae:	0f 91       	pop	r16
    1eb0:	ff 90       	pop	r15
    1eb2:	08 95       	ret

00001eb4 <_ZN12XBeeResponse12getFrameDataEv>:
    1eb4:	fc 01       	movw	r30, r24
    1eb6:	80 81       	ld	r24, Z
    1eb8:	91 81       	ldd	r25, Z+1	; 0x01
    1eba:	08 95       	ret

00001ebc <_ZN17AtCommandResponse8getValueEv>:
    1ebc:	cf 93       	push	r28
    1ebe:	df 93       	push	r29
    1ec0:	ec 01       	movw	r28, r24
    1ec2:	0e 94 24 0f 	call	0x1e48	; 0x1e48 <_ZN17AtCommandResponse14getValueLengthEv>
    1ec6:	88 23       	and	r24, r24
    1ec8:	19 f4       	brne	.+6      	; 0x1ed0 <_ZN17AtCommandResponse8getValueEv+0x14>
    1eca:	20 e0       	ldi	r18, 0x00	; 0
    1ecc:	30 e0       	ldi	r19, 0x00	; 0
    1ece:	06 c0       	rjmp	.+12     	; 0x1edc <_ZN17AtCommandResponse8getValueEv+0x20>
    1ed0:	ce 01       	movw	r24, r28
    1ed2:	0e 94 5a 0f 	call	0x1eb4	; 0x1eb4 <_ZN12XBeeResponse12getFrameDataEv>
    1ed6:	9c 01       	movw	r18, r24
    1ed8:	2c 5f       	subi	r18, 0xFC	; 252
    1eda:	3f 4f       	sbci	r19, 0xFF	; 255
    1edc:	c9 01       	movw	r24, r18
    1ede:	df 91       	pop	r29
    1ee0:	cf 91       	pop	r28
    1ee2:	08 95       	ret

00001ee4 <_ZN17AtCommandResponse9getStatusEv>:
    1ee4:	0e 94 5a 0f 	call	0x1eb4	; 0x1eb4 <_ZN12XBeeResponse12getFrameDataEv>
    1ee8:	fc 01       	movw	r30, r24
    1eea:	83 81       	ldd	r24, Z+3	; 0x03
    1eec:	08 95       	ret

00001eee <_ZN17AtCommandResponse4isOkEv>:
    1eee:	0e 94 72 0f 	call	0x1ee4	; 0x1ee4 <_ZN17AtCommandResponse9getStatusEv>
    1ef2:	90 e0       	ldi	r25, 0x00	; 0
    1ef4:	88 23       	and	r24, r24
    1ef6:	09 f4       	brne	.+2      	; 0x1efa <_ZN17AtCommandResponse4isOkEv+0xc>
    1ef8:	91 e0       	ldi	r25, 0x01	; 1
    1efa:	89 2f       	mov	r24, r25
    1efc:	08 95       	ret

00001efe <_ZN17AtCommandResponse10getCommandEv>:
    1efe:	0e 94 5a 0f 	call	0x1eb4	; 0x1eb4 <_ZN12XBeeResponse12getFrameDataEv>
    1f02:	9c 01       	movw	r18, r24
    1f04:	2f 5f       	subi	r18, 0xFF	; 255
    1f06:	3f 4f       	sbci	r19, 0xFF	; 255
    1f08:	c9 01       	movw	r24, r18
    1f0a:	08 95       	ret

00001f0c <_ZN19ModemStatusResponse9getStatusEv>:
    1f0c:	0e 94 5a 0f 	call	0x1eb4	; 0x1eb4 <_ZN12XBeeResponse12getFrameDataEv>
    1f10:	fc 01       	movw	r30, r24
    1f12:	80 81       	ld	r24, Z
    1f14:	08 95       	ret

00001f16 <_ZN15FrameIdResponse10getFrameIdEv>:
    1f16:	0e 94 5a 0f 	call	0x1eb4	; 0x1eb4 <_ZN12XBeeResponse12getFrameDataEv>
    1f1a:	fc 01       	movw	r30, r24
    1f1c:	80 81       	ld	r24, Z
    1f1e:	08 95       	ret

00001f20 <_ZN14RxDataResponse7getDataEv>:
    1f20:	ef 92       	push	r14
    1f22:	ff 92       	push	r15
    1f24:	0f 93       	push	r16
    1f26:	1f 93       	push	r17
    1f28:	7c 01       	movw	r14, r24
    1f2a:	02 96       	adiw	r24, 0x02	; 2
    1f2c:	0e 94 5a 0f 	call	0x1eb4	; 0x1eb4 <_ZN12XBeeResponse12getFrameDataEv>
    1f30:	8c 01       	movw	r16, r24
    1f32:	d7 01       	movw	r26, r14
    1f34:	ed 91       	ld	r30, X+
    1f36:	fc 91       	ld	r31, X
    1f38:	02 80       	ldd	r0, Z+2	; 0x02
    1f3a:	f3 81       	ldd	r31, Z+3	; 0x03
    1f3c:	e0 2d       	mov	r30, r0
    1f3e:	c7 01       	movw	r24, r14
    1f40:	09 95       	icall
    1f42:	08 0f       	add	r16, r24
    1f44:	11 1d       	adc	r17, r1
    1f46:	c8 01       	movw	r24, r16
    1f48:	1f 91       	pop	r17
    1f4a:	0f 91       	pop	r16
    1f4c:	ff 90       	pop	r15
    1f4e:	ef 90       	pop	r14
    1f50:	08 95       	ret

00001f52 <_ZN14RxDataResponse7getDataEi>:
    1f52:	cf 92       	push	r12
    1f54:	df 92       	push	r13
    1f56:	ef 92       	push	r14
    1f58:	ff 92       	push	r15
    1f5a:	0f 93       	push	r16
    1f5c:	1f 93       	push	r17
    1f5e:	7c 01       	movw	r14, r24
    1f60:	6b 01       	movw	r12, r22
    1f62:	02 96       	adiw	r24, 0x02	; 2
    1f64:	0e 94 5a 0f 	call	0x1eb4	; 0x1eb4 <_ZN12XBeeResponse12getFrameDataEv>
    1f68:	8c 01       	movw	r16, r24
    1f6a:	d7 01       	movw	r26, r14
    1f6c:	ed 91       	ld	r30, X+
    1f6e:	fc 91       	ld	r31, X
    1f70:	02 80       	ldd	r0, Z+2	; 0x02
    1f72:	f3 81       	ldd	r31, Z+3	; 0x03
    1f74:	e0 2d       	mov	r30, r0
    1f76:	c7 01       	movw	r24, r14
    1f78:	09 95       	icall
    1f7a:	0c 0d       	add	r16, r12
    1f7c:	1d 1d       	adc	r17, r13
    1f7e:	08 0f       	add	r16, r24
    1f80:	11 1d       	adc	r17, r1
    1f82:	f8 01       	movw	r30, r16
    1f84:	80 81       	ld	r24, Z
    1f86:	1f 91       	pop	r17
    1f88:	0f 91       	pop	r16
    1f8a:	ff 90       	pop	r15
    1f8c:	ef 90       	pop	r14
    1f8e:	df 90       	pop	r13
    1f90:	cf 90       	pop	r12
    1f92:	08 95       	ret

00001f94 <_ZN23RemoteAtCommandResponse18getRemoteAddress16Ev>:
    1f94:	0e 94 5a 0f 	call	0x1eb4	; 0x1eb4 <_ZN12XBeeResponse12getFrameDataEv>
    1f98:	fc 01       	movw	r30, r24
    1f9a:	31 85       	ldd	r19, Z+9	; 0x09
    1f9c:	20 e0       	ldi	r18, 0x00	; 0
    1f9e:	82 85       	ldd	r24, Z+10	; 0x0a
    1fa0:	28 0f       	add	r18, r24
    1fa2:	31 1d       	adc	r19, r1
    1fa4:	c9 01       	movw	r24, r18
    1fa6:	08 95       	ret

00001fa8 <_ZN23RemoteAtCommandResponse8getValueEv>:
    1fa8:	cf 93       	push	r28
    1faa:	df 93       	push	r29
    1fac:	ec 01       	movw	r28, r24
    1fae:	0e 94 9d 0e 	call	0x1d3a	; 0x1d3a <_ZN23RemoteAtCommandResponse14getValueLengthEv>
    1fb2:	88 23       	and	r24, r24
    1fb4:	19 f4       	brne	.+6      	; 0x1fbc <_ZN23RemoteAtCommandResponse8getValueEv+0x14>
    1fb6:	20 e0       	ldi	r18, 0x00	; 0
    1fb8:	30 e0       	ldi	r19, 0x00	; 0
    1fba:	06 c0       	rjmp	.+12     	; 0x1fc8 <_ZN23RemoteAtCommandResponse8getValueEv+0x20>
    1fbc:	ce 01       	movw	r24, r28
    1fbe:	0e 94 5a 0f 	call	0x1eb4	; 0x1eb4 <_ZN12XBeeResponse12getFrameDataEv>
    1fc2:	9c 01       	movw	r18, r24
    1fc4:	22 5f       	subi	r18, 0xF2	; 242
    1fc6:	3f 4f       	sbci	r19, 0xFF	; 255
    1fc8:	c9 01       	movw	r24, r18
    1fca:	df 91       	pop	r29
    1fcc:	cf 91       	pop	r28
    1fce:	08 95       	ret

00001fd0 <_ZN23RemoteAtCommandResponse9getStatusEv>:
    1fd0:	0e 94 5a 0f 	call	0x1eb4	; 0x1eb4 <_ZN12XBeeResponse12getFrameDataEv>
    1fd4:	fc 01       	movw	r30, r24
    1fd6:	85 85       	ldd	r24, Z+13	; 0x0d
    1fd8:	08 95       	ret

00001fda <_ZN23RemoteAtCommandResponse4isOkEv>:
    1fda:	0e 94 e8 0f 	call	0x1fd0	; 0x1fd0 <_ZN23RemoteAtCommandResponse9getStatusEv>
    1fde:	90 e0       	ldi	r25, 0x00	; 0
    1fe0:	88 23       	and	r24, r24
    1fe2:	09 f4       	brne	.+2      	; 0x1fe6 <_ZN23RemoteAtCommandResponse4isOkEv+0xc>
    1fe4:	91 e0       	ldi	r25, 0x01	; 1
    1fe6:	89 2f       	mov	r24, r25
    1fe8:	08 95       	ret

00001fea <_ZN23RemoteAtCommandResponse10getCommandEv>:
    1fea:	0e 94 5a 0f 	call	0x1eb4	; 0x1eb4 <_ZN12XBeeResponse12getFrameDataEv>
    1fee:	9c 01       	movw	r18, r24
    1ff0:	25 5f       	subi	r18, 0xF5	; 245
    1ff2:	3f 4f       	sbci	r19, 0xFF	; 255
    1ff4:	c9 01       	movw	r24, r18
    1ff6:	08 95       	ret

00001ff8 <_ZN10RxResponse9getOptionEv>:
    1ff8:	ef 92       	push	r14
    1ffa:	ff 92       	push	r15
    1ffc:	0f 93       	push	r16
    1ffe:	1f 93       	push	r17
    2000:	8c 01       	movw	r16, r24
    2002:	02 96       	adiw	r24, 0x02	; 2
    2004:	0e 94 5a 0f 	call	0x1eb4	; 0x1eb4 <_ZN12XBeeResponse12getFrameDataEv>
    2008:	7c 01       	movw	r14, r24
    200a:	d8 01       	movw	r26, r16
    200c:	ed 91       	ld	r30, X+
    200e:	fc 91       	ld	r31, X
    2010:	04 80       	ldd	r0, Z+4	; 0x04
    2012:	f5 81       	ldd	r31, Z+5	; 0x05
    2014:	e0 2d       	mov	r30, r0
    2016:	c8 01       	movw	r24, r16
    2018:	09 95       	icall
    201a:	e8 0e       	add	r14, r24
    201c:	f1 1c       	adc	r15, r1
    201e:	f7 01       	movw	r30, r14
    2020:	81 81       	ldd	r24, Z+1	; 0x01
    2022:	1f 91       	pop	r17
    2024:	0f 91       	pop	r16
    2026:	ff 90       	pop	r15
    2028:	ef 90       	pop	r14
    202a:	08 95       	ret

0000202c <_ZN10RxResponse14isPanBroadcastEv>:
    202c:	0e 94 fc 0f 	call	0x1ff8	; 0x1ff8 <_ZN10RxResponse9getOptionEv>
    2030:	90 e0       	ldi	r25, 0x00	; 0
    2032:	96 95       	lsr	r25
    2034:	87 95       	ror	r24
    2036:	96 95       	lsr	r25
    2038:	87 95       	ror	r24
    203a:	81 70       	andi	r24, 0x01	; 1
    203c:	08 95       	ret

0000203e <_ZN10RxResponse18isAddressBroadcastEv>:
    203e:	0e 94 fc 0f 	call	0x1ff8	; 0x1ff8 <_ZN10RxResponse9getOptionEv>
    2042:	90 e0       	ldi	r25, 0x00	; 0
    2044:	96 95       	lsr	r25
    2046:	87 95       	ror	r24
    2048:	81 70       	andi	r24, 0x01	; 1
    204a:	08 95       	ret

0000204c <_ZN10RxResponse7getRssiEv>:
    204c:	ef 92       	push	r14
    204e:	ff 92       	push	r15
    2050:	0f 93       	push	r16
    2052:	1f 93       	push	r17
    2054:	8c 01       	movw	r16, r24
    2056:	02 96       	adiw	r24, 0x02	; 2
    2058:	0e 94 5a 0f 	call	0x1eb4	; 0x1eb4 <_ZN12XBeeResponse12getFrameDataEv>
    205c:	7c 01       	movw	r14, r24
    205e:	d8 01       	movw	r26, r16
    2060:	ed 91       	ld	r30, X+
    2062:	fc 91       	ld	r31, X
    2064:	04 80       	ldd	r0, Z+4	; 0x04
    2066:	f5 81       	ldd	r31, Z+5	; 0x05
    2068:	e0 2d       	mov	r30, r0
    206a:	c8 01       	movw	r24, r16
    206c:	09 95       	icall
    206e:	e8 0e       	add	r14, r24
    2070:	f1 1c       	adc	r15, r1
    2072:	f7 01       	movw	r30, r14
    2074:	80 81       	ld	r24, Z
    2076:	1f 91       	pop	r17
    2078:	0f 91       	pop	r16
    207a:	ff 90       	pop	r15
    207c:	ef 90       	pop	r14
    207e:	08 95       	ret

00002080 <_ZN16TxStatusResponse9getStatusEv>:
    2080:	0e 94 5a 0f 	call	0x1eb4	; 0x1eb4 <_ZN12XBeeResponse12getFrameDataEv>
    2084:	fc 01       	movw	r30, r24
    2086:	81 81       	ldd	r24, Z+1	; 0x01
    2088:	08 95       	ret

0000208a <_ZN16TxStatusResponse9isSuccessEv>:
    208a:	0e 94 40 10 	call	0x2080	; 0x2080 <_ZN16TxStatusResponse9getStatusEv>
    208e:	90 e0       	ldi	r25, 0x00	; 0
    2090:	88 23       	and	r24, r24
    2092:	09 f4       	brne	.+2      	; 0x2096 <_ZN16TxStatusResponse9isSuccessEv+0xc>
    2094:	91 e0       	ldi	r25, 0x01	; 1
    2096:	89 2f       	mov	r24, r25
    2098:	08 95       	ret

0000209a <_ZN20Rx16IoSampleResponse18getRemoteAddress16Ev>:
    209a:	02 96       	adiw	r24, 0x02	; 2
    209c:	0e 94 5a 0f 	call	0x1eb4	; 0x1eb4 <_ZN12XBeeResponse12getFrameDataEv>
    20a0:	fc 01       	movw	r30, r24
    20a2:	81 81       	ldd	r24, Z+1	; 0x01
    20a4:	30 81       	ld	r19, Z
    20a6:	20 e0       	ldi	r18, 0x00	; 0
    20a8:	28 0f       	add	r18, r24
    20aa:	31 1d       	adc	r19, r1
    20ac:	c9 01       	movw	r24, r18
    20ae:	08 95       	ret

000020b0 <_ZN22RxIoSampleBaseResponse11isDigitalOnEhh>:
    20b0:	ff 92       	push	r15
    20b2:	0f 93       	push	r16
    20b4:	1f 93       	push	r17
    20b6:	cf 93       	push	r28
    20b8:	df 93       	push	r29
    20ba:	ec 01       	movw	r28, r24
    20bc:	f6 2e       	mov	r15, r22
    20be:	02 96       	adiw	r24, 0x02	; 2
    20c0:	27 e0       	ldi	r18, 0x07	; 7
    20c2:	26 17       	cp	r18, r22
    20c4:	88 f0       	brcs	.+34     	; 0x20e8 <_ZN22RxIoSampleBaseResponse11isDigitalOnEhh+0x38>
    20c6:	0e 94 5a 0f 	call	0x1eb4	; 0x1eb4 <_ZN12XBeeResponse12getFrameDataEv>
    20ca:	8c 01       	movw	r16, r24
    20cc:	ce 01       	movw	r24, r28
    20ce:	0e 94 7a 0e 	call	0x1cf4	; 0x1cf4 <_ZN22RxIoSampleBaseResponse15getSampleOffsetEv>
    20d2:	08 0f       	add	r16, r24
    20d4:	11 1d       	adc	r17, r1
    20d6:	f8 01       	movw	r30, r16
    20d8:	84 81       	ldd	r24, Z+4	; 0x04
    20da:	90 e0       	ldi	r25, 0x00	; 0
    20dc:	02 c0       	rjmp	.+4      	; 0x20e2 <_ZN22RxIoSampleBaseResponse11isDigitalOnEhh+0x32>
    20de:	95 95       	asr	r25
    20e0:	87 95       	ror	r24
    20e2:	fa 94       	dec	r15
    20e4:	e2 f7       	brpl	.-8      	; 0x20de <_ZN22RxIoSampleBaseResponse11isDigitalOnEhh+0x2e>
    20e6:	0a c0       	rjmp	.+20     	; 0x20fc <_ZN22RxIoSampleBaseResponse11isDigitalOnEhh+0x4c>
    20e8:	0e 94 5a 0f 	call	0x1eb4	; 0x1eb4 <_ZN12XBeeResponse12getFrameDataEv>
    20ec:	8c 01       	movw	r16, r24
    20ee:	ce 01       	movw	r24, r28
    20f0:	0e 94 7a 0e 	call	0x1cf4	; 0x1cf4 <_ZN22RxIoSampleBaseResponse15getSampleOffsetEv>
    20f4:	08 0f       	add	r16, r24
    20f6:	11 1d       	adc	r17, r1
    20f8:	f8 01       	movw	r30, r16
    20fa:	83 81       	ldd	r24, Z+3	; 0x03
    20fc:	81 70       	andi	r24, 0x01	; 1
    20fe:	df 91       	pop	r29
    2100:	cf 91       	pop	r28
    2102:	1f 91       	pop	r17
    2104:	0f 91       	pop	r16
    2106:	ff 90       	pop	r15
    2108:	08 95       	ret

0000210a <_ZN22RxIoSampleBaseResponse16isDigitalEnabledEh>:
    210a:	ff 92       	push	r15
    210c:	0f 93       	push	r16
    210e:	1f 93       	push	r17
    2110:	cf 93       	push	r28
    2112:	df 93       	push	r29
    2114:	ec 01       	movw	r28, r24
    2116:	f6 2e       	mov	r15, r22
    2118:	02 96       	adiw	r24, 0x02	; 2
    211a:	27 e0       	ldi	r18, 0x07	; 7
    211c:	26 17       	cp	r18, r22
    211e:	88 f0       	brcs	.+34     	; 0x2142 <_ZN22RxIoSampleBaseResponse16isDigitalEnabledEh+0x38>
    2120:	0e 94 5a 0f 	call	0x1eb4	; 0x1eb4 <_ZN12XBeeResponse12getFrameDataEv>
    2124:	8c 01       	movw	r16, r24
    2126:	ce 01       	movw	r24, r28
    2128:	0e 94 7a 0e 	call	0x1cf4	; 0x1cf4 <_ZN22RxIoSampleBaseResponse15getSampleOffsetEv>
    212c:	08 0f       	add	r16, r24
    212e:	11 1d       	adc	r17, r1
    2130:	f8 01       	movw	r30, r16
    2132:	84 81       	ldd	r24, Z+4	; 0x04
    2134:	90 e0       	ldi	r25, 0x00	; 0
    2136:	02 c0       	rjmp	.+4      	; 0x213c <_ZN22RxIoSampleBaseResponse16isDigitalEnabledEh+0x32>
    2138:	95 95       	asr	r25
    213a:	87 95       	ror	r24
    213c:	fa 94       	dec	r15
    213e:	e2 f7       	brpl	.-8      	; 0x2138 <_ZN22RxIoSampleBaseResponse16isDigitalEnabledEh+0x2e>
    2140:	0a c0       	rjmp	.+20     	; 0x2156 <_ZN22RxIoSampleBaseResponse16isDigitalEnabledEh+0x4c>
    2142:	0e 94 5a 0f 	call	0x1eb4	; 0x1eb4 <_ZN12XBeeResponse12getFrameDataEv>
    2146:	8c 01       	movw	r16, r24
    2148:	ce 01       	movw	r24, r28
    214a:	0e 94 7a 0e 	call	0x1cf4	; 0x1cf4 <_ZN22RxIoSampleBaseResponse15getSampleOffsetEv>
    214e:	08 0f       	add	r16, r24
    2150:	11 1d       	adc	r17, r1
    2152:	f8 01       	movw	r30, r16
    2154:	83 81       	ldd	r24, Z+3	; 0x03
    2156:	81 70       	andi	r24, 0x01	; 1
    2158:	df 91       	pop	r29
    215a:	cf 91       	pop	r28
    215c:	1f 91       	pop	r17
    215e:	0f 91       	pop	r16
    2160:	ff 90       	pop	r15
    2162:	08 95       	ret

00002164 <_ZN22RxIoSampleBaseResponse15isAnalogEnabledEh>:
    2164:	cf 92       	push	r12
    2166:	df 92       	push	r13
    2168:	ef 92       	push	r14
    216a:	ff 92       	push	r15
    216c:	0f 93       	push	r16
    216e:	1f 93       	push	r17
    2170:	6c 01       	movw	r12, r24
    2172:	e6 2e       	mov	r14, r22
    2174:	02 96       	adiw	r24, 0x02	; 2
    2176:	0e 94 5a 0f 	call	0x1eb4	; 0x1eb4 <_ZN12XBeeResponse12getFrameDataEv>
    217a:	8c 01       	movw	r16, r24
    217c:	c6 01       	movw	r24, r12
    217e:	0e 94 7a 0e 	call	0x1cf4	; 0x1cf4 <_ZN22RxIoSampleBaseResponse15getSampleOffsetEv>
    2182:	08 0f       	add	r16, r24
    2184:	11 1d       	adc	r17, r1
    2186:	f8 01       	movw	r30, r16
    2188:	81 81       	ldd	r24, Z+1	; 0x01
    218a:	90 e0       	ldi	r25, 0x00	; 0
    218c:	ff 24       	eor	r15, r15
    218e:	08 94       	sec
    2190:	e1 1c       	adc	r14, r1
    2192:	f1 1c       	adc	r15, r1
    2194:	02 c0       	rjmp	.+4      	; 0x219a <_ZN22RxIoSampleBaseResponse15isAnalogEnabledEh+0x36>
    2196:	95 95       	asr	r25
    2198:	87 95       	ror	r24
    219a:	ea 94       	dec	r14
    219c:	e2 f7       	brpl	.-8      	; 0x2196 <_ZN22RxIoSampleBaseResponse15isAnalogEnabledEh+0x32>
    219e:	81 70       	andi	r24, 0x01	; 1
    21a0:	1f 91       	pop	r17
    21a2:	0f 91       	pop	r16
    21a4:	ff 90       	pop	r15
    21a6:	ef 90       	pop	r14
    21a8:	df 90       	pop	r13
    21aa:	cf 90       	pop	r12
    21ac:	08 95       	ret

000021ae <_ZN22RxIoSampleBaseResponse15containsDigitalEv>:
    21ae:	ef 92       	push	r14
    21b0:	ff 92       	push	r15
    21b2:	0f 93       	push	r16
    21b4:	1f 93       	push	r17
    21b6:	cf 93       	push	r28
    21b8:	df 93       	push	r29
    21ba:	ec 01       	movw	r28, r24
    21bc:	42 e0       	ldi	r20, 0x02	; 2
    21be:	e4 2e       	mov	r14, r20
    21c0:	f1 2c       	mov	r15, r1
    21c2:	e8 0e       	add	r14, r24
    21c4:	f9 1e       	adc	r15, r25
    21c6:	c7 01       	movw	r24, r14
    21c8:	0e 94 5a 0f 	call	0x1eb4	; 0x1eb4 <_ZN12XBeeResponse12getFrameDataEv>
    21cc:	8c 01       	movw	r16, r24
    21ce:	ce 01       	movw	r24, r28
    21d0:	0e 94 7a 0e 	call	0x1cf4	; 0x1cf4 <_ZN22RxIoSampleBaseResponse15getSampleOffsetEv>
    21d4:	08 0f       	add	r16, r24
    21d6:	11 1d       	adc	r17, r1
    21d8:	f8 01       	movw	r30, r16
    21da:	81 81       	ldd	r24, Z+1	; 0x01
    21dc:	80 fd       	sbrc	r24, 0
    21de:	0c c0       	rjmp	.+24     	; 0x21f8 <_ZN22RxIoSampleBaseResponse15containsDigitalEv+0x4a>
    21e0:	c7 01       	movw	r24, r14
    21e2:	0e 94 5a 0f 	call	0x1eb4	; 0x1eb4 <_ZN12XBeeResponse12getFrameDataEv>
    21e6:	8c 01       	movw	r16, r24
    21e8:	ce 01       	movw	r24, r28
    21ea:	0e 94 7a 0e 	call	0x1cf4	; 0x1cf4 <_ZN22RxIoSampleBaseResponse15getSampleOffsetEv>
    21ee:	08 0f       	add	r16, r24
    21f0:	11 1d       	adc	r17, r1
    21f2:	f8 01       	movw	r30, r16
    21f4:	82 81       	ldd	r24, Z+2	; 0x02
    21f6:	81 11       	cpse	r24, r1
    21f8:	81 e0       	ldi	r24, 0x01	; 1
    21fa:	df 91       	pop	r29
    21fc:	cf 91       	pop	r28
    21fe:	1f 91       	pop	r17
    2200:	0f 91       	pop	r16
    2202:	ff 90       	pop	r15
    2204:	ef 90       	pop	r14
    2206:	08 95       	ret

00002208 <_ZN22RxIoSampleBaseResponse9getAnalogEhh>:
    2208:	8f 92       	push	r8
    220a:	9f 92       	push	r9
    220c:	af 92       	push	r10
    220e:	bf 92       	push	r11
    2210:	cf 92       	push	r12
    2212:	df 92       	push	r13
    2214:	ef 92       	push	r14
    2216:	ff 92       	push	r15
    2218:	0f 93       	push	r16
    221a:	1f 93       	push	r17
    221c:	cf 93       	push	r28
    221e:	df 93       	push	r29
    2220:	4c 01       	movw	r8, r24
    2222:	16 2f       	mov	r17, r22
    2224:	f4 2e       	mov	r15, r20
    2226:	0e 94 d7 10 	call	0x21ae	; 0x21ae <_ZN22RxIoSampleBaseResponse15containsDigitalEv>
    222a:	88 23       	and	r24, r24
    222c:	19 f4       	brne	.+6      	; 0x2234 <_ZN22RxIoSampleBaseResponse9getAnalogEhh+0x2c>
    222e:	e3 e0       	ldi	r30, 0x03	; 3
    2230:	ee 2e       	mov	r14, r30
    2232:	08 c0       	rjmp	.+16     	; 0x2244 <_ZN22RxIoSampleBaseResponse9getAnalogEhh+0x3c>
    2234:	8f 2d       	mov	r24, r15
    2236:	90 e0       	ldi	r25, 0x00	; 0
    2238:	01 96       	adiw	r24, 0x01	; 1
    223a:	88 0f       	add	r24, r24
    223c:	99 1f       	adc	r25, r25
    223e:	63 e0       	ldi	r22, 0x03	; 3
    2240:	e6 2e       	mov	r14, r22
    2242:	e8 0e       	add	r14, r24
    2244:	cc 24       	eor	r12, r12
    2246:	00 e0       	ldi	r16, 0x00	; 0
    2248:	c4 01       	movw	r24, r8
    224a:	60 2f       	mov	r22, r16
    224c:	0e 94 b2 10 	call	0x2164	; 0x2164 <_ZN22RxIoSampleBaseResponse15isAnalogEnabledEh>
    2250:	88 23       	and	r24, r24
    2252:	11 f0       	breq	.+4      	; 0x2258 <_ZN22RxIoSampleBaseResponse9getAnalogEhh+0x50>
    2254:	82 e0       	ldi	r24, 0x02	; 2
    2256:	c8 0e       	add	r12, r24
    2258:	0f 5f       	subi	r16, 0xFF	; 255
    225a:	06 30       	cpi	r16, 0x06	; 6
    225c:	a9 f7       	brne	.-22     	; 0x2248 <_ZN22RxIoSampleBaseResponse9getAnalogEhh+0x40>
    225e:	c0 e0       	ldi	r28, 0x00	; 0
    2260:	d0 e0       	ldi	r29, 0x00	; 0
    2262:	01 2f       	mov	r16, r17
    2264:	10 e0       	ldi	r17, 0x00	; 0
    2266:	09 c0       	rjmp	.+18     	; 0x227a <_ZN22RxIoSampleBaseResponse9getAnalogEhh+0x72>
    2268:	c4 01       	movw	r24, r8
    226a:	6c 2f       	mov	r22, r28
    226c:	0e 94 b2 10 	call	0x2164	; 0x2164 <_ZN22RxIoSampleBaseResponse15isAnalogEnabledEh>
    2270:	88 23       	and	r24, r24
    2272:	11 f0       	breq	.+4      	; 0x2278 <_ZN22RxIoSampleBaseResponse9getAnalogEhh+0x70>
    2274:	e2 e0       	ldi	r30, 0x02	; 2
    2276:	ee 0e       	add	r14, r30
    2278:	21 96       	adiw	r28, 0x01	; 1
    227a:	c0 17       	cp	r28, r16
    227c:	d1 07       	cpc	r29, r17
    227e:	a4 f3       	brlt	.-24     	; 0x2268 <_ZN22RxIoSampleBaseResponse9getAnalogEhh+0x60>
    2280:	52 e0       	ldi	r21, 0x02	; 2
    2282:	a5 2e       	mov	r10, r21
    2284:	b1 2c       	mov	r11, r1
    2286:	a8 0c       	add	r10, r8
    2288:	b9 1c       	adc	r11, r9
    228a:	c5 01       	movw	r24, r10
    228c:	0e 94 5a 0f 	call	0x1eb4	; 0x1eb4 <_ZN12XBeeResponse12getFrameDataEv>
    2290:	8c 01       	movw	r16, r24
    2292:	c4 01       	movw	r24, r8
    2294:	0e 94 7a 0e 	call	0x1cf4	; 0x1cf4 <_ZN22RxIoSampleBaseResponse15getSampleOffsetEv>
    2298:	cf 9c       	mul	r12, r15
    229a:	90 2d       	mov	r25, r0
    229c:	11 24       	eor	r1, r1
    229e:	e9 0e       	add	r14, r25
    22a0:	ce 2c       	mov	r12, r14
    22a2:	dd 24       	eor	r13, r13
    22a4:	0c 0d       	add	r16, r12
    22a6:	1d 1d       	adc	r17, r13
    22a8:	08 0f       	add	r16, r24
    22aa:	11 1d       	adc	r17, r1
    22ac:	f8 01       	movw	r30, r16
    22ae:	f0 80       	ld	r15, Z
    22b0:	ee 24       	eor	r14, r14
    22b2:	c5 01       	movw	r24, r10
    22b4:	0e 94 5a 0f 	call	0x1eb4	; 0x1eb4 <_ZN12XBeeResponse12getFrameDataEv>
    22b8:	8c 01       	movw	r16, r24
    22ba:	c4 01       	movw	r24, r8
    22bc:	0e 94 7a 0e 	call	0x1cf4	; 0x1cf4 <_ZN22RxIoSampleBaseResponse15getSampleOffsetEv>
    22c0:	0c 0d       	add	r16, r12
    22c2:	1d 1d       	adc	r17, r13
    22c4:	08 0f       	add	r16, r24
    22c6:	11 1d       	adc	r17, r1
    22c8:	f8 01       	movw	r30, r16
    22ca:	81 81       	ldd	r24, Z+1	; 0x01
    22cc:	e8 0e       	add	r14, r24
    22ce:	f1 1c       	adc	r15, r1
    22d0:	c7 01       	movw	r24, r14
    22d2:	df 91       	pop	r29
    22d4:	cf 91       	pop	r28
    22d6:	1f 91       	pop	r17
    22d8:	0f 91       	pop	r16
    22da:	ff 90       	pop	r15
    22dc:	ef 90       	pop	r14
    22de:	df 90       	pop	r13
    22e0:	cf 90       	pop	r12
    22e2:	bf 90       	pop	r11
    22e4:	af 90       	pop	r10
    22e6:	9f 90       	pop	r9
    22e8:	8f 90       	pop	r8
    22ea:	08 95       	ret

000022ec <_ZN22RxIoSampleBaseResponse14containsAnalogEv>:
    22ec:	ef 92       	push	r14
    22ee:	ff 92       	push	r15
    22f0:	0f 93       	push	r16
    22f2:	1f 93       	push	r17
    22f4:	7c 01       	movw	r14, r24
    22f6:	02 96       	adiw	r24, 0x02	; 2
    22f8:	0e 94 5a 0f 	call	0x1eb4	; 0x1eb4 <_ZN12XBeeResponse12getFrameDataEv>
    22fc:	8c 01       	movw	r16, r24
    22fe:	c7 01       	movw	r24, r14
    2300:	0e 94 7a 0e 	call	0x1cf4	; 0x1cf4 <_ZN22RxIoSampleBaseResponse15getSampleOffsetEv>
    2304:	90 e0       	ldi	r25, 0x00	; 0
    2306:	08 0f       	add	r16, r24
    2308:	11 1d       	adc	r17, r1
    230a:	f8 01       	movw	r30, r16
    230c:	81 81       	ldd	r24, Z+1	; 0x01
    230e:	8e 77       	andi	r24, 0x7E	; 126
    2310:	09 f0       	breq	.+2      	; 0x2314 <_ZN22RxIoSampleBaseResponse14containsAnalogEv+0x28>
    2312:	91 e0       	ldi	r25, 0x01	; 1
    2314:	89 2f       	mov	r24, r25
    2316:	1f 91       	pop	r17
    2318:	0f 91       	pop	r16
    231a:	ff 90       	pop	r15
    231c:	ef 90       	pop	r14
    231e:	08 95       	ret

00002320 <_ZN22RxIoSampleBaseResponse13getSampleSizeEv>:
    2320:	ef 92       	push	r14
    2322:	ff 92       	push	r15
    2324:	0f 93       	push	r16
    2326:	1f 93       	push	r17
    2328:	7c 01       	movw	r14, r24
    232a:	02 96       	adiw	r24, 0x02	; 2
    232c:	0e 94 5a 0f 	call	0x1eb4	; 0x1eb4 <_ZN12XBeeResponse12getFrameDataEv>
    2330:	8c 01       	movw	r16, r24
    2332:	c7 01       	movw	r24, r14
    2334:	0e 94 7a 0e 	call	0x1cf4	; 0x1cf4 <_ZN22RxIoSampleBaseResponse15getSampleOffsetEv>
    2338:	08 0f       	add	r16, r24
    233a:	11 1d       	adc	r17, r1
    233c:	f8 01       	movw	r30, r16
    233e:	80 81       	ld	r24, Z
    2340:	1f 91       	pop	r17
    2342:	0f 91       	pop	r16
    2344:	ff 90       	pop	r15
    2346:	ef 90       	pop	r14
    2348:	08 95       	ret

0000234a <_ZN12Rx16Response18getRemoteAddress16Ev>:
    234a:	02 96       	adiw	r24, 0x02	; 2
    234c:	0e 94 5a 0f 	call	0x1eb4	; 0x1eb4 <_ZN12XBeeResponse12getFrameDataEv>
    2350:	fc 01       	movw	r30, r24
    2352:	81 81       	ldd	r24, Z+1	; 0x01
    2354:	30 81       	ld	r19, Z
    2356:	20 e0       	ldi	r18, 0x00	; 0
    2358:	28 0f       	add	r18, r24
    235a:	31 1d       	adc	r19, r1
    235c:	c9 01       	movw	r24, r18
    235e:	08 95       	ret

00002360 <_ZN20ZBRxIoSampleResponse11isDigitalOnEh>:
    2360:	1f 93       	push	r17
    2362:	16 2f       	mov	r17, r22
    2364:	02 96       	adiw	r24, 0x02	; 2
    2366:	68 30       	cpi	r22, 0x08	; 8
    2368:	58 f4       	brcc	.+22     	; 0x2380 <_ZN20ZBRxIoSampleResponse11isDigitalOnEh+0x20>
    236a:	0e 94 5a 0f 	call	0x1eb4	; 0x1eb4 <_ZN12XBeeResponse12getFrameDataEv>
    236e:	fc 01       	movw	r30, r24
    2370:	80 89       	ldd	r24, Z+16	; 0x10
    2372:	90 e0       	ldi	r25, 0x00	; 0
    2374:	02 c0       	rjmp	.+4      	; 0x237a <_ZN20ZBRxIoSampleResponse11isDigitalOnEh+0x1a>
    2376:	95 95       	asr	r25
    2378:	87 95       	ror	r24
    237a:	1a 95       	dec	r17
    237c:	e2 f7       	brpl	.-8      	; 0x2376 <_ZN20ZBRxIoSampleResponse11isDigitalOnEh+0x16>
    237e:	0e c0       	rjmp	.+28     	; 0x239c <_ZN20ZBRxIoSampleResponse11isDigitalOnEh+0x3c>
    2380:	0e 94 5a 0f 	call	0x1eb4	; 0x1eb4 <_ZN12XBeeResponse12getFrameDataEv>
    2384:	fc 01       	movw	r30, r24
    2386:	27 85       	ldd	r18, Z+15	; 0x0f
    2388:	30 e0       	ldi	r19, 0x00	; 0
    238a:	81 2f       	mov	r24, r17
    238c:	90 e0       	ldi	r25, 0x00	; 0
    238e:	08 97       	sbiw	r24, 0x08	; 8
    2390:	02 c0       	rjmp	.+4      	; 0x2396 <_ZN20ZBRxIoSampleResponse11isDigitalOnEh+0x36>
    2392:	35 95       	asr	r19
    2394:	27 95       	ror	r18
    2396:	8a 95       	dec	r24
    2398:	e2 f7       	brpl	.-8      	; 0x2392 <_ZN20ZBRxIoSampleResponse11isDigitalOnEh+0x32>
    239a:	82 2f       	mov	r24, r18
    239c:	81 70       	andi	r24, 0x01	; 1
    239e:	1f 91       	pop	r17
    23a0:	08 95       	ret

000023a2 <_ZN20ZBRxIoSampleResponse13getAnalogMaskEv>:
    23a2:	02 96       	adiw	r24, 0x02	; 2
    23a4:	0e 94 5a 0f 	call	0x1eb4	; 0x1eb4 <_ZN12XBeeResponse12getFrameDataEv>
    23a8:	fc 01       	movw	r30, r24
    23aa:	86 85       	ldd	r24, Z+14	; 0x0e
    23ac:	8f 78       	andi	r24, 0x8F	; 143
    23ae:	08 95       	ret

000023b0 <_ZN20ZBRxIoSampleResponse15isAnalogEnabledEh>:
    23b0:	1f 93       	push	r17
    23b2:	16 2f       	mov	r17, r22
    23b4:	0e 94 d1 11 	call	0x23a2	; 0x23a2 <_ZN20ZBRxIoSampleResponse13getAnalogMaskEv>
    23b8:	90 e0       	ldi	r25, 0x00	; 0
    23ba:	02 c0       	rjmp	.+4      	; 0x23c0 <_ZN20ZBRxIoSampleResponse15isAnalogEnabledEh+0x10>
    23bc:	95 95       	asr	r25
    23be:	87 95       	ror	r24
    23c0:	1a 95       	dec	r17
    23c2:	e2 f7       	brpl	.-8      	; 0x23bc <_ZN20ZBRxIoSampleResponse15isAnalogEnabledEh+0xc>
    23c4:	81 70       	andi	r24, 0x01	; 1
    23c6:	1f 91       	pop	r17
    23c8:	08 95       	ret

000023ca <_ZN20ZBRxIoSampleResponse14containsAnalogEv>:
    23ca:	0e 94 d1 11 	call	0x23a2	; 0x23a2 <_ZN20ZBRxIoSampleResponse13getAnalogMaskEv>
    23ce:	81 11       	cpse	r24, r1
    23d0:	81 e0       	ldi	r24, 0x01	; 1
    23d2:	08 95       	ret

000023d4 <_ZN20ZBRxIoSampleResponse17getDigitalMaskLsbEv>:
    23d4:	02 96       	adiw	r24, 0x02	; 2
    23d6:	0e 94 5a 0f 	call	0x1eb4	; 0x1eb4 <_ZN12XBeeResponse12getFrameDataEv>
    23da:	fc 01       	movw	r30, r24
    23dc:	85 85       	ldd	r24, Z+13	; 0x0d
    23de:	08 95       	ret

000023e0 <_ZN20ZBRxIoSampleResponse17getDigitalMaskMsbEv>:
    23e0:	02 96       	adiw	r24, 0x02	; 2
    23e2:	0e 94 5a 0f 	call	0x1eb4	; 0x1eb4 <_ZN12XBeeResponse12getFrameDataEv>
    23e6:	fc 01       	movw	r30, r24
    23e8:	84 85       	ldd	r24, Z+12	; 0x0c
    23ea:	8c 71       	andi	r24, 0x1C	; 28
    23ec:	08 95       	ret

000023ee <_ZN20ZBRxIoSampleResponse16isDigitalEnabledEh>:
    23ee:	1f 93       	push	r17
    23f0:	16 2f       	mov	r17, r22
    23f2:	68 30       	cpi	r22, 0x08	; 8
    23f4:	48 f4       	brcc	.+18     	; 0x2408 <_ZN20ZBRxIoSampleResponse16isDigitalEnabledEh+0x1a>
    23f6:	0e 94 ea 11 	call	0x23d4	; 0x23d4 <_ZN20ZBRxIoSampleResponse17getDigitalMaskLsbEv>
    23fa:	90 e0       	ldi	r25, 0x00	; 0
    23fc:	02 c0       	rjmp	.+4      	; 0x2402 <_ZN20ZBRxIoSampleResponse16isDigitalEnabledEh+0x14>
    23fe:	95 95       	asr	r25
    2400:	87 95       	ror	r24
    2402:	1a 95       	dec	r17
    2404:	e2 f7       	brpl	.-8      	; 0x23fe <_ZN20ZBRxIoSampleResponse16isDigitalEnabledEh+0x10>
    2406:	0c c0       	rjmp	.+24     	; 0x2420 <_ZN20ZBRxIoSampleResponse16isDigitalEnabledEh+0x32>
    2408:	0e 94 f0 11 	call	0x23e0	; 0x23e0 <_ZN20ZBRxIoSampleResponse17getDigitalMaskMsbEv>
    240c:	90 e0       	ldi	r25, 0x00	; 0
    240e:	21 2f       	mov	r18, r17
    2410:	30 e0       	ldi	r19, 0x00	; 0
    2412:	28 50       	subi	r18, 0x08	; 8
    2414:	30 40       	sbci	r19, 0x00	; 0
    2416:	02 c0       	rjmp	.+4      	; 0x241c <_ZN20ZBRxIoSampleResponse16isDigitalEnabledEh+0x2e>
    2418:	95 95       	asr	r25
    241a:	87 95       	ror	r24
    241c:	2a 95       	dec	r18
    241e:	e2 f7       	brpl	.-8      	; 0x2418 <_ZN20ZBRxIoSampleResponse16isDigitalEnabledEh+0x2a>
    2420:	81 70       	andi	r24, 0x01	; 1
    2422:	1f 91       	pop	r17
    2424:	08 95       	ret

00002426 <_ZN20ZBRxIoSampleResponse15containsDigitalEv>:
    2426:	cf 93       	push	r28
    2428:	df 93       	push	r29
    242a:	ec 01       	movw	r28, r24
    242c:	0e 94 f0 11 	call	0x23e0	; 0x23e0 <_ZN20ZBRxIoSampleResponse17getDigitalMaskMsbEv>
    2430:	88 23       	and	r24, r24
    2432:	21 f4       	brne	.+8      	; 0x243c <_ZN20ZBRxIoSampleResponse15containsDigitalEv+0x16>
    2434:	ce 01       	movw	r24, r28
    2436:	0e 94 ea 11 	call	0x23d4	; 0x23d4 <_ZN20ZBRxIoSampleResponse17getDigitalMaskLsbEv>
    243a:	81 11       	cpse	r24, r1
    243c:	81 e0       	ldi	r24, 0x01	; 1
    243e:	df 91       	pop	r29
    2440:	cf 91       	pop	r28
    2442:	08 95       	ret

00002444 <_ZN20ZBRxIoSampleResponse9getAnalogEh>:
    2444:	cf 92       	push	r12
    2446:	df 92       	push	r13
    2448:	ff 92       	push	r15
    244a:	0f 93       	push	r16
    244c:	1f 93       	push	r17
    244e:	cf 93       	push	r28
    2450:	df 93       	push	r29
    2452:	8c 01       	movw	r16, r24
    2454:	d6 2e       	mov	r13, r22
    2456:	0e 94 13 12 	call	0x2426	; 0x2426 <_ZN20ZBRxIoSampleResponse15containsDigitalEv>
    245a:	88 23       	and	r24, r24
    245c:	19 f0       	breq	.+6      	; 0x2464 <_ZN20ZBRxIoSampleResponse9getAnalogEh+0x20>
    245e:	a1 e1       	ldi	r26, 0x11	; 17
    2460:	fa 2e       	mov	r15, r26
    2462:	02 c0       	rjmp	.+4      	; 0x2468 <_ZN20ZBRxIoSampleResponse9getAnalogEh+0x24>
    2464:	ff e0       	ldi	r31, 0x0F	; 15
    2466:	ff 2e       	mov	r15, r31
    2468:	c0 e0       	ldi	r28, 0x00	; 0
    246a:	d0 e0       	ldi	r29, 0x00	; 0
    246c:	cd 2c       	mov	r12, r13
    246e:	dd 24       	eor	r13, r13
    2470:	09 c0       	rjmp	.+18     	; 0x2484 <_ZN20ZBRxIoSampleResponse9getAnalogEh+0x40>
    2472:	c8 01       	movw	r24, r16
    2474:	6c 2f       	mov	r22, r28
    2476:	0e 94 d8 11 	call	0x23b0	; 0x23b0 <_ZN20ZBRxIoSampleResponse15isAnalogEnabledEh>
    247a:	88 23       	and	r24, r24
    247c:	11 f0       	breq	.+4      	; 0x2482 <_ZN20ZBRxIoSampleResponse9getAnalogEh+0x3e>
    247e:	82 e0       	ldi	r24, 0x02	; 2
    2480:	f8 0e       	add	r15, r24
    2482:	21 96       	adiw	r28, 0x01	; 1
    2484:	cc 15       	cp	r28, r12
    2486:	dd 05       	cpc	r29, r13
    2488:	a4 f3       	brlt	.-24     	; 0x2472 <_ZN20ZBRxIoSampleResponse9getAnalogEh+0x2e>
    248a:	c8 01       	movw	r24, r16
    248c:	02 96       	adiw	r24, 0x02	; 2
    248e:	0e 94 5a 0f 	call	0x1eb4	; 0x1eb4 <_ZN12XBeeResponse12getFrameDataEv>
    2492:	fc 01       	movw	r30, r24
    2494:	ef 0d       	add	r30, r15
    2496:	f1 1d       	adc	r31, r1
    2498:	81 81       	ldd	r24, Z+1	; 0x01
    249a:	30 81       	ld	r19, Z
    249c:	20 e0       	ldi	r18, 0x00	; 0
    249e:	28 0f       	add	r18, r24
    24a0:	31 1d       	adc	r19, r1
    24a2:	c9 01       	movw	r24, r18
    24a4:	df 91       	pop	r29
    24a6:	cf 91       	pop	r28
    24a8:	1f 91       	pop	r17
    24aa:	0f 91       	pop	r16
    24ac:	ff 90       	pop	r15
    24ae:	df 90       	pop	r13
    24b0:	cf 90       	pop	r12
    24b2:	08 95       	ret

000024b4 <_ZN12ZBRxResponse9getOptionEv>:
    24b4:	02 96       	adiw	r24, 0x02	; 2
    24b6:	0e 94 5a 0f 	call	0x1eb4	; 0x1eb4 <_ZN12XBeeResponse12getFrameDataEv>
    24ba:	fc 01       	movw	r30, r24
    24bc:	82 85       	ldd	r24, Z+10	; 0x0a
    24be:	08 95       	ret

000024c0 <_ZN12ZBRxResponse18getRemoteAddress16Ev>:
    24c0:	02 96       	adiw	r24, 0x02	; 2
    24c2:	0e 94 5a 0f 	call	0x1eb4	; 0x1eb4 <_ZN12XBeeResponse12getFrameDataEv>
    24c6:	fc 01       	movw	r30, r24
    24c8:	30 85       	ldd	r19, Z+8	; 0x08
    24ca:	20 e0       	ldi	r18, 0x00	; 0
    24cc:	81 85       	ldd	r24, Z+9	; 0x09
    24ce:	28 0f       	add	r18, r24
    24d0:	31 1d       	adc	r19, r1
    24d2:	c9 01       	movw	r24, r18
    24d4:	08 95       	ret

000024d6 <_ZN18ZBTxStatusResponse18getDiscoveryStatusEv>:
    24d6:	0e 94 5a 0f 	call	0x1eb4	; 0x1eb4 <_ZN12XBeeResponse12getFrameDataEv>
    24da:	fc 01       	movw	r30, r24
    24dc:	85 81       	ldd	r24, Z+5	; 0x05
    24de:	08 95       	ret

000024e0 <_ZN18ZBTxStatusResponse17getDeliveryStatusEv>:
    24e0:	0e 94 5a 0f 	call	0x1eb4	; 0x1eb4 <_ZN12XBeeResponse12getFrameDataEv>
    24e4:	fc 01       	movw	r30, r24
    24e6:	84 81       	ldd	r24, Z+4	; 0x04
    24e8:	08 95       	ret

000024ea <_ZN18ZBTxStatusResponse9isSuccessEv>:
    24ea:	0e 94 70 12 	call	0x24e0	; 0x24e0 <_ZN18ZBTxStatusResponse17getDeliveryStatusEv>
    24ee:	90 e0       	ldi	r25, 0x00	; 0
    24f0:	88 23       	and	r24, r24
    24f2:	09 f4       	brne	.+2      	; 0x24f6 <_ZN18ZBTxStatusResponse9isSuccessEv+0xc>
    24f4:	91 e0       	ldi	r25, 0x01	; 1
    24f6:	89 2f       	mov	r24, r25
    24f8:	08 95       	ret

000024fa <_ZN18ZBTxStatusResponse15getTxRetryCountEv>:
    24fa:	0e 94 5a 0f 	call	0x1eb4	; 0x1eb4 <_ZN12XBeeResponse12getFrameDataEv>
    24fe:	fc 01       	movw	r30, r24
    2500:	83 81       	ldd	r24, Z+3	; 0x03
    2502:	08 95       	ret

00002504 <_ZN18ZBTxStatusResponse16getRemoteAddressEv>:
    2504:	0e 94 5a 0f 	call	0x1eb4	; 0x1eb4 <_ZN12XBeeResponse12getFrameDataEv>
    2508:	fc 01       	movw	r30, r24
    250a:	31 81       	ldd	r19, Z+1	; 0x01
    250c:	20 e0       	ldi	r18, 0x00	; 0
    250e:	82 81       	ldd	r24, Z+2	; 0x02
    2510:	28 0f       	add	r18, r24
    2512:	31 1d       	adc	r19, r1
    2514:	c9 01       	movw	r24, r18
    2516:	08 95       	ret

00002518 <_ZN12XBeeResponse12setFrameDataEPh>:
    2518:	fc 01       	movw	r30, r24
    251a:	71 83       	std	Z+1, r23	; 0x01
    251c:	60 83       	st	Z, r22
    251e:	08 95       	ret

00002520 <_ZN12XBeeResponse20getAtCommandResponseERS_>:
    2520:	ef 92       	push	r14
    2522:	ff 92       	push	r15
    2524:	0f 93       	push	r16
    2526:	1f 93       	push	r17
    2528:	8c 01       	movw	r16, r24
    252a:	7b 01       	movw	r14, r22
    252c:	0e 94 5a 0f 	call	0x1eb4	; 0x1eb4 <_ZN12XBeeResponse12getFrameDataEv>
    2530:	bc 01       	movw	r22, r24
    2532:	c7 01       	movw	r24, r14
    2534:	0e 94 8c 12 	call	0x2518	; 0x2518 <_ZN12XBeeResponse12setFrameDataEPh>
    2538:	c8 01       	movw	r24, r16
    253a:	b7 01       	movw	r22, r14
    253c:	0e 94 33 0e 	call	0x1c66	; 0x1c66 <_ZN12XBeeResponse9setCommonERS_>
    2540:	1f 91       	pop	r17
    2542:	0f 91       	pop	r16
    2544:	ff 90       	pop	r15
    2546:	ef 90       	pop	r14
    2548:	08 95       	ret

0000254a <_ZN12XBeeResponse22getModemStatusResponseERS_>:
    254a:	ef 92       	push	r14
    254c:	ff 92       	push	r15
    254e:	0f 93       	push	r16
    2550:	1f 93       	push	r17
    2552:	8c 01       	movw	r16, r24
    2554:	7b 01       	movw	r14, r22
    2556:	0e 94 5a 0f 	call	0x1eb4	; 0x1eb4 <_ZN12XBeeResponse12getFrameDataEv>
    255a:	bc 01       	movw	r22, r24
    255c:	c7 01       	movw	r24, r14
    255e:	0e 94 8c 12 	call	0x2518	; 0x2518 <_ZN12XBeeResponse12setFrameDataEPh>
    2562:	c8 01       	movw	r24, r16
    2564:	b7 01       	movw	r22, r14
    2566:	0e 94 33 0e 	call	0x1c66	; 0x1c66 <_ZN12XBeeResponse9setCommonERS_>
    256a:	1f 91       	pop	r17
    256c:	0f 91       	pop	r16
    256e:	ff 90       	pop	r15
    2570:	ef 90       	pop	r14
    2572:	08 95       	ret

00002574 <_ZN12XBeeResponse15getRx16ResponseERS_>:
    2574:	ef 92       	push	r14
    2576:	ff 92       	push	r15
    2578:	0f 93       	push	r16
    257a:	1f 93       	push	r17
    257c:	8c 01       	movw	r16, r24
    257e:	7b 01       	movw	r14, r22
    2580:	0e 94 5a 0f 	call	0x1eb4	; 0x1eb4 <_ZN12XBeeResponse12getFrameDataEv>
    2584:	bc 01       	movw	r22, r24
    2586:	c7 01       	movw	r24, r14
    2588:	0e 94 8c 12 	call	0x2518	; 0x2518 <_ZN12XBeeResponse12setFrameDataEPh>
    258c:	c8 01       	movw	r24, r16
    258e:	b7 01       	movw	r22, r14
    2590:	0e 94 33 0e 	call	0x1c66	; 0x1c66 <_ZN12XBeeResponse9setCommonERS_>
    2594:	1f 91       	pop	r17
    2596:	0f 91       	pop	r16
    2598:	ff 90       	pop	r15
    259a:	ef 90       	pop	r14
    259c:	08 95       	ret

0000259e <_ZN12XBeeResponse19getTxStatusResponseERS_>:
    259e:	ef 92       	push	r14
    25a0:	ff 92       	push	r15
    25a2:	0f 93       	push	r16
    25a4:	1f 93       	push	r17
    25a6:	8c 01       	movw	r16, r24
    25a8:	7b 01       	movw	r14, r22
    25aa:	0e 94 5a 0f 	call	0x1eb4	; 0x1eb4 <_ZN12XBeeResponse12getFrameDataEv>
    25ae:	bc 01       	movw	r22, r24
    25b0:	c7 01       	movw	r24, r14
    25b2:	0e 94 8c 12 	call	0x2518	; 0x2518 <_ZN12XBeeResponse12setFrameDataEPh>
    25b6:	c8 01       	movw	r24, r16
    25b8:	b7 01       	movw	r22, r14
    25ba:	0e 94 33 0e 	call	0x1c66	; 0x1c66 <_ZN12XBeeResponse9setCommonERS_>
    25be:	1f 91       	pop	r17
    25c0:	0f 91       	pop	r16
    25c2:	ff 90       	pop	r15
    25c4:	ef 90       	pop	r14
    25c6:	08 95       	ret

000025c8 <_ZN12XBeeResponse23getRx16IoSampleResponseERS_>:
    25c8:	ef 92       	push	r14
    25ca:	ff 92       	push	r15
    25cc:	0f 93       	push	r16
    25ce:	1f 93       	push	r17
    25d0:	8c 01       	movw	r16, r24
    25d2:	7b 01       	movw	r14, r22
    25d4:	0e 94 5a 0f 	call	0x1eb4	; 0x1eb4 <_ZN12XBeeResponse12getFrameDataEv>
    25d8:	bc 01       	movw	r22, r24
    25da:	c7 01       	movw	r24, r14
    25dc:	0e 94 8c 12 	call	0x2518	; 0x2518 <_ZN12XBeeResponse12setFrameDataEPh>
    25e0:	c8 01       	movw	r24, r16
    25e2:	b7 01       	movw	r22, r14
    25e4:	0e 94 33 0e 	call	0x1c66	; 0x1c66 <_ZN12XBeeResponse9setCommonERS_>
    25e8:	1f 91       	pop	r17
    25ea:	0f 91       	pop	r16
    25ec:	ff 90       	pop	r15
    25ee:	ef 90       	pop	r14
    25f0:	08 95       	ret

000025f2 <_ZN12XBeeResponse21getZBTxStatusResponseERS_>:
    25f2:	ef 92       	push	r14
    25f4:	ff 92       	push	r15
    25f6:	0f 93       	push	r16
    25f8:	1f 93       	push	r17
    25fa:	8c 01       	movw	r16, r24
    25fc:	7b 01       	movw	r14, r22
    25fe:	0e 94 5a 0f 	call	0x1eb4	; 0x1eb4 <_ZN12XBeeResponse12getFrameDataEv>
    2602:	bc 01       	movw	r22, r24
    2604:	c7 01       	movw	r24, r14
    2606:	0e 94 8c 12 	call	0x2518	; 0x2518 <_ZN12XBeeResponse12setFrameDataEPh>
    260a:	c8 01       	movw	r24, r16
    260c:	b7 01       	movw	r22, r14
    260e:	0e 94 33 0e 	call	0x1c66	; 0x1c66 <_ZN12XBeeResponse9setCommonERS_>
    2612:	1f 91       	pop	r17
    2614:	0f 91       	pop	r16
    2616:	ff 90       	pop	r15
    2618:	ef 90       	pop	r14
    261a:	08 95       	ret

0000261c <_ZN12XBeeResponse4initEv>:
    261c:	fc 01       	movw	r30, r24
    261e:	17 82       	std	Z+7, r1	; 0x07
    2620:	10 86       	std	Z+8, r1	; 0x08
    2622:	15 82       	std	Z+5, r1	; 0x05
    2624:	08 95       	ret

00002626 <_ZN12XBeeResponse5resetEv>:
    2626:	0f 93       	push	r16
    2628:	1f 93       	push	r17
    262a:	cf 93       	push	r28
    262c:	df 93       	push	r29
    262e:	ec 01       	movw	r28, r24
    2630:	0e 94 0e 13 	call	0x261c	; 0x261c <_ZN12XBeeResponse4initEv>
    2634:	1a 82       	std	Y+2, r1	; 0x02
    2636:	1b 82       	std	Y+3, r1	; 0x03
    2638:	1c 82       	std	Y+4, r1	; 0x04
    263a:	1d 82       	std	Y+5, r1	; 0x05
    263c:	1e 82       	std	Y+6, r1	; 0x06
    263e:	18 86       	std	Y+8, r1	; 0x08
    2640:	00 e0       	ldi	r16, 0x00	; 0
    2642:	10 e0       	ldi	r17, 0x00	; 0
    2644:	ce 01       	movw	r24, r28
    2646:	0e 94 5a 0f 	call	0x1eb4	; 0x1eb4 <_ZN12XBeeResponse12getFrameDataEv>
    264a:	fc 01       	movw	r30, r24
    264c:	e0 0f       	add	r30, r16
    264e:	f1 1f       	adc	r31, r17
    2650:	10 82       	st	Z, r1
    2652:	0f 5f       	subi	r16, 0xFF	; 255
    2654:	1f 4f       	sbci	r17, 0xFF	; 255
    2656:	0e 36       	cpi	r16, 0x6E	; 110
    2658:	11 05       	cpc	r17, r1
    265a:	a1 f7       	brne	.-24     	; 0x2644 <_ZN12XBeeResponse5resetEv+0x1e>
    265c:	df 91       	pop	r29
    265e:	cf 91       	pop	r28
    2660:	1f 91       	pop	r17
    2662:	0f 91       	pop	r16
    2664:	08 95       	ret

00002666 <_ZN4XBee13resetResponseEv>:
    2666:	fc 01       	movw	r30, r24
    2668:	12 86       	std	Z+10, r1	; 0x0a
    266a:	11 86       	std	Z+9, r1	; 0x09
    266c:	0e 94 13 13 	call	0x2626	; 0x2626 <_ZN12XBeeResponse5resetEv>
    2670:	08 95       	ret

00002672 <_ZN4XBeeC2Ev>:
    2672:	0f 93       	push	r16
    2674:	1f 93       	push	r17
    2676:	8c 01       	movw	r16, r24
    2678:	fc 01       	movw	r30, r24
    267a:	12 86       	std	Z+10, r1	; 0x0a
    267c:	11 86       	std	Z+9, r1	; 0x09
    267e:	14 86       	std	Z+12, r1	; 0x0c
    2680:	15 86       	std	Z+13, r1	; 0x0d
    2682:	0e 94 0e 13 	call	0x261c	; 0x261c <_ZN12XBeeResponse4initEv>
    2686:	c8 01       	movw	r24, r16
    2688:	02 5f       	subi	r16, 0xF2	; 242
    268a:	1f 4f       	sbci	r17, 0xFF	; 255
    268c:	b8 01       	movw	r22, r16
    268e:	0e 94 8c 12 	call	0x2518	; 0x2518 <_ZN12XBeeResponse12setFrameDataEPh>
    2692:	00 59       	subi	r16, 0x90	; 144
    2694:	1f 4f       	sbci	r17, 0xFF	; 255
    2696:	f8 01       	movw	r30, r16
    2698:	10 82       	st	Z, r1
    269a:	12 92       	st	-Z, r1
    269c:	12 92       	st	-Z, r1
    269e:	1f 91       	pop	r17
    26a0:	0f 91       	pop	r16
    26a2:	08 95       	ret

000026a4 <_ZN4XBeeC1Ev>:
    26a4:	0f 93       	push	r16
    26a6:	1f 93       	push	r17
    26a8:	8c 01       	movw	r16, r24
    26aa:	fc 01       	movw	r30, r24
    26ac:	12 86       	std	Z+10, r1	; 0x0a
    26ae:	11 86       	std	Z+9, r1	; 0x09
    26b0:	14 86       	std	Z+12, r1	; 0x0c
    26b2:	15 86       	std	Z+13, r1	; 0x0d
    26b4:	0e 94 0e 13 	call	0x261c	; 0x261c <_ZN12XBeeResponse4initEv>
    26b8:	c8 01       	movw	r24, r16
    26ba:	02 5f       	subi	r16, 0xF2	; 242
    26bc:	1f 4f       	sbci	r17, 0xFF	; 255
    26be:	b8 01       	movw	r22, r16
    26c0:	0e 94 8c 12 	call	0x2518	; 0x2518 <_ZN12XBeeResponse12setFrameDataEPh>
    26c4:	00 59       	subi	r16, 0x90	; 144
    26c6:	1f 4f       	sbci	r17, 0xFF	; 255
    26c8:	f8 01       	movw	r30, r16
    26ca:	10 82       	st	Z, r1
    26cc:	12 92       	st	-Z, r1
    26ce:	12 92       	st	-Z, r1
    26d0:	1f 91       	pop	r17
    26d2:	0f 91       	pop	r16
    26d4:	08 95       	ret

000026d6 <_ZN4XBee14getNextFrameIdEv>:
    26d6:	fc 01       	movw	r30, r24
    26d8:	85 85       	ldd	r24, Z+13	; 0x0d
    26da:	8f 5f       	subi	r24, 0xFF	; 255
    26dc:	85 87       	std	Z+13, r24	; 0x0d
    26de:	88 23       	and	r24, r24
    26e0:	11 f4       	brne	.+4      	; 0x26e6 <_ZN4XBee14getNextFrameIdEv+0x10>
    26e2:	81 e0       	ldi	r24, 0x01	; 1
    26e4:	85 87       	std	Z+13, r24	; 0x0d
    26e6:	85 85       	ldd	r24, Z+13	; 0x0d
    26e8:	08 95       	ret

000026ea <_ZN4XBee9availableEv>:
    26ea:	fc 01       	movw	r30, r24
    26ec:	e4 58       	subi	r30, 0x84	; 132
    26ee:	ff 4f       	sbci	r31, 0xFF	; 255
    26f0:	a0 81       	ld	r26, Z
    26f2:	b1 81       	ldd	r27, Z+1	; 0x01
    26f4:	ed 91       	ld	r30, X+
    26f6:	fc 91       	ld	r31, X
    26f8:	11 97       	sbiw	r26, 0x01	; 1
    26fa:	06 80       	ldd	r0, Z+6	; 0x06
    26fc:	f7 81       	ldd	r31, Z+7	; 0x07
    26fe:	e0 2d       	mov	r30, r0
    2700:	cd 01       	movw	r24, r26
    2702:	09 95       	icall
    2704:	20 e0       	ldi	r18, 0x00	; 0
    2706:	89 2b       	or	r24, r25
    2708:	09 f0       	breq	.+2      	; 0x270c <_ZN4XBee9availableEv+0x22>
    270a:	21 e0       	ldi	r18, 0x01	; 1
    270c:	82 2f       	mov	r24, r18
    270e:	08 95       	ret

00002710 <_ZN4XBee4readEv>:
    2710:	fc 01       	movw	r30, r24
    2712:	e4 58       	subi	r30, 0x84	; 132
    2714:	ff 4f       	sbci	r31, 0xFF	; 255
    2716:	a0 81       	ld	r26, Z
    2718:	b1 81       	ldd	r27, Z+1	; 0x01
    271a:	ed 91       	ld	r30, X+
    271c:	fc 91       	ld	r31, X
    271e:	11 97       	sbiw	r26, 0x01	; 1
    2720:	00 84       	ldd	r0, Z+8	; 0x08
    2722:	f1 85       	ldd	r31, Z+9	; 0x09
    2724:	e0 2d       	mov	r30, r0
    2726:	cd 01       	movw	r24, r26
    2728:	09 95       	icall
    272a:	08 95       	ret

0000272c <_ZN4XBee5flushEv>:
    272c:	fc 01       	movw	r30, r24
    272e:	e4 58       	subi	r30, 0x84	; 132
    2730:	ff 4f       	sbci	r31, 0xFF	; 255
    2732:	a0 81       	ld	r26, Z
    2734:	b1 81       	ldd	r27, Z+1	; 0x01
    2736:	ed 91       	ld	r30, X+
    2738:	fc 91       	ld	r31, X
    273a:	11 97       	sbiw	r26, 0x01	; 1
    273c:	04 84       	ldd	r0, Z+12	; 0x0c
    273e:	f5 85       	ldd	r31, Z+13	; 0x0d
    2740:	e0 2d       	mov	r30, r0
    2742:	cd 01       	movw	r24, r26
    2744:	09 95       	icall
    2746:	08 95       	ret

00002748 <_ZN4XBee9setSerialER14HardwareSerial>:
    2748:	fc 01       	movw	r30, r24
    274a:	e4 58       	subi	r30, 0x84	; 132
    274c:	ff 4f       	sbci	r31, 0xFF	; 255
    274e:	61 93       	st	Z+, r22
    2750:	71 93       	st	Z+, r23
    2752:	10 82       	st	Z, r1
    2754:	08 95       	ret

00002756 <_ZN4XBee11getResponseEv>:
    2756:	08 95       	ret

00002758 <_ZN4XBee11getResponseER12XBeeResponse>:
    2758:	ef 92       	push	r14
    275a:	ff 92       	push	r15
    275c:	0f 93       	push	r16
    275e:	1f 93       	push	r17
    2760:	f8 2e       	mov	r15, r24
    2762:	e9 2e       	mov	r14, r25
    2764:	8b 01       	movw	r16, r22
    2766:	0e 94 0a 0e 	call	0x1c14	; 0x1c14 <_ZN12XBeeResponse12getMsbLengthEv>
    276a:	68 2f       	mov	r22, r24
    276c:	c8 01       	movw	r24, r16
    276e:	0e 94 0d 0e 	call	0x1c1a	; 0x1c1a <_ZN12XBeeResponse12setMsbLengthEh>
    2772:	8f 2d       	mov	r24, r15
    2774:	9e 2d       	mov	r25, r14
    2776:	0e 94 10 0e 	call	0x1c20	; 0x1c20 <_ZN12XBeeResponse12getLsbLengthEv>
    277a:	68 2f       	mov	r22, r24
    277c:	c8 01       	movw	r24, r16
    277e:	0e 94 13 0e 	call	0x1c26	; 0x1c26 <_ZN12XBeeResponse12setLsbLengthEh>
    2782:	8f 2d       	mov	r24, r15
    2784:	9e 2d       	mov	r25, r14
    2786:	0e 94 04 0e 	call	0x1c08	; 0x1c08 <_ZN12XBeeResponse8getApiIdEv>
    278a:	68 2f       	mov	r22, r24
    278c:	c8 01       	movw	r24, r16
    278e:	0e 94 07 0e 	call	0x1c0e	; 0x1c0e <_ZN12XBeeResponse8setApiIdEh>
    2792:	8f 2d       	mov	r24, r15
    2794:	9e 2d       	mov	r25, r14
    2796:	0e 94 1c 0e 	call	0x1c38	; 0x1c38 <_ZN12XBeeResponse18getFrameDataLengthEv>
    279a:	68 2f       	mov	r22, r24
    279c:	c8 01       	movw	r24, r16
    279e:	0e 94 1f 0e 	call	0x1c3e	; 0x1c3e <_ZN12XBeeResponse14setFrameLengthEh>
    27a2:	8f 2d       	mov	r24, r15
    27a4:	9e 2d       	mov	r25, r14
    27a6:	0e 94 5a 0f 	call	0x1eb4	; 0x1eb4 <_ZN12XBeeResponse12getFrameDataEv>
    27aa:	bc 01       	movw	r22, r24
    27ac:	c8 01       	movw	r24, r16
    27ae:	0e 94 8c 12 	call	0x2518	; 0x2518 <_ZN12XBeeResponse12setFrameDataEPh>
    27b2:	1f 91       	pop	r17
    27b4:	0f 91       	pop	r16
    27b6:	ff 90       	pop	r15
    27b8:	ef 90       	pop	r14
    27ba:	08 95       	ret

000027bc <_ZN4XBee10readPacketEv>:
    27bc:	cf 92       	push	r12
    27be:	df 92       	push	r13
    27c0:	ef 92       	push	r14
    27c2:	ff 92       	push	r15
    27c4:	0f 93       	push	r16
    27c6:	1f 93       	push	r17
    27c8:	cf 93       	push	r28
    27ca:	df 93       	push	r29
    27cc:	ec 01       	movw	r28, r24
    27ce:	f8 2e       	mov	r15, r24
    27d0:	ed 2e       	mov	r14, r29
    27d2:	0e 94 22 0e 	call	0x1c44	; 0x1c44 <_ZN12XBeeResponse11isAvailableEv>
    27d6:	88 23       	and	r24, r24
    27d8:	31 f4       	brne	.+12     	; 0x27e6 <_ZN4XBee10readPacketEv+0x2a>
    27da:	ce 01       	movw	r24, r28
    27dc:	0e 94 28 0e 	call	0x1c50	; 0x1c50 <_ZN12XBeeResponse7isErrorEv>
    27e0:	88 23       	and	r24, r24
    27e2:	09 f4       	brne	.+2      	; 0x27e6 <_ZN4XBee10readPacketEv+0x2a>
    27e4:	91 c0       	rjmp	.+290    	; 0x2908 <_ZN4XBee10readPacketEv+0x14c>
    27e6:	ce 01       	movw	r24, r28
    27e8:	0e 94 33 13 	call	0x2666	; 0x2666 <_ZN4XBee13resetResponseEv>
    27ec:	8d c0       	rjmp	.+282    	; 0x2908 <_ZN4XBee10readPacketEv+0x14c>
    27ee:	ce 01       	movw	r24, r28
    27f0:	0e 94 88 13 	call	0x2710	; 0x2710 <_ZN4XBee4readEv>
    27f4:	98 2f       	mov	r25, r24
    27f6:	8b 87       	std	Y+11, r24	; 0x0b
    27f8:	8a 85       	ldd	r24, Y+10	; 0x0a
    27fa:	88 23       	and	r24, r24
    27fc:	a9 f0       	breq	.+42     	; 0x2828 <_ZN4XBee10readPacketEv+0x6c>
    27fe:	9e 37       	cpi	r25, 0x7E	; 126
    2800:	21 f4       	brne	.+8      	; 0x280a <_ZN4XBee10readPacketEv+0x4e>
    2802:	8f 2d       	mov	r24, r15
    2804:	9e 2d       	mov	r25, r14
    2806:	63 e0       	ldi	r22, 0x03	; 3
    2808:	44 c0       	rjmp	.+136    	; 0x2892 <_ZN4XBee10readPacketEv+0xd6>
    280a:	9d 37       	cpi	r25, 0x7D	; 125
    280c:	69 f4       	brne	.+26     	; 0x2828 <_ZN4XBee10readPacketEv+0x6c>
    280e:	ce 01       	movw	r24, r28
    2810:	0e 94 75 13 	call	0x26ea	; 0x26ea <_ZN4XBee9availableEv>
    2814:	88 23       	and	r24, r24
    2816:	31 f0       	breq	.+12     	; 0x2824 <_ZN4XBee10readPacketEv+0x68>
    2818:	ce 01       	movw	r24, r28
    281a:	0e 94 88 13 	call	0x2710	; 0x2710 <_ZN4XBee4readEv>
    281e:	8d 25       	eor	r24, r13
    2820:	8b 87       	std	Y+11, r24	; 0x0b
    2822:	02 c0       	rjmp	.+4      	; 0x2828 <_ZN4XBee10readPacketEv+0x6c>
    2824:	c9 86       	std	Y+9, r12	; 0x09
    2826:	74 c0       	rjmp	.+232    	; 0x2910 <_ZN4XBee10readPacketEv+0x154>
    2828:	89 85       	ldd	r24, Y+9	; 0x09
    282a:	88 23       	and	r24, r24
    282c:	21 f0       	breq	.+8      	; 0x2836 <_ZN4XBee10readPacketEv+0x7a>
    282e:	8b 85       	ldd	r24, Y+11	; 0x0b
    2830:	8d 25       	eor	r24, r13
    2832:	8b 87       	std	Y+11, r24	; 0x0b
    2834:	19 86       	std	Y+9, r1	; 0x09
    2836:	8a 85       	ldd	r24, Y+10	; 0x0a
    2838:	83 30       	cpi	r24, 0x03	; 3
    283a:	20 f0       	brcs	.+8      	; 0x2844 <_ZN4XBee10readPacketEv+0x88>
    283c:	8c 85       	ldd	r24, Y+12	; 0x0c
    283e:	9b 85       	ldd	r25, Y+11	; 0x0b
    2840:	89 0f       	add	r24, r25
    2842:	8c 87       	std	Y+12, r24	; 0x0c
    2844:	8a 85       	ldd	r24, Y+10	; 0x0a
    2846:	81 30       	cpi	r24, 0x01	; 1
    2848:	69 f0       	breq	.+26     	; 0x2864 <_ZN4XBee10readPacketEv+0xa8>
    284a:	81 30       	cpi	r24, 0x01	; 1
    284c:	28 f0       	brcs	.+10     	; 0x2858 <_ZN4XBee10readPacketEv+0x9c>
    284e:	82 30       	cpi	r24, 0x02	; 2
    2850:	79 f0       	breq	.+30     	; 0x2870 <_ZN4XBee10readPacketEv+0xb4>
    2852:	83 30       	cpi	r24, 0x03	; 3
    2854:	c9 f4       	brne	.+50     	; 0x2888 <_ZN4XBee10readPacketEv+0xcc>
    2856:	12 c0       	rjmp	.+36     	; 0x287c <_ZN4XBee10readPacketEv+0xc0>
    2858:	8b 85       	ldd	r24, Y+11	; 0x0b
    285a:	8e 37       	cpi	r24, 0x7E	; 126
    285c:	09 f0       	breq	.+2      	; 0x2860 <_ZN4XBee10readPacketEv+0xa4>
    285e:	58 c0       	rjmp	.+176    	; 0x2910 <_ZN4XBee10readPacketEv+0x154>
    2860:	ca 86       	std	Y+10, r12	; 0x0a
    2862:	56 c0       	rjmp	.+172    	; 0x2910 <_ZN4XBee10readPacketEv+0x154>
    2864:	8f 2d       	mov	r24, r15
    2866:	9e 2d       	mov	r25, r14
    2868:	6b 85       	ldd	r22, Y+11	; 0x0b
    286a:	0e 94 0d 0e 	call	0x1c1a	; 0x1c1a <_ZN12XBeeResponse12setMsbLengthEh>
    286e:	48 c0       	rjmp	.+144    	; 0x2900 <_ZN4XBee10readPacketEv+0x144>
    2870:	8f 2d       	mov	r24, r15
    2872:	9e 2d       	mov	r25, r14
    2874:	6b 85       	ldd	r22, Y+11	; 0x0b
    2876:	0e 94 13 0e 	call	0x1c26	; 0x1c26 <_ZN12XBeeResponse12setLsbLengthEh>
    287a:	42 c0       	rjmp	.+132    	; 0x2900 <_ZN4XBee10readPacketEv+0x144>
    287c:	8f 2d       	mov	r24, r15
    287e:	9e 2d       	mov	r25, r14
    2880:	6b 85       	ldd	r22, Y+11	; 0x0b
    2882:	0e 94 07 0e 	call	0x1c0e	; 0x1c0e <_ZN12XBeeResponse8setApiIdEh>
    2886:	3c c0       	rjmp	.+120    	; 0x2900 <_ZN4XBee10readPacketEv+0x144>
    2888:	8f 36       	cpi	r24, 0x6F	; 111
    288a:	30 f0       	brcs	.+12     	; 0x2898 <_ZN4XBee10readPacketEv+0xdc>
    288c:	8f 2d       	mov	r24, r15
    288e:	9e 2d       	mov	r25, r14
    2890:	62 e0       	ldi	r22, 0x02	; 2
    2892:	0e 94 30 0e 	call	0x1c60	; 0x1c60 <_ZN12XBeeResponse12setErrorCodeEh>
    2896:	42 c0       	rjmp	.+132    	; 0x291c <_ZN4XBee10readPacketEv+0x160>
    2898:	08 2f       	mov	r16, r24
    289a:	10 e0       	ldi	r17, 0x00	; 0
    289c:	8f 2d       	mov	r24, r15
    289e:	9e 2d       	mov	r25, r14
    28a0:	0e 94 28 0f 	call	0x1e50	; 0x1e50 <_ZN12XBeeResponse15getPacketLengthEv>
    28a4:	03 96       	adiw	r24, 0x03	; 3
    28a6:	08 17       	cp	r16, r24
    28a8:	19 07       	cpc	r17, r25
    28aa:	f9 f4       	brne	.+62     	; 0x28ea <_ZN4XBee10readPacketEv+0x12e>
    28ac:	8c 85       	ldd	r24, Y+12	; 0x0c
    28ae:	8f 3f       	cpi	r24, 0xFF	; 255
    28b0:	71 f4       	brne	.+28     	; 0x28ce <_ZN4XBee10readPacketEv+0x112>
    28b2:	8f 2d       	mov	r24, r15
    28b4:	9e 2d       	mov	r25, r14
    28b6:	6b 85       	ldd	r22, Y+11	; 0x0b
    28b8:	0e 94 19 0e 	call	0x1c32	; 0x1c32 <_ZN12XBeeResponse11setChecksumEh>
    28bc:	8f 2d       	mov	r24, r15
    28be:	9e 2d       	mov	r25, r14
    28c0:	61 e0       	ldi	r22, 0x01	; 1
    28c2:	0e 94 25 0e 	call	0x1c4a	; 0x1c4a <_ZN12XBeeResponse12setAvailableEb>
    28c6:	8f 2d       	mov	r24, r15
    28c8:	9e 2d       	mov	r25, r14
    28ca:	60 e0       	ldi	r22, 0x00	; 0
    28cc:	03 c0       	rjmp	.+6      	; 0x28d4 <_ZN4XBee10readPacketEv+0x118>
    28ce:	8f 2d       	mov	r24, r15
    28d0:	9e 2d       	mov	r25, r14
    28d2:	61 e0       	ldi	r22, 0x01	; 1
    28d4:	0e 94 30 0e 	call	0x1c60	; 0x1c60 <_ZN12XBeeResponse12setErrorCodeEh>
    28d8:	6a 85       	ldd	r22, Y+10	; 0x0a
    28da:	64 50       	subi	r22, 0x04	; 4
    28dc:	8f 2d       	mov	r24, r15
    28de:	9e 2d       	mov	r25, r14
    28e0:	0e 94 1f 0e 	call	0x1c3e	; 0x1c3e <_ZN12XBeeResponse14setFrameLengthEh>
    28e4:	1a 86       	std	Y+10, r1	; 0x0a
    28e6:	1c 86       	std	Y+12, r1	; 0x0c
    28e8:	19 c0       	rjmp	.+50     	; 0x291c <_ZN4XBee10readPacketEv+0x160>
    28ea:	8f 2d       	mov	r24, r15
    28ec:	9e 2d       	mov	r25, r14
    28ee:	0e 94 5a 0f 	call	0x1eb4	; 0x1eb4 <_ZN12XBeeResponse12getFrameDataEv>
    28f2:	08 0f       	add	r16, r24
    28f4:	19 1f       	adc	r17, r25
    28f6:	04 50       	subi	r16, 0x04	; 4
    28f8:	10 40       	sbci	r17, 0x00	; 0
    28fa:	8b 85       	ldd	r24, Y+11	; 0x0b
    28fc:	f8 01       	movw	r30, r16
    28fe:	80 83       	st	Z, r24
    2900:	8a 85       	ldd	r24, Y+10	; 0x0a
    2902:	8f 5f       	subi	r24, 0xFF	; 255
    2904:	8a 87       	std	Y+10, r24	; 0x0a
    2906:	04 c0       	rjmp	.+8      	; 0x2910 <_ZN4XBee10readPacketEv+0x154>
    2908:	cc 24       	eor	r12, r12
    290a:	c3 94       	inc	r12
    290c:	b0 e2       	ldi	r27, 0x20	; 32
    290e:	db 2e       	mov	r13, r27
    2910:	ce 01       	movw	r24, r28
    2912:	0e 94 75 13 	call	0x26ea	; 0x26ea <_ZN4XBee9availableEv>
    2916:	88 23       	and	r24, r24
    2918:	09 f0       	breq	.+2      	; 0x291c <_ZN4XBee10readPacketEv+0x160>
    291a:	69 cf       	rjmp	.-302    	; 0x27ee <_ZN4XBee10readPacketEv+0x32>
    291c:	df 91       	pop	r29
    291e:	cf 91       	pop	r28
    2920:	1f 91       	pop	r17
    2922:	0f 91       	pop	r16
    2924:	ff 90       	pop	r15
    2926:	ef 90       	pop	r14
    2928:	df 90       	pop	r13
    292a:	cf 90       	pop	r12
    292c:	08 95       	ret

0000292e <_ZN4XBee24readPacketUntilAvailableEv>:
    292e:	0f 93       	push	r16
    2930:	1f 93       	push	r17
    2932:	cf 93       	push	r28
    2934:	df 93       	push	r29
    2936:	8c 01       	movw	r16, r24
    2938:	0e 94 ab 13 	call	0x2756	; 0x2756 <_ZN4XBee11getResponseEv>
    293c:	ec 01       	movw	r28, r24
    293e:	ce 01       	movw	r24, r28
    2940:	0e 94 22 0e 	call	0x1c44	; 0x1c44 <_ZN12XBeeResponse11isAvailableEv>
    2944:	88 23       	and	r24, r24
    2946:	49 f4       	brne	.+18     	; 0x295a <_ZN4XBee24readPacketUntilAvailableEv+0x2c>
    2948:	ce 01       	movw	r24, r28
    294a:	0e 94 28 0e 	call	0x1c50	; 0x1c50 <_ZN12XBeeResponse7isErrorEv>
    294e:	88 23       	and	r24, r24
    2950:	21 f4       	brne	.+8      	; 0x295a <_ZN4XBee24readPacketUntilAvailableEv+0x2c>
    2952:	c8 01       	movw	r24, r16
    2954:	0e 94 de 13 	call	0x27bc	; 0x27bc <_ZN4XBee10readPacketEv>
    2958:	f2 cf       	rjmp	.-28     	; 0x293e <_ZN4XBee24readPacketUntilAvailableEv+0x10>
    295a:	df 91       	pop	r29
    295c:	cf 91       	pop	r28
    295e:	1f 91       	pop	r17
    2960:	0f 91       	pop	r16
    2962:	08 95       	ret

00002964 <_ZN11XBeeRequestC2Ehh>:
    2964:	fc 01       	movw	r30, r24
    2966:	87 ec       	ldi	r24, 0xC7	; 199
    2968:	95 e0       	ldi	r25, 0x05	; 5
    296a:	91 83       	std	Z+1, r25	; 0x01
    296c:	80 83       	st	Z, r24
    296e:	62 83       	std	Z+2, r22	; 0x02
    2970:	43 83       	std	Z+3, r20	; 0x03
    2972:	08 95       	ret

00002974 <_ZN11XBeeRequestC1Ehh>:
    2974:	fc 01       	movw	r30, r24
    2976:	87 ec       	ldi	r24, 0xC7	; 199
    2978:	95 e0       	ldi	r25, 0x05	; 5
    297a:	91 83       	std	Z+1, r25	; 0x01
    297c:	80 83       	st	Z, r24
    297e:	62 83       	std	Z+2, r22	; 0x02
    2980:	43 83       	std	Z+3, r20	; 0x03
    2982:	08 95       	ret

00002984 <_ZN11XBeeRequest10setFrameIdEh>:
    2984:	fc 01       	movw	r30, r24
    2986:	63 83       	std	Z+3, r22	; 0x03
    2988:	08 95       	ret

0000298a <_ZN11XBeeRequest10getFrameIdEv>:
    298a:	fc 01       	movw	r30, r24
    298c:	83 81       	ldd	r24, Z+3	; 0x03
    298e:	08 95       	ret

00002990 <_ZN11XBeeRequest8getApiIdEv>:
    2990:	fc 01       	movw	r30, r24
    2992:	82 81       	ldd	r24, Z+2	; 0x02
    2994:	08 95       	ret

00002996 <_ZN11XBeeRequest8setApiIdEh>:
    2996:	fc 01       	movw	r30, r24
    2998:	62 83       	std	Z+2, r22	; 0x02
    299a:	08 95       	ret

0000299c <_ZN14PayloadRequestC2EhhPhh>:
    299c:	cf 92       	push	r12
    299e:	df 92       	push	r13
    29a0:	ef 92       	push	r14
    29a2:	ff 92       	push	r15
    29a4:	0f 93       	push	r16
    29a6:	7c 01       	movw	r14, r24
    29a8:	69 01       	movw	r12, r18
    29aa:	0e 94 b2 14 	call	0x2964	; 0x2964 <_ZN11XBeeRequestC2Ehh>
    29ae:	8f eb       	ldi	r24, 0xBF	; 191
    29b0:	95 e0       	ldi	r25, 0x05	; 5
    29b2:	f7 01       	movw	r30, r14
    29b4:	91 83       	std	Z+1, r25	; 0x01
    29b6:	80 83       	st	Z, r24
    29b8:	d5 82       	std	Z+5, r13	; 0x05
    29ba:	c4 82       	std	Z+4, r12	; 0x04
    29bc:	06 83       	std	Z+6, r16	; 0x06
    29be:	0f 91       	pop	r16
    29c0:	ff 90       	pop	r15
    29c2:	ef 90       	pop	r14
    29c4:	df 90       	pop	r13
    29c6:	cf 90       	pop	r12
    29c8:	08 95       	ret

000029ca <_ZN14PayloadRequestC1EhhPhh>:
    29ca:	cf 92       	push	r12
    29cc:	df 92       	push	r13
    29ce:	ef 92       	push	r14
    29d0:	ff 92       	push	r15
    29d2:	0f 93       	push	r16
    29d4:	7c 01       	movw	r14, r24
    29d6:	69 01       	movw	r12, r18
    29d8:	0e 94 b2 14 	call	0x2964	; 0x2964 <_ZN11XBeeRequestC2Ehh>
    29dc:	8f eb       	ldi	r24, 0xBF	; 191
    29de:	95 e0       	ldi	r25, 0x05	; 5
    29e0:	f7 01       	movw	r30, r14
    29e2:	91 83       	std	Z+1, r25	; 0x01
    29e4:	80 83       	st	Z, r24
    29e6:	d5 82       	std	Z+5, r13	; 0x05
    29e8:	c4 82       	std	Z+4, r12	; 0x04
    29ea:	06 83       	std	Z+6, r16	; 0x06
    29ec:	0f 91       	pop	r16
    29ee:	ff 90       	pop	r15
    29f0:	ef 90       	pop	r14
    29f2:	df 90       	pop	r13
    29f4:	cf 90       	pop	r12
    29f6:	08 95       	ret

000029f8 <_ZN14PayloadRequest10getPayloadEv>:
    29f8:	fc 01       	movw	r30, r24
    29fa:	84 81       	ldd	r24, Z+4	; 0x04
    29fc:	95 81       	ldd	r25, Z+5	; 0x05
    29fe:	08 95       	ret

00002a00 <_ZN14PayloadRequest10setPayloadEPh>:
    2a00:	fc 01       	movw	r30, r24
    2a02:	75 83       	std	Z+5, r23	; 0x05
    2a04:	64 83       	std	Z+4, r22	; 0x04
    2a06:	08 95       	ret

00002a08 <_ZN14PayloadRequest16getPayloadLengthEv>:
    2a08:	fc 01       	movw	r30, r24
    2a0a:	86 81       	ldd	r24, Z+6	; 0x06
    2a0c:	08 95       	ret

00002a0e <_ZN14PayloadRequest16setPayloadLengthEh>:
    2a0e:	fc 01       	movw	r30, r24
    2a10:	66 83       	std	Z+6, r22	; 0x06
    2a12:	08 95       	ret

00002a14 <_ZN11XBeeAddressC2Ev>:
    2a14:	08 95       	ret

00002a16 <_ZN11XBeeAddressC1Ev>:
    2a16:	08 95       	ret

00002a18 <_ZN13XBeeAddress64C2Ev>:
    2a18:	08 95       	ret

00002a1a <_ZN13XBeeAddress64C1Ev>:
    2a1a:	08 95       	ret

00002a1c <_ZN23RemoteAtCommandResponseC1Ev>:
    2a1c:	08 95       	ret

00002a1e <_ZN23RemoteAtCommandResponseC2Ev>:
    2a1e:	08 95       	ret

00002a20 <_ZN20Rx64IoSampleResponseC1Ev>:
    2a20:	0f 93       	push	r16
    2a22:	1f 93       	push	r17
    2a24:	df 93       	push	r29
    2a26:	cf 93       	push	r28
    2a28:	cd b7       	in	r28, 0x3d	; 61
    2a2a:	de b7       	in	r29, 0x3e	; 62
    2a2c:	28 97       	sbiw	r28, 0x08	; 8
    2a2e:	0f b6       	in	r0, 0x3f	; 63
    2a30:	f8 94       	cli
    2a32:	de bf       	out	0x3e, r29	; 62
    2a34:	0f be       	out	0x3f, r0	; 63
    2a36:	cd bf       	out	0x3d, r28	; 61
    2a38:	8c 01       	movw	r16, r24
    2a3a:	0e 94 d3 0e 	call	0x1da6	; 0x1da6 <_ZN22RxIoSampleBaseResponseC2Ev>
    2a3e:	83 ea       	ldi	r24, 0xA3	; 163
    2a40:	95 e0       	ldi	r25, 0x05	; 5
    2a42:	f8 01       	movw	r30, r16
    2a44:	91 83       	std	Z+1, r25	; 0x01
    2a46:	80 83       	st	Z, r24
    2a48:	d8 01       	movw	r26, r16
    2a4a:	1b 96       	adiw	r26, 0x0b	; 11
    2a4c:	fe 01       	movw	r30, r28
    2a4e:	31 96       	adiw	r30, 0x01	; 1
    2a50:	88 e0       	ldi	r24, 0x08	; 8
    2a52:	01 90       	ld	r0, Z+
    2a54:	0d 92       	st	X+, r0
    2a56:	81 50       	subi	r24, 0x01	; 1
    2a58:	e1 f7       	brne	.-8      	; 0x2a52 <_ZN20Rx64IoSampleResponseC1Ev+0x32>
    2a5a:	28 96       	adiw	r28, 0x08	; 8
    2a5c:	0f b6       	in	r0, 0x3f	; 63
    2a5e:	f8 94       	cli
    2a60:	de bf       	out	0x3e, r29	; 62
    2a62:	0f be       	out	0x3f, r0	; 63
    2a64:	cd bf       	out	0x3d, r28	; 61
    2a66:	cf 91       	pop	r28
    2a68:	df 91       	pop	r29
    2a6a:	1f 91       	pop	r17
    2a6c:	0f 91       	pop	r16
    2a6e:	08 95       	ret

00002a70 <_ZN20Rx64IoSampleResponseC2Ev>:
    2a70:	0f 93       	push	r16
    2a72:	1f 93       	push	r17
    2a74:	df 93       	push	r29
    2a76:	cf 93       	push	r28
    2a78:	cd b7       	in	r28, 0x3d	; 61
    2a7a:	de b7       	in	r29, 0x3e	; 62
    2a7c:	28 97       	sbiw	r28, 0x08	; 8
    2a7e:	0f b6       	in	r0, 0x3f	; 63
    2a80:	f8 94       	cli
    2a82:	de bf       	out	0x3e, r29	; 62
    2a84:	0f be       	out	0x3f, r0	; 63
    2a86:	cd bf       	out	0x3d, r28	; 61
    2a88:	8c 01       	movw	r16, r24
    2a8a:	0e 94 d3 0e 	call	0x1da6	; 0x1da6 <_ZN22RxIoSampleBaseResponseC2Ev>
    2a8e:	83 ea       	ldi	r24, 0xA3	; 163
    2a90:	95 e0       	ldi	r25, 0x05	; 5
    2a92:	f8 01       	movw	r30, r16
    2a94:	91 83       	std	Z+1, r25	; 0x01
    2a96:	80 83       	st	Z, r24
    2a98:	d8 01       	movw	r26, r16
    2a9a:	1b 96       	adiw	r26, 0x0b	; 11
    2a9c:	fe 01       	movw	r30, r28
    2a9e:	31 96       	adiw	r30, 0x01	; 1
    2aa0:	88 e0       	ldi	r24, 0x08	; 8
    2aa2:	01 90       	ld	r0, Z+
    2aa4:	0d 92       	st	X+, r0
    2aa6:	81 50       	subi	r24, 0x01	; 1
    2aa8:	e1 f7       	brne	.-8      	; 0x2aa2 <_ZN20Rx64IoSampleResponseC2Ev+0x32>
    2aaa:	28 96       	adiw	r28, 0x08	; 8
    2aac:	0f b6       	in	r0, 0x3f	; 63
    2aae:	f8 94       	cli
    2ab0:	de bf       	out	0x3e, r29	; 62
    2ab2:	0f be       	out	0x3f, r0	; 63
    2ab4:	cd bf       	out	0x3d, r28	; 61
    2ab6:	cf 91       	pop	r28
    2ab8:	df 91       	pop	r29
    2aba:	1f 91       	pop	r17
    2abc:	0f 91       	pop	r16
    2abe:	08 95       	ret

00002ac0 <_ZN12Rx64ResponseC1Ev>:
    2ac0:	0f 93       	push	r16
    2ac2:	1f 93       	push	r17
    2ac4:	df 93       	push	r29
    2ac6:	cf 93       	push	r28
    2ac8:	cd b7       	in	r28, 0x3d	; 61
    2aca:	de b7       	in	r29, 0x3e	; 62
    2acc:	28 97       	sbiw	r28, 0x08	; 8
    2ace:	0f b6       	in	r0, 0x3f	; 63
    2ad0:	f8 94       	cli
    2ad2:	de bf       	out	0x3e, r29	; 62
    2ad4:	0f be       	out	0x3f, r0	; 63
    2ad6:	cd bf       	out	0x3d, r28	; 61
    2ad8:	8c 01       	movw	r16, r24
    2ada:	0e 94 b9 0e 	call	0x1d72	; 0x1d72 <_ZN10RxResponseC2Ev>
    2ade:	85 e8       	ldi	r24, 0x85	; 133
    2ae0:	95 e0       	ldi	r25, 0x05	; 5
    2ae2:	f8 01       	movw	r30, r16
    2ae4:	91 83       	std	Z+1, r25	; 0x01
    2ae6:	80 83       	st	Z, r24
    2ae8:	d8 01       	movw	r26, r16
    2aea:	1b 96       	adiw	r26, 0x0b	; 11
    2aec:	fe 01       	movw	r30, r28
    2aee:	31 96       	adiw	r30, 0x01	; 1
    2af0:	88 e0       	ldi	r24, 0x08	; 8
    2af2:	01 90       	ld	r0, Z+
    2af4:	0d 92       	st	X+, r0
    2af6:	81 50       	subi	r24, 0x01	; 1
    2af8:	e1 f7       	brne	.-8      	; 0x2af2 <_ZN12Rx64ResponseC1Ev+0x32>
    2afa:	28 96       	adiw	r28, 0x08	; 8
    2afc:	0f b6       	in	r0, 0x3f	; 63
    2afe:	f8 94       	cli
    2b00:	de bf       	out	0x3e, r29	; 62
    2b02:	0f be       	out	0x3f, r0	; 63
    2b04:	cd bf       	out	0x3d, r28	; 61
    2b06:	cf 91       	pop	r28
    2b08:	df 91       	pop	r29
    2b0a:	1f 91       	pop	r17
    2b0c:	0f 91       	pop	r16
    2b0e:	08 95       	ret

00002b10 <_ZN12Rx64ResponseC2Ev>:
    2b10:	0f 93       	push	r16
    2b12:	1f 93       	push	r17
    2b14:	df 93       	push	r29
    2b16:	cf 93       	push	r28
    2b18:	cd b7       	in	r28, 0x3d	; 61
    2b1a:	de b7       	in	r29, 0x3e	; 62
    2b1c:	28 97       	sbiw	r28, 0x08	; 8
    2b1e:	0f b6       	in	r0, 0x3f	; 63
    2b20:	f8 94       	cli
    2b22:	de bf       	out	0x3e, r29	; 62
    2b24:	0f be       	out	0x3f, r0	; 63
    2b26:	cd bf       	out	0x3d, r28	; 61
    2b28:	8c 01       	movw	r16, r24
    2b2a:	0e 94 b9 0e 	call	0x1d72	; 0x1d72 <_ZN10RxResponseC2Ev>
    2b2e:	85 e8       	ldi	r24, 0x85	; 133
    2b30:	95 e0       	ldi	r25, 0x05	; 5
    2b32:	f8 01       	movw	r30, r16
    2b34:	91 83       	std	Z+1, r25	; 0x01
    2b36:	80 83       	st	Z, r24
    2b38:	d8 01       	movw	r26, r16
    2b3a:	1b 96       	adiw	r26, 0x0b	; 11
    2b3c:	fe 01       	movw	r30, r28
    2b3e:	31 96       	adiw	r30, 0x01	; 1
    2b40:	88 e0       	ldi	r24, 0x08	; 8
    2b42:	01 90       	ld	r0, Z+
    2b44:	0d 92       	st	X+, r0
    2b46:	81 50       	subi	r24, 0x01	; 1
    2b48:	e1 f7       	brne	.-8      	; 0x2b42 <_ZN12Rx64ResponseC2Ev+0x32>
    2b4a:	28 96       	adiw	r28, 0x08	; 8
    2b4c:	0f b6       	in	r0, 0x3f	; 63
    2b4e:	f8 94       	cli
    2b50:	de bf       	out	0x3e, r29	; 62
    2b52:	0f be       	out	0x3f, r0	; 63
    2b54:	cd bf       	out	0x3d, r28	; 61
    2b56:	cf 91       	pop	r28
    2b58:	df 91       	pop	r29
    2b5a:	1f 91       	pop	r17
    2b5c:	0f 91       	pop	r16
    2b5e:	08 95       	ret

00002b60 <_ZN12ZBRxResponseC1Ev>:
    2b60:	0f 93       	push	r16
    2b62:	1f 93       	push	r17
    2b64:	df 93       	push	r29
    2b66:	cf 93       	push	r28
    2b68:	cd b7       	in	r28, 0x3d	; 61
    2b6a:	de b7       	in	r29, 0x3e	; 62
    2b6c:	28 97       	sbiw	r28, 0x08	; 8
    2b6e:	0f b6       	in	r0, 0x3f	; 63
    2b70:	f8 94       	cli
    2b72:	de bf       	out	0x3e, r29	; 62
    2b74:	0f be       	out	0x3f, r0	; 63
    2b76:	cd bf       	out	0x3d, r28	; 61
    2b78:	8c 01       	movw	r16, r24
    2b7a:	0e 94 a6 0e 	call	0x1d4c	; 0x1d4c <_ZN14RxDataResponseC2Ev>
    2b7e:	87 eb       	ldi	r24, 0xB7	; 183
    2b80:	95 e0       	ldi	r25, 0x05	; 5
    2b82:	f8 01       	movw	r30, r16
    2b84:	91 83       	std	Z+1, r25	; 0x01
    2b86:	80 83       	st	Z, r24
    2b88:	d8 01       	movw	r26, r16
    2b8a:	1b 96       	adiw	r26, 0x0b	; 11
    2b8c:	fe 01       	movw	r30, r28
    2b8e:	31 96       	adiw	r30, 0x01	; 1
    2b90:	88 e0       	ldi	r24, 0x08	; 8
    2b92:	01 90       	ld	r0, Z+
    2b94:	0d 92       	st	X+, r0
    2b96:	81 50       	subi	r24, 0x01	; 1
    2b98:	e1 f7       	brne	.-8      	; 0x2b92 <_ZN12ZBRxResponseC1Ev+0x32>
    2b9a:	28 96       	adiw	r28, 0x08	; 8
    2b9c:	0f b6       	in	r0, 0x3f	; 63
    2b9e:	f8 94       	cli
    2ba0:	de bf       	out	0x3e, r29	; 62
    2ba2:	0f be       	out	0x3f, r0	; 63
    2ba4:	cd bf       	out	0x3d, r28	; 61
    2ba6:	cf 91       	pop	r28
    2ba8:	df 91       	pop	r29
    2baa:	1f 91       	pop	r17
    2bac:	0f 91       	pop	r16
    2bae:	08 95       	ret

00002bb0 <_ZN12ZBRxResponseC2Ev>:
    2bb0:	0f 93       	push	r16
    2bb2:	1f 93       	push	r17
    2bb4:	df 93       	push	r29
    2bb6:	cf 93       	push	r28
    2bb8:	cd b7       	in	r28, 0x3d	; 61
    2bba:	de b7       	in	r29, 0x3e	; 62
    2bbc:	28 97       	sbiw	r28, 0x08	; 8
    2bbe:	0f b6       	in	r0, 0x3f	; 63
    2bc0:	f8 94       	cli
    2bc2:	de bf       	out	0x3e, r29	; 62
    2bc4:	0f be       	out	0x3f, r0	; 63
    2bc6:	cd bf       	out	0x3d, r28	; 61
    2bc8:	8c 01       	movw	r16, r24
    2bca:	0e 94 a6 0e 	call	0x1d4c	; 0x1d4c <_ZN14RxDataResponseC2Ev>
    2bce:	87 eb       	ldi	r24, 0xB7	; 183
    2bd0:	95 e0       	ldi	r25, 0x05	; 5
    2bd2:	f8 01       	movw	r30, r16
    2bd4:	91 83       	std	Z+1, r25	; 0x01
    2bd6:	80 83       	st	Z, r24
    2bd8:	d8 01       	movw	r26, r16
    2bda:	1b 96       	adiw	r26, 0x0b	; 11
    2bdc:	fe 01       	movw	r30, r28
    2bde:	31 96       	adiw	r30, 0x01	; 1
    2be0:	88 e0       	ldi	r24, 0x08	; 8
    2be2:	01 90       	ld	r0, Z+
    2be4:	0d 92       	st	X+, r0
    2be6:	81 50       	subi	r24, 0x01	; 1
    2be8:	e1 f7       	brne	.-8      	; 0x2be2 <_ZN12ZBRxResponseC2Ev+0x32>
    2bea:	28 96       	adiw	r28, 0x08	; 8
    2bec:	0f b6       	in	r0, 0x3f	; 63
    2bee:	f8 94       	cli
    2bf0:	de bf       	out	0x3e, r29	; 62
    2bf2:	0f be       	out	0x3f, r0	; 63
    2bf4:	cd bf       	out	0x3d, r28	; 61
    2bf6:	cf 91       	pop	r28
    2bf8:	df 91       	pop	r29
    2bfa:	1f 91       	pop	r17
    2bfc:	0f 91       	pop	r16
    2bfe:	08 95       	ret

00002c00 <_ZN20ZBRxIoSampleResponseC1Ev>:
    2c00:	0f 93       	push	r16
    2c02:	1f 93       	push	r17
    2c04:	8c 01       	movw	r16, r24
    2c06:	0e 94 d8 15 	call	0x2bb0	; 0x2bb0 <_ZN12ZBRxResponseC2Ev>
    2c0a:	81 ee       	ldi	r24, 0xE1	; 225
    2c0c:	95 e0       	ldi	r25, 0x05	; 5
    2c0e:	f8 01       	movw	r30, r16
    2c10:	91 83       	std	Z+1, r25	; 0x01
    2c12:	80 83       	st	Z, r24
    2c14:	1f 91       	pop	r17
    2c16:	0f 91       	pop	r16
    2c18:	08 95       	ret

00002c1a <_ZN20ZBRxIoSampleResponseC2Ev>:
    2c1a:	0f 93       	push	r16
    2c1c:	1f 93       	push	r17
    2c1e:	8c 01       	movw	r16, r24
    2c20:	0e 94 d8 15 	call	0x2bb0	; 0x2bb0 <_ZN12ZBRxResponseC2Ev>
    2c24:	81 ee       	ldi	r24, 0xE1	; 225
    2c26:	95 e0       	ldi	r25, 0x05	; 5
    2c28:	f8 01       	movw	r30, r16
    2c2a:	91 83       	std	Z+1, r25	; 0x01
    2c2c:	80 83       	st	Z, r24
    2c2e:	1f 91       	pop	r17
    2c30:	0f 91       	pop	r16
    2c32:	08 95       	ret

00002c34 <_ZN13XBeeAddress64C2Emm>:
    2c34:	0f 93       	push	r16
    2c36:	1f 93       	push	r17
    2c38:	fc 01       	movw	r30, r24
    2c3a:	40 83       	st	Z, r20
    2c3c:	51 83       	std	Z+1, r21	; 0x01
    2c3e:	62 83       	std	Z+2, r22	; 0x02
    2c40:	73 83       	std	Z+3, r23	; 0x03
    2c42:	04 83       	std	Z+4, r16	; 0x04
    2c44:	15 83       	std	Z+5, r17	; 0x05
    2c46:	26 83       	std	Z+6, r18	; 0x06
    2c48:	37 83       	std	Z+7, r19	; 0x07
    2c4a:	1f 91       	pop	r17
    2c4c:	0f 91       	pop	r16
    2c4e:	08 95       	ret

00002c50 <_ZN13XBeeAddress64C1Emm>:
    2c50:	0f 93       	push	r16
    2c52:	1f 93       	push	r17
    2c54:	fc 01       	movw	r30, r24
    2c56:	40 83       	st	Z, r20
    2c58:	51 83       	std	Z+1, r21	; 0x01
    2c5a:	62 83       	std	Z+2, r22	; 0x02
    2c5c:	73 83       	std	Z+3, r23	; 0x03
    2c5e:	04 83       	std	Z+4, r16	; 0x04
    2c60:	15 83       	std	Z+5, r17	; 0x05
    2c62:	26 83       	std	Z+6, r18	; 0x06
    2c64:	37 83       	std	Z+7, r19	; 0x07
    2c66:	1f 91       	pop	r17
    2c68:	0f 91       	pop	r16
    2c6a:	08 95       	ret

00002c6c <_ZN13XBeeAddress646getMsbEv>:
    2c6c:	fc 01       	movw	r30, r24
    2c6e:	60 81       	ld	r22, Z
    2c70:	71 81       	ldd	r23, Z+1	; 0x01
    2c72:	82 81       	ldd	r24, Z+2	; 0x02
    2c74:	93 81       	ldd	r25, Z+3	; 0x03
    2c76:	08 95       	ret

00002c78 <_ZN13XBeeAddress646setMsbEm>:
    2c78:	fc 01       	movw	r30, r24
    2c7a:	40 83       	st	Z, r20
    2c7c:	51 83       	std	Z+1, r21	; 0x01
    2c7e:	62 83       	std	Z+2, r22	; 0x02
    2c80:	73 83       	std	Z+3, r23	; 0x03
    2c82:	08 95       	ret

00002c84 <_ZN13XBeeAddress646getLsbEv>:
    2c84:	fc 01       	movw	r30, r24
    2c86:	64 81       	ldd	r22, Z+4	; 0x04
    2c88:	75 81       	ldd	r23, Z+5	; 0x05
    2c8a:	86 81       	ldd	r24, Z+6	; 0x06
    2c8c:	97 81       	ldd	r25, Z+7	; 0x07
    2c8e:	08 95       	ret

00002c90 <_ZN13XBeeAddress646setLsbEm>:
    2c90:	fc 01       	movw	r30, r24
    2c92:	44 83       	std	Z+4, r20	; 0x04
    2c94:	55 83       	std	Z+5, r21	; 0x05
    2c96:	66 83       	std	Z+6, r22	; 0x06
    2c98:	77 83       	std	Z+7, r23	; 0x07
    2c9a:	08 95       	ret

00002c9c <_ZN12XBeeResponse26getRemoteAtCommandResponseERS_>:
    2c9c:	ef 92       	push	r14
    2c9e:	ff 92       	push	r15
    2ca0:	0f 93       	push	r16
    2ca2:	1f 93       	push	r17
    2ca4:	7c 01       	movw	r14, r24
    2ca6:	16 2f       	mov	r17, r22
    2ca8:	07 2f       	mov	r16, r23
    2caa:	0e 94 5a 0f 	call	0x1eb4	; 0x1eb4 <_ZN12XBeeResponse12getFrameDataEv>
    2cae:	bc 01       	movw	r22, r24
    2cb0:	81 2f       	mov	r24, r17
    2cb2:	90 2f       	mov	r25, r16
    2cb4:	0e 94 8c 12 	call	0x2518	; 0x2518 <_ZN12XBeeResponse12setFrameDataEPh>
    2cb8:	c7 01       	movw	r24, r14
    2cba:	61 2f       	mov	r22, r17
    2cbc:	70 2f       	mov	r23, r16
    2cbe:	0e 94 33 0e 	call	0x1c66	; 0x1c66 <_ZN12XBeeResponse9setCommonERS_>
    2cc2:	81 2f       	mov	r24, r17
    2cc4:	90 2f       	mov	r25, r16
    2cc6:	0e 94 a1 0e 	call	0x1d42	; 0x1d42 <_ZN23RemoteAtCommandResponse18getRemoteAddress64Ev>
    2cca:	8c 01       	movw	r16, r24
    2ccc:	c7 01       	movw	r24, r14
    2cce:	0e 94 5a 0f 	call	0x1eb4	; 0x1eb4 <_ZN12XBeeResponse12getFrameDataEv>
    2cd2:	fc 01       	movw	r30, r24
    2cd4:	41 81       	ldd	r20, Z+1	; 0x01
    2cd6:	50 e0       	ldi	r21, 0x00	; 0
    2cd8:	60 e0       	ldi	r22, 0x00	; 0
    2cda:	70 e0       	ldi	r23, 0x00	; 0
    2cdc:	74 2f       	mov	r23, r20
    2cde:	66 27       	eor	r22, r22
    2ce0:	55 27       	eor	r21, r21
    2ce2:	44 27       	eor	r20, r20
    2ce4:	82 81       	ldd	r24, Z+2	; 0x02
    2ce6:	90 e0       	ldi	r25, 0x00	; 0
    2ce8:	a0 e0       	ldi	r26, 0x00	; 0
    2cea:	b0 e0       	ldi	r27, 0x00	; 0
    2cec:	dc 01       	movw	r26, r24
    2cee:	99 27       	eor	r25, r25
    2cf0:	88 27       	eor	r24, r24
    2cf2:	48 0f       	add	r20, r24
    2cf4:	59 1f       	adc	r21, r25
    2cf6:	6a 1f       	adc	r22, r26
    2cf8:	7b 1f       	adc	r23, r27
    2cfa:	84 81       	ldd	r24, Z+4	; 0x04
    2cfc:	48 0f       	add	r20, r24
    2cfe:	51 1d       	adc	r21, r1
    2d00:	61 1d       	adc	r22, r1
    2d02:	71 1d       	adc	r23, r1
    2d04:	93 81       	ldd	r25, Z+3	; 0x03
    2d06:	80 e0       	ldi	r24, 0x00	; 0
    2d08:	a0 e0       	ldi	r26, 0x00	; 0
    2d0a:	b0 e0       	ldi	r27, 0x00	; 0
    2d0c:	48 0f       	add	r20, r24
    2d0e:	59 1f       	adc	r21, r25
    2d10:	6a 1f       	adc	r22, r26
    2d12:	7b 1f       	adc	r23, r27
    2d14:	c8 01       	movw	r24, r16
    2d16:	0e 94 3c 16 	call	0x2c78	; 0x2c78 <_ZN13XBeeAddress646setMsbEm>
    2d1a:	c7 01       	movw	r24, r14
    2d1c:	0e 94 5a 0f 	call	0x1eb4	; 0x1eb4 <_ZN12XBeeResponse12getFrameDataEv>
    2d20:	fc 01       	movw	r30, r24
    2d22:	45 81       	ldd	r20, Z+5	; 0x05
    2d24:	50 e0       	ldi	r21, 0x00	; 0
    2d26:	60 e0       	ldi	r22, 0x00	; 0
    2d28:	70 e0       	ldi	r23, 0x00	; 0
    2d2a:	74 2f       	mov	r23, r20
    2d2c:	66 27       	eor	r22, r22
    2d2e:	55 27       	eor	r21, r21
    2d30:	44 27       	eor	r20, r20
    2d32:	86 81       	ldd	r24, Z+6	; 0x06
    2d34:	90 e0       	ldi	r25, 0x00	; 0
    2d36:	a0 e0       	ldi	r26, 0x00	; 0
    2d38:	b0 e0       	ldi	r27, 0x00	; 0
    2d3a:	dc 01       	movw	r26, r24
    2d3c:	99 27       	eor	r25, r25
    2d3e:	88 27       	eor	r24, r24
    2d40:	48 0f       	add	r20, r24
    2d42:	59 1f       	adc	r21, r25
    2d44:	6a 1f       	adc	r22, r26
    2d46:	7b 1f       	adc	r23, r27
    2d48:	80 85       	ldd	r24, Z+8	; 0x08
    2d4a:	48 0f       	add	r20, r24
    2d4c:	51 1d       	adc	r21, r1
    2d4e:	61 1d       	adc	r22, r1
    2d50:	71 1d       	adc	r23, r1
    2d52:	97 81       	ldd	r25, Z+7	; 0x07
    2d54:	80 e0       	ldi	r24, 0x00	; 0
    2d56:	a0 e0       	ldi	r26, 0x00	; 0
    2d58:	b0 e0       	ldi	r27, 0x00	; 0
    2d5a:	48 0f       	add	r20, r24
    2d5c:	59 1f       	adc	r21, r25
    2d5e:	6a 1f       	adc	r22, r26
    2d60:	7b 1f       	adc	r23, r27
    2d62:	c8 01       	movw	r24, r16
    2d64:	0e 94 48 16 	call	0x2c90	; 0x2c90 <_ZN13XBeeAddress646setLsbEm>
    2d68:	1f 91       	pop	r17
    2d6a:	0f 91       	pop	r16
    2d6c:	ff 90       	pop	r15
    2d6e:	ef 90       	pop	r14
    2d70:	08 95       	ret

00002d72 <_ZN12XBeeResponse15getRx64ResponseERS_>:
    2d72:	ef 92       	push	r14
    2d74:	ff 92       	push	r15
    2d76:	0f 93       	push	r16
    2d78:	1f 93       	push	r17
    2d7a:	7c 01       	movw	r14, r24
    2d7c:	8b 01       	movw	r16, r22
    2d7e:	0e 94 5a 0f 	call	0x1eb4	; 0x1eb4 <_ZN12XBeeResponse12getFrameDataEv>
    2d82:	bc 01       	movw	r22, r24
    2d84:	c8 01       	movw	r24, r16
    2d86:	0e 94 8c 12 	call	0x2518	; 0x2518 <_ZN12XBeeResponse12setFrameDataEPh>
    2d8a:	c7 01       	movw	r24, r14
    2d8c:	b8 01       	movw	r22, r16
    2d8e:	0e 94 33 0e 	call	0x1c66	; 0x1c66 <_ZN12XBeeResponse9setCommonERS_>
    2d92:	02 50       	subi	r16, 0x02	; 2
    2d94:	10 40       	sbci	r17, 0x00	; 0
    2d96:	c8 01       	movw	r24, r16
    2d98:	0e 94 75 0e 	call	0x1cea	; 0x1cea <_ZN12Rx64Response18getRemoteAddress64Ev>
    2d9c:	8c 01       	movw	r16, r24
    2d9e:	c7 01       	movw	r24, r14
    2da0:	0e 94 5a 0f 	call	0x1eb4	; 0x1eb4 <_ZN12XBeeResponse12getFrameDataEv>
    2da4:	fc 01       	movw	r30, r24
    2da6:	83 81       	ldd	r24, Z+3	; 0x03
    2da8:	40 81       	ld	r20, Z
    2daa:	50 e0       	ldi	r21, 0x00	; 0
    2dac:	60 e0       	ldi	r22, 0x00	; 0
    2dae:	70 e0       	ldi	r23, 0x00	; 0
    2db0:	74 2f       	mov	r23, r20
    2db2:	66 27       	eor	r22, r22
    2db4:	55 27       	eor	r21, r21
    2db6:	44 27       	eor	r20, r20
    2db8:	48 0f       	add	r20, r24
    2dba:	51 1d       	adc	r21, r1
    2dbc:	61 1d       	adc	r22, r1
    2dbe:	71 1d       	adc	r23, r1
    2dc0:	81 81       	ldd	r24, Z+1	; 0x01
    2dc2:	90 e0       	ldi	r25, 0x00	; 0
    2dc4:	a0 e0       	ldi	r26, 0x00	; 0
    2dc6:	b0 e0       	ldi	r27, 0x00	; 0
    2dc8:	dc 01       	movw	r26, r24
    2dca:	99 27       	eor	r25, r25
    2dcc:	88 27       	eor	r24, r24
    2dce:	48 0f       	add	r20, r24
    2dd0:	59 1f       	adc	r21, r25
    2dd2:	6a 1f       	adc	r22, r26
    2dd4:	7b 1f       	adc	r23, r27
    2dd6:	92 81       	ldd	r25, Z+2	; 0x02
    2dd8:	80 e0       	ldi	r24, 0x00	; 0
    2dda:	a0 e0       	ldi	r26, 0x00	; 0
    2ddc:	b0 e0       	ldi	r27, 0x00	; 0
    2dde:	48 0f       	add	r20, r24
    2de0:	59 1f       	adc	r21, r25
    2de2:	6a 1f       	adc	r22, r26
    2de4:	7b 1f       	adc	r23, r27
    2de6:	c8 01       	movw	r24, r16
    2de8:	0e 94 3c 16 	call	0x2c78	; 0x2c78 <_ZN13XBeeAddress646setMsbEm>
    2dec:	c7 01       	movw	r24, r14
    2dee:	0e 94 5a 0f 	call	0x1eb4	; 0x1eb4 <_ZN12XBeeResponse12getFrameDataEv>
    2df2:	fc 01       	movw	r30, r24
    2df4:	44 81       	ldd	r20, Z+4	; 0x04
    2df6:	50 e0       	ldi	r21, 0x00	; 0
    2df8:	60 e0       	ldi	r22, 0x00	; 0
    2dfa:	70 e0       	ldi	r23, 0x00	; 0
    2dfc:	74 2f       	mov	r23, r20
    2dfe:	66 27       	eor	r22, r22
    2e00:	55 27       	eor	r21, r21
    2e02:	44 27       	eor	r20, r20
    2e04:	85 81       	ldd	r24, Z+5	; 0x05
    2e06:	90 e0       	ldi	r25, 0x00	; 0
    2e08:	a0 e0       	ldi	r26, 0x00	; 0
    2e0a:	b0 e0       	ldi	r27, 0x00	; 0
    2e0c:	dc 01       	movw	r26, r24
    2e0e:	99 27       	eor	r25, r25
    2e10:	88 27       	eor	r24, r24
    2e12:	48 0f       	add	r20, r24
    2e14:	59 1f       	adc	r21, r25
    2e16:	6a 1f       	adc	r22, r26
    2e18:	7b 1f       	adc	r23, r27
    2e1a:	87 81       	ldd	r24, Z+7	; 0x07
    2e1c:	48 0f       	add	r20, r24
    2e1e:	51 1d       	adc	r21, r1
    2e20:	61 1d       	adc	r22, r1
    2e22:	71 1d       	adc	r23, r1
    2e24:	96 81       	ldd	r25, Z+6	; 0x06
    2e26:	80 e0       	ldi	r24, 0x00	; 0
    2e28:	a0 e0       	ldi	r26, 0x00	; 0
    2e2a:	b0 e0       	ldi	r27, 0x00	; 0
    2e2c:	48 0f       	add	r20, r24
    2e2e:	59 1f       	adc	r21, r25
    2e30:	6a 1f       	adc	r22, r26
    2e32:	7b 1f       	adc	r23, r27
    2e34:	c8 01       	movw	r24, r16
    2e36:	0e 94 48 16 	call	0x2c90	; 0x2c90 <_ZN13XBeeAddress646setLsbEm>
    2e3a:	1f 91       	pop	r17
    2e3c:	0f 91       	pop	r16
    2e3e:	ff 90       	pop	r15
    2e40:	ef 90       	pop	r14
    2e42:	08 95       	ret

00002e44 <_ZN12XBeeResponse23getRx64IoSampleResponseERS_>:
    2e44:	ef 92       	push	r14
    2e46:	ff 92       	push	r15
    2e48:	0f 93       	push	r16
    2e4a:	1f 93       	push	r17
    2e4c:	7c 01       	movw	r14, r24
    2e4e:	8b 01       	movw	r16, r22
    2e50:	0e 94 5a 0f 	call	0x1eb4	; 0x1eb4 <_ZN12XBeeResponse12getFrameDataEv>
    2e54:	bc 01       	movw	r22, r24
    2e56:	c8 01       	movw	r24, r16
    2e58:	0e 94 8c 12 	call	0x2518	; 0x2518 <_ZN12XBeeResponse12setFrameDataEPh>
    2e5c:	c7 01       	movw	r24, r14
    2e5e:	b8 01       	movw	r22, r16
    2e60:	0e 94 33 0e 	call	0x1c66	; 0x1c66 <_ZN12XBeeResponse9setCommonERS_>
    2e64:	02 50       	subi	r16, 0x02	; 2
    2e66:	10 40       	sbci	r17, 0x00	; 0
    2e68:	c8 01       	movw	r24, r16
    2e6a:	0e 94 87 0e 	call	0x1d0e	; 0x1d0e <_ZN20Rx64IoSampleResponse18getRemoteAddress64Ev>
    2e6e:	8c 01       	movw	r16, r24
    2e70:	c7 01       	movw	r24, r14
    2e72:	0e 94 5a 0f 	call	0x1eb4	; 0x1eb4 <_ZN12XBeeResponse12getFrameDataEv>
    2e76:	fc 01       	movw	r30, r24
    2e78:	83 81       	ldd	r24, Z+3	; 0x03
    2e7a:	40 81       	ld	r20, Z
    2e7c:	50 e0       	ldi	r21, 0x00	; 0
    2e7e:	60 e0       	ldi	r22, 0x00	; 0
    2e80:	70 e0       	ldi	r23, 0x00	; 0
    2e82:	74 2f       	mov	r23, r20
    2e84:	66 27       	eor	r22, r22
    2e86:	55 27       	eor	r21, r21
    2e88:	44 27       	eor	r20, r20
    2e8a:	48 0f       	add	r20, r24
    2e8c:	51 1d       	adc	r21, r1
    2e8e:	61 1d       	adc	r22, r1
    2e90:	71 1d       	adc	r23, r1
    2e92:	81 81       	ldd	r24, Z+1	; 0x01
    2e94:	90 e0       	ldi	r25, 0x00	; 0
    2e96:	a0 e0       	ldi	r26, 0x00	; 0
    2e98:	b0 e0       	ldi	r27, 0x00	; 0
    2e9a:	dc 01       	movw	r26, r24
    2e9c:	99 27       	eor	r25, r25
    2e9e:	88 27       	eor	r24, r24
    2ea0:	48 0f       	add	r20, r24
    2ea2:	59 1f       	adc	r21, r25
    2ea4:	6a 1f       	adc	r22, r26
    2ea6:	7b 1f       	adc	r23, r27
    2ea8:	92 81       	ldd	r25, Z+2	; 0x02
    2eaa:	80 e0       	ldi	r24, 0x00	; 0
    2eac:	a0 e0       	ldi	r26, 0x00	; 0
    2eae:	b0 e0       	ldi	r27, 0x00	; 0
    2eb0:	48 0f       	add	r20, r24
    2eb2:	59 1f       	adc	r21, r25
    2eb4:	6a 1f       	adc	r22, r26
    2eb6:	7b 1f       	adc	r23, r27
    2eb8:	c8 01       	movw	r24, r16
    2eba:	0e 94 3c 16 	call	0x2c78	; 0x2c78 <_ZN13XBeeAddress646setMsbEm>
    2ebe:	c7 01       	movw	r24, r14
    2ec0:	0e 94 5a 0f 	call	0x1eb4	; 0x1eb4 <_ZN12XBeeResponse12getFrameDataEv>
    2ec4:	fc 01       	movw	r30, r24
    2ec6:	44 81       	ldd	r20, Z+4	; 0x04
    2ec8:	50 e0       	ldi	r21, 0x00	; 0
    2eca:	60 e0       	ldi	r22, 0x00	; 0
    2ecc:	70 e0       	ldi	r23, 0x00	; 0
    2ece:	74 2f       	mov	r23, r20
    2ed0:	66 27       	eor	r22, r22
    2ed2:	55 27       	eor	r21, r21
    2ed4:	44 27       	eor	r20, r20
    2ed6:	85 81       	ldd	r24, Z+5	; 0x05
    2ed8:	90 e0       	ldi	r25, 0x00	; 0
    2eda:	a0 e0       	ldi	r26, 0x00	; 0
    2edc:	b0 e0       	ldi	r27, 0x00	; 0
    2ede:	dc 01       	movw	r26, r24
    2ee0:	99 27       	eor	r25, r25
    2ee2:	88 27       	eor	r24, r24
    2ee4:	48 0f       	add	r20, r24
    2ee6:	59 1f       	adc	r21, r25
    2ee8:	6a 1f       	adc	r22, r26
    2eea:	7b 1f       	adc	r23, r27
    2eec:	87 81       	ldd	r24, Z+7	; 0x07
    2eee:	48 0f       	add	r20, r24
    2ef0:	51 1d       	adc	r21, r1
    2ef2:	61 1d       	adc	r22, r1
    2ef4:	71 1d       	adc	r23, r1
    2ef6:	96 81       	ldd	r25, Z+6	; 0x06
    2ef8:	80 e0       	ldi	r24, 0x00	; 0
    2efa:	a0 e0       	ldi	r26, 0x00	; 0
    2efc:	b0 e0       	ldi	r27, 0x00	; 0
    2efe:	48 0f       	add	r20, r24
    2f00:	59 1f       	adc	r21, r25
    2f02:	6a 1f       	adc	r22, r26
    2f04:	7b 1f       	adc	r23, r27
    2f06:	c8 01       	movw	r24, r16
    2f08:	0e 94 48 16 	call	0x2c90	; 0x2c90 <_ZN13XBeeAddress646setLsbEm>
    2f0c:	1f 91       	pop	r17
    2f0e:	0f 91       	pop	r16
    2f10:	ff 90       	pop	r15
    2f12:	ef 90       	pop	r14
    2f14:	08 95       	ret

00002f16 <_ZN12XBeeResponse23getZBRxIoSampleResponseERS_>:
    2f16:	ef 92       	push	r14
    2f18:	ff 92       	push	r15
    2f1a:	0f 93       	push	r16
    2f1c:	1f 93       	push	r17
    2f1e:	7c 01       	movw	r14, r24
    2f20:	8b 01       	movw	r16, r22
    2f22:	0e 94 5a 0f 	call	0x1eb4	; 0x1eb4 <_ZN12XBeeResponse12getFrameDataEv>
    2f26:	bc 01       	movw	r22, r24
    2f28:	c8 01       	movw	r24, r16
    2f2a:	0e 94 8c 12 	call	0x2518	; 0x2518 <_ZN12XBeeResponse12setFrameDataEPh>
    2f2e:	c7 01       	movw	r24, r14
    2f30:	b8 01       	movw	r22, r16
    2f32:	0e 94 33 0e 	call	0x1c66	; 0x1c66 <_ZN12XBeeResponse9setCommonERS_>
    2f36:	02 50       	subi	r16, 0x02	; 2
    2f38:	10 40       	sbci	r17, 0x00	; 0
    2f3a:	c8 01       	movw	r24, r16
    2f3c:	0e 94 70 0e 	call	0x1ce0	; 0x1ce0 <_ZN12ZBRxResponse18getRemoteAddress64Ev>
    2f40:	8c 01       	movw	r16, r24
    2f42:	c7 01       	movw	r24, r14
    2f44:	0e 94 5a 0f 	call	0x1eb4	; 0x1eb4 <_ZN12XBeeResponse12getFrameDataEv>
    2f48:	fc 01       	movw	r30, r24
    2f4a:	83 81       	ldd	r24, Z+3	; 0x03
    2f4c:	40 81       	ld	r20, Z
    2f4e:	50 e0       	ldi	r21, 0x00	; 0
    2f50:	60 e0       	ldi	r22, 0x00	; 0
    2f52:	70 e0       	ldi	r23, 0x00	; 0
    2f54:	74 2f       	mov	r23, r20
    2f56:	66 27       	eor	r22, r22
    2f58:	55 27       	eor	r21, r21
    2f5a:	44 27       	eor	r20, r20
    2f5c:	48 0f       	add	r20, r24
    2f5e:	51 1d       	adc	r21, r1
    2f60:	61 1d       	adc	r22, r1
    2f62:	71 1d       	adc	r23, r1
    2f64:	81 81       	ldd	r24, Z+1	; 0x01
    2f66:	90 e0       	ldi	r25, 0x00	; 0
    2f68:	a0 e0       	ldi	r26, 0x00	; 0
    2f6a:	b0 e0       	ldi	r27, 0x00	; 0
    2f6c:	dc 01       	movw	r26, r24
    2f6e:	99 27       	eor	r25, r25
    2f70:	88 27       	eor	r24, r24
    2f72:	48 0f       	add	r20, r24
    2f74:	59 1f       	adc	r21, r25
    2f76:	6a 1f       	adc	r22, r26
    2f78:	7b 1f       	adc	r23, r27
    2f7a:	92 81       	ldd	r25, Z+2	; 0x02
    2f7c:	80 e0       	ldi	r24, 0x00	; 0
    2f7e:	a0 e0       	ldi	r26, 0x00	; 0
    2f80:	b0 e0       	ldi	r27, 0x00	; 0
    2f82:	48 0f       	add	r20, r24
    2f84:	59 1f       	adc	r21, r25
    2f86:	6a 1f       	adc	r22, r26
    2f88:	7b 1f       	adc	r23, r27
    2f8a:	c8 01       	movw	r24, r16
    2f8c:	0e 94 3c 16 	call	0x2c78	; 0x2c78 <_ZN13XBeeAddress646setMsbEm>
    2f90:	c7 01       	movw	r24, r14
    2f92:	0e 94 5a 0f 	call	0x1eb4	; 0x1eb4 <_ZN12XBeeResponse12getFrameDataEv>
    2f96:	fc 01       	movw	r30, r24
    2f98:	44 81       	ldd	r20, Z+4	; 0x04
    2f9a:	50 e0       	ldi	r21, 0x00	; 0
    2f9c:	60 e0       	ldi	r22, 0x00	; 0
    2f9e:	70 e0       	ldi	r23, 0x00	; 0
    2fa0:	74 2f       	mov	r23, r20
    2fa2:	66 27       	eor	r22, r22
    2fa4:	55 27       	eor	r21, r21
    2fa6:	44 27       	eor	r20, r20
    2fa8:	85 81       	ldd	r24, Z+5	; 0x05
    2faa:	90 e0       	ldi	r25, 0x00	; 0
    2fac:	a0 e0       	ldi	r26, 0x00	; 0
    2fae:	b0 e0       	ldi	r27, 0x00	; 0
    2fb0:	dc 01       	movw	r26, r24
    2fb2:	99 27       	eor	r25, r25
    2fb4:	88 27       	eor	r24, r24
    2fb6:	48 0f       	add	r20, r24
    2fb8:	59 1f       	adc	r21, r25
    2fba:	6a 1f       	adc	r22, r26
    2fbc:	7b 1f       	adc	r23, r27
    2fbe:	87 81       	ldd	r24, Z+7	; 0x07
    2fc0:	48 0f       	add	r20, r24
    2fc2:	51 1d       	adc	r21, r1
    2fc4:	61 1d       	adc	r22, r1
    2fc6:	71 1d       	adc	r23, r1
    2fc8:	96 81       	ldd	r25, Z+6	; 0x06
    2fca:	80 e0       	ldi	r24, 0x00	; 0
    2fcc:	a0 e0       	ldi	r26, 0x00	; 0
    2fce:	b0 e0       	ldi	r27, 0x00	; 0
    2fd0:	48 0f       	add	r20, r24
    2fd2:	59 1f       	adc	r21, r25
    2fd4:	6a 1f       	adc	r22, r26
    2fd6:	7b 1f       	adc	r23, r27
    2fd8:	c8 01       	movw	r24, r16
    2fda:	0e 94 48 16 	call	0x2c90	; 0x2c90 <_ZN13XBeeAddress646setLsbEm>
    2fde:	1f 91       	pop	r17
    2fe0:	0f 91       	pop	r16
    2fe2:	ff 90       	pop	r15
    2fe4:	ef 90       	pop	r14
    2fe6:	08 95       	ret

00002fe8 <_ZN12XBeeResponse15getZBRxResponseERS_>:
    2fe8:	ef 92       	push	r14
    2fea:	ff 92       	push	r15
    2fec:	0f 93       	push	r16
    2fee:	1f 93       	push	r17
    2ff0:	7c 01       	movw	r14, r24
    2ff2:	8b 01       	movw	r16, r22
    2ff4:	0e 94 5a 0f 	call	0x1eb4	; 0x1eb4 <_ZN12XBeeResponse12getFrameDataEv>
    2ff8:	bc 01       	movw	r22, r24
    2ffa:	c8 01       	movw	r24, r16
    2ffc:	0e 94 8c 12 	call	0x2518	; 0x2518 <_ZN12XBeeResponse12setFrameDataEPh>
    3000:	c7 01       	movw	r24, r14
    3002:	b8 01       	movw	r22, r16
    3004:	0e 94 33 0e 	call	0x1c66	; 0x1c66 <_ZN12XBeeResponse9setCommonERS_>
    3008:	02 50       	subi	r16, 0x02	; 2
    300a:	10 40       	sbci	r17, 0x00	; 0
    300c:	c8 01       	movw	r24, r16
    300e:	0e 94 70 0e 	call	0x1ce0	; 0x1ce0 <_ZN12ZBRxResponse18getRemoteAddress64Ev>
    3012:	8c 01       	movw	r16, r24
    3014:	c7 01       	movw	r24, r14
    3016:	0e 94 5a 0f 	call	0x1eb4	; 0x1eb4 <_ZN12XBeeResponse12getFrameDataEv>
    301a:	fc 01       	movw	r30, r24
    301c:	83 81       	ldd	r24, Z+3	; 0x03
    301e:	40 81       	ld	r20, Z
    3020:	50 e0       	ldi	r21, 0x00	; 0
    3022:	60 e0       	ldi	r22, 0x00	; 0
    3024:	70 e0       	ldi	r23, 0x00	; 0
    3026:	74 2f       	mov	r23, r20
    3028:	66 27       	eor	r22, r22
    302a:	55 27       	eor	r21, r21
    302c:	44 27       	eor	r20, r20
    302e:	48 0f       	add	r20, r24
    3030:	51 1d       	adc	r21, r1
    3032:	61 1d       	adc	r22, r1
    3034:	71 1d       	adc	r23, r1
    3036:	81 81       	ldd	r24, Z+1	; 0x01
    3038:	90 e0       	ldi	r25, 0x00	; 0
    303a:	a0 e0       	ldi	r26, 0x00	; 0
    303c:	b0 e0       	ldi	r27, 0x00	; 0
    303e:	dc 01       	movw	r26, r24
    3040:	99 27       	eor	r25, r25
    3042:	88 27       	eor	r24, r24
    3044:	48 0f       	add	r20, r24
    3046:	59 1f       	adc	r21, r25
    3048:	6a 1f       	adc	r22, r26
    304a:	7b 1f       	adc	r23, r27
    304c:	92 81       	ldd	r25, Z+2	; 0x02
    304e:	80 e0       	ldi	r24, 0x00	; 0
    3050:	a0 e0       	ldi	r26, 0x00	; 0
    3052:	b0 e0       	ldi	r27, 0x00	; 0
    3054:	48 0f       	add	r20, r24
    3056:	59 1f       	adc	r21, r25
    3058:	6a 1f       	adc	r22, r26
    305a:	7b 1f       	adc	r23, r27
    305c:	c8 01       	movw	r24, r16
    305e:	0e 94 3c 16 	call	0x2c78	; 0x2c78 <_ZN13XBeeAddress646setMsbEm>
    3062:	c7 01       	movw	r24, r14
    3064:	0e 94 5a 0f 	call	0x1eb4	; 0x1eb4 <_ZN12XBeeResponse12getFrameDataEv>
    3068:	fc 01       	movw	r30, r24
    306a:	44 81       	ldd	r20, Z+4	; 0x04
    306c:	50 e0       	ldi	r21, 0x00	; 0
    306e:	60 e0       	ldi	r22, 0x00	; 0
    3070:	70 e0       	ldi	r23, 0x00	; 0
    3072:	74 2f       	mov	r23, r20
    3074:	66 27       	eor	r22, r22
    3076:	55 27       	eor	r21, r21
    3078:	44 27       	eor	r20, r20
    307a:	85 81       	ldd	r24, Z+5	; 0x05
    307c:	90 e0       	ldi	r25, 0x00	; 0
    307e:	a0 e0       	ldi	r26, 0x00	; 0
    3080:	b0 e0       	ldi	r27, 0x00	; 0
    3082:	dc 01       	movw	r26, r24
    3084:	99 27       	eor	r25, r25
    3086:	88 27       	eor	r24, r24
    3088:	48 0f       	add	r20, r24
    308a:	59 1f       	adc	r21, r25
    308c:	6a 1f       	adc	r22, r26
    308e:	7b 1f       	adc	r23, r27
    3090:	87 81       	ldd	r24, Z+7	; 0x07
    3092:	48 0f       	add	r20, r24
    3094:	51 1d       	adc	r21, r1
    3096:	61 1d       	adc	r22, r1
    3098:	71 1d       	adc	r23, r1
    309a:	96 81       	ldd	r25, Z+6	; 0x06
    309c:	80 e0       	ldi	r24, 0x00	; 0
    309e:	a0 e0       	ldi	r26, 0x00	; 0
    30a0:	b0 e0       	ldi	r27, 0x00	; 0
    30a2:	48 0f       	add	r20, r24
    30a4:	59 1f       	adc	r21, r25
    30a6:	6a 1f       	adc	r22, r26
    30a8:	7b 1f       	adc	r23, r27
    30aa:	c8 01       	movw	r24, r16
    30ac:	0e 94 48 16 	call	0x2c90	; 0x2c90 <_ZN13XBeeAddress646setLsbEm>
    30b0:	1f 91       	pop	r17
    30b2:	0f 91       	pop	r16
    30b4:	ff 90       	pop	r15
    30b6:	ef 90       	pop	r14
    30b8:	08 95       	ret

000030ba <_ZN11ZBTxRequestC2Ev>:
    30ba:	ef 92       	push	r14
    30bc:	ff 92       	push	r15
    30be:	0f 93       	push	r16
    30c0:	7c 01       	movw	r14, r24
    30c2:	60 e1       	ldi	r22, 0x10	; 16
    30c4:	41 e0       	ldi	r20, 0x01	; 1
    30c6:	20 e0       	ldi	r18, 0x00	; 0
    30c8:	30 e0       	ldi	r19, 0x00	; 0
    30ca:	00 e0       	ldi	r16, 0x00	; 0
    30cc:	0e 94 ce 14 	call	0x299c	; 0x299c <_ZN14PayloadRequestC2EhhPhh>
    30d0:	8d e7       	ldi	r24, 0x7D	; 125
    30d2:	95 e0       	ldi	r25, 0x05	; 5
    30d4:	f7 01       	movw	r30, r14
    30d6:	91 83       	std	Z+1, r25	; 0x01
    30d8:	80 83       	st	Z, r24
    30da:	0f 91       	pop	r16
    30dc:	ff 90       	pop	r15
    30de:	ef 90       	pop	r14
    30e0:	08 95       	ret

000030e2 <_ZN11ZBTxRequestC1Ev>:
    30e2:	ef 92       	push	r14
    30e4:	ff 92       	push	r15
    30e6:	0f 93       	push	r16
    30e8:	7c 01       	movw	r14, r24
    30ea:	60 e1       	ldi	r22, 0x10	; 16
    30ec:	41 e0       	ldi	r20, 0x01	; 1
    30ee:	20 e0       	ldi	r18, 0x00	; 0
    30f0:	30 e0       	ldi	r19, 0x00	; 0
    30f2:	00 e0       	ldi	r16, 0x00	; 0
    30f4:	0e 94 ce 14 	call	0x299c	; 0x299c <_ZN14PayloadRequestC2EhhPhh>
    30f8:	8d e7       	ldi	r24, 0x7D	; 125
    30fa:	95 e0       	ldi	r25, 0x05	; 5
    30fc:	f7 01       	movw	r30, r14
    30fe:	91 83       	std	Z+1, r25	; 0x01
    3100:	80 83       	st	Z, r24
    3102:	0f 91       	pop	r16
    3104:	ff 90       	pop	r15
    3106:	ef 90       	pop	r14
    3108:	08 95       	ret

0000310a <_ZN11ZBTxRequestC2ER13XBeeAddress64jhhPhhh>:
    310a:	7f 92       	push	r7
    310c:	8f 92       	push	r8
    310e:	9f 92       	push	r9
    3110:	af 92       	push	r10
    3112:	bf 92       	push	r11
    3114:	cf 92       	push	r12
    3116:	df 92       	push	r13
    3118:	ef 92       	push	r14
    311a:	ff 92       	push	r15
    311c:	0f 93       	push	r16
    311e:	1f 93       	push	r17
    3120:	cf 93       	push	r28
    3122:	df 93       	push	r29
    3124:	ec 01       	movw	r28, r24
    3126:	16 2f       	mov	r17, r22
    3128:	d7 2e       	mov	r13, r23
    312a:	4a 01       	movw	r8, r20
    312c:	b2 2e       	mov	r11, r18
    312e:	70 2e       	mov	r7, r16
    3130:	97 01       	movw	r18, r14
    3132:	0c 2d       	mov	r16, r12
    3134:	4a 2d       	mov	r20, r10
    3136:	60 e1       	ldi	r22, 0x10	; 16
    3138:	0e 94 ce 14 	call	0x299c	; 0x299c <_ZN14PayloadRequestC2EhhPhh>
    313c:	8d e7       	ldi	r24, 0x7D	; 125
    313e:	95 e0       	ldi	r25, 0x05	; 5
    3140:	99 83       	std	Y+1, r25	; 0x01
    3142:	88 83       	st	Y, r24
    3144:	de 01       	movw	r26, r28
    3146:	17 96       	adiw	r26, 0x07	; 7
    3148:	21 2f       	mov	r18, r17
    314a:	3d 2d       	mov	r19, r13
    314c:	c9 01       	movw	r24, r18
    314e:	fc 01       	movw	r30, r24
    3150:	88 e0       	ldi	r24, 0x08	; 8
    3152:	01 90       	ld	r0, Z+
    3154:	0d 92       	st	X+, r0
    3156:	81 50       	subi	r24, 0x01	; 1
    3158:	e1 f7       	brne	.-8      	; 0x3152 <_ZN11ZBTxRequestC2ER13XBeeAddress64jhhPhhh+0x48>
    315a:	98 8a       	std	Y+16, r9	; 0x10
    315c:	8f 86       	std	Y+15, r8	; 0x0f
    315e:	b9 8a       	std	Y+17, r11	; 0x11
    3160:	7a 8a       	std	Y+18, r7	; 0x12
    3162:	df 91       	pop	r29
    3164:	cf 91       	pop	r28
    3166:	1f 91       	pop	r17
    3168:	0f 91       	pop	r16
    316a:	ff 90       	pop	r15
    316c:	ef 90       	pop	r14
    316e:	df 90       	pop	r13
    3170:	cf 90       	pop	r12
    3172:	bf 90       	pop	r11
    3174:	af 90       	pop	r10
    3176:	9f 90       	pop	r9
    3178:	8f 90       	pop	r8
    317a:	7f 90       	pop	r7
    317c:	08 95       	ret

0000317e <_ZN11ZBTxRequestC1ER13XBeeAddress64jhhPhhh>:
    317e:	7f 92       	push	r7
    3180:	8f 92       	push	r8
    3182:	9f 92       	push	r9
    3184:	af 92       	push	r10
    3186:	bf 92       	push	r11
    3188:	cf 92       	push	r12
    318a:	df 92       	push	r13
    318c:	ef 92       	push	r14
    318e:	ff 92       	push	r15
    3190:	0f 93       	push	r16
    3192:	1f 93       	push	r17
    3194:	cf 93       	push	r28
    3196:	df 93       	push	r29
    3198:	ec 01       	movw	r28, r24
    319a:	16 2f       	mov	r17, r22
    319c:	d7 2e       	mov	r13, r23
    319e:	4a 01       	movw	r8, r20
    31a0:	b2 2e       	mov	r11, r18
    31a2:	70 2e       	mov	r7, r16
    31a4:	97 01       	movw	r18, r14
    31a6:	0c 2d       	mov	r16, r12
    31a8:	4a 2d       	mov	r20, r10
    31aa:	60 e1       	ldi	r22, 0x10	; 16
    31ac:	0e 94 ce 14 	call	0x299c	; 0x299c <_ZN14PayloadRequestC2EhhPhh>
    31b0:	8d e7       	ldi	r24, 0x7D	; 125
    31b2:	95 e0       	ldi	r25, 0x05	; 5
    31b4:	99 83       	std	Y+1, r25	; 0x01
    31b6:	88 83       	st	Y, r24
    31b8:	de 01       	movw	r26, r28
    31ba:	17 96       	adiw	r26, 0x07	; 7
    31bc:	21 2f       	mov	r18, r17
    31be:	3d 2d       	mov	r19, r13
    31c0:	c9 01       	movw	r24, r18
    31c2:	fc 01       	movw	r30, r24
    31c4:	88 e0       	ldi	r24, 0x08	; 8
    31c6:	01 90       	ld	r0, Z+
    31c8:	0d 92       	st	X+, r0
    31ca:	81 50       	subi	r24, 0x01	; 1
    31cc:	e1 f7       	brne	.-8      	; 0x31c6 <_ZN11ZBTxRequestC1ER13XBeeAddress64jhhPhhh+0x48>
    31ce:	98 8a       	std	Y+16, r9	; 0x10
    31d0:	8f 86       	std	Y+15, r8	; 0x0f
    31d2:	b9 8a       	std	Y+17, r11	; 0x11
    31d4:	7a 8a       	std	Y+18, r7	; 0x12
    31d6:	df 91       	pop	r29
    31d8:	cf 91       	pop	r28
    31da:	1f 91       	pop	r17
    31dc:	0f 91       	pop	r16
    31de:	ff 90       	pop	r15
    31e0:	ef 90       	pop	r14
    31e2:	df 90       	pop	r13
    31e4:	cf 90       	pop	r12
    31e6:	bf 90       	pop	r11
    31e8:	af 90       	pop	r10
    31ea:	9f 90       	pop	r9
    31ec:	8f 90       	pop	r8
    31ee:	7f 90       	pop	r7
    31f0:	08 95       	ret

000031f2 <_ZN11ZBTxRequestC2ER13XBeeAddress64Phh>:
    31f2:	ff 92       	push	r15
    31f4:	0f 93       	push	r16
    31f6:	1f 93       	push	r17
    31f8:	cf 93       	push	r28
    31fa:	df 93       	push	r29
    31fc:	ec 01       	movw	r28, r24
    31fe:	16 2f       	mov	r17, r22
    3200:	f7 2e       	mov	r15, r23
    3202:	fa 01       	movw	r30, r20
    3204:	02 2f       	mov	r16, r18
    3206:	60 e1       	ldi	r22, 0x10	; 16
    3208:	41 e0       	ldi	r20, 0x01	; 1
    320a:	9f 01       	movw	r18, r30
    320c:	0e 94 ce 14 	call	0x299c	; 0x299c <_ZN14PayloadRequestC2EhhPhh>
    3210:	8d e7       	ldi	r24, 0x7D	; 125
    3212:	95 e0       	ldi	r25, 0x05	; 5
    3214:	99 83       	std	Y+1, r25	; 0x01
    3216:	88 83       	st	Y, r24
    3218:	de 01       	movw	r26, r28
    321a:	17 96       	adiw	r26, 0x07	; 7
    321c:	21 2f       	mov	r18, r17
    321e:	3f 2d       	mov	r19, r15
    3220:	c9 01       	movw	r24, r18
    3222:	fc 01       	movw	r30, r24
    3224:	88 e0       	ldi	r24, 0x08	; 8
    3226:	01 90       	ld	r0, Z+
    3228:	0d 92       	st	X+, r0
    322a:	81 50       	subi	r24, 0x01	; 1
    322c:	e1 f7       	brne	.-8      	; 0x3226 <_ZN11ZBTxRequestC2ER13XBeeAddress64Phh+0x34>
    322e:	8e ef       	ldi	r24, 0xFE	; 254
    3230:	9f ef       	ldi	r25, 0xFF	; 255
    3232:	98 8b       	std	Y+16, r25	; 0x10
    3234:	8f 87       	std	Y+15, r24	; 0x0f
    3236:	19 8a       	std	Y+17, r1	; 0x11
    3238:	1a 8a       	std	Y+18, r1	; 0x12
    323a:	df 91       	pop	r29
    323c:	cf 91       	pop	r28
    323e:	1f 91       	pop	r17
    3240:	0f 91       	pop	r16
    3242:	ff 90       	pop	r15
    3244:	08 95       	ret

00003246 <_ZN11ZBTxRequestC1ER13XBeeAddress64Phh>:
    3246:	ff 92       	push	r15
    3248:	0f 93       	push	r16
    324a:	1f 93       	push	r17
    324c:	cf 93       	push	r28
    324e:	df 93       	push	r29
    3250:	ec 01       	movw	r28, r24
    3252:	16 2f       	mov	r17, r22
    3254:	f7 2e       	mov	r15, r23
    3256:	fa 01       	movw	r30, r20
    3258:	02 2f       	mov	r16, r18
    325a:	60 e1       	ldi	r22, 0x10	; 16
    325c:	41 e0       	ldi	r20, 0x01	; 1
    325e:	9f 01       	movw	r18, r30
    3260:	0e 94 ce 14 	call	0x299c	; 0x299c <_ZN14PayloadRequestC2EhhPhh>
    3264:	8d e7       	ldi	r24, 0x7D	; 125
    3266:	95 e0       	ldi	r25, 0x05	; 5
    3268:	99 83       	std	Y+1, r25	; 0x01
    326a:	88 83       	st	Y, r24
    326c:	de 01       	movw	r26, r28
    326e:	17 96       	adiw	r26, 0x07	; 7
    3270:	21 2f       	mov	r18, r17
    3272:	3f 2d       	mov	r19, r15
    3274:	c9 01       	movw	r24, r18
    3276:	fc 01       	movw	r30, r24
    3278:	88 e0       	ldi	r24, 0x08	; 8
    327a:	01 90       	ld	r0, Z+
    327c:	0d 92       	st	X+, r0
    327e:	81 50       	subi	r24, 0x01	; 1
    3280:	e1 f7       	brne	.-8      	; 0x327a <_ZN11ZBTxRequestC1ER13XBeeAddress64Phh+0x34>
    3282:	8e ef       	ldi	r24, 0xFE	; 254
    3284:	9f ef       	ldi	r25, 0xFF	; 255
    3286:	98 8b       	std	Y+16, r25	; 0x10
    3288:	8f 87       	std	Y+15, r24	; 0x0f
    328a:	19 8a       	std	Y+17, r1	; 0x11
    328c:	1a 8a       	std	Y+18, r1	; 0x12
    328e:	df 91       	pop	r29
    3290:	cf 91       	pop	r28
    3292:	1f 91       	pop	r17
    3294:	0f 91       	pop	r16
    3296:	ff 90       	pop	r15
    3298:	08 95       	ret

0000329a <_ZN11ZBTxRequest12getFrameDataEh>:
    329a:	1f 93       	push	r17
    329c:	fc 01       	movw	r30, r24
    329e:	16 2f       	mov	r17, r22
    32a0:	66 23       	and	r22, r22
    32a2:	21 f4       	brne	.+8      	; 0x32ac <_ZN11ZBTxRequest12getFrameDataEh+0x12>
    32a4:	07 96       	adiw	r24, 0x07	; 7
    32a6:	0e 94 36 16 	call	0x2c6c	; 0x2c6c <_ZN13XBeeAddress646getMsbEv>
    32aa:	17 c0       	rjmp	.+46     	; 0x32da <_ZN11ZBTxRequest12getFrameDataEh+0x40>
    32ac:	61 30       	cpi	r22, 0x01	; 1
    32ae:	21 f4       	brne	.+8      	; 0x32b8 <_ZN11ZBTxRequest12getFrameDataEh+0x1e>
    32b0:	07 96       	adiw	r24, 0x07	; 7
    32b2:	0e 94 36 16 	call	0x2c6c	; 0x2c6c <_ZN13XBeeAddress646getMsbEv>
    32b6:	1b c0       	rjmp	.+54     	; 0x32ee <_ZN11ZBTxRequest12getFrameDataEh+0x54>
    32b8:	62 30       	cpi	r22, 0x02	; 2
    32ba:	21 f4       	brne	.+8      	; 0x32c4 <_ZN11ZBTxRequest12getFrameDataEh+0x2a>
    32bc:	07 96       	adiw	r24, 0x07	; 7
    32be:	0e 94 36 16 	call	0x2c6c	; 0x2c6c <_ZN13XBeeAddress646getMsbEv>
    32c2:	1e c0       	rjmp	.+60     	; 0x3300 <_ZN11ZBTxRequest12getFrameDataEh+0x66>
    32c4:	63 30       	cpi	r22, 0x03	; 3
    32c6:	21 f4       	brne	.+8      	; 0x32d0 <_ZN11ZBTxRequest12getFrameDataEh+0x36>
    32c8:	07 96       	adiw	r24, 0x07	; 7
    32ca:	0e 94 36 16 	call	0x2c6c	; 0x2c6c <_ZN13XBeeAddress646getMsbEv>
    32ce:	3a c0       	rjmp	.+116    	; 0x3344 <_ZN11ZBTxRequest12getFrameDataEh+0xaa>
    32d0:	64 30       	cpi	r22, 0x04	; 4
    32d2:	41 f4       	brne	.+16     	; 0x32e4 <_ZN11ZBTxRequest12getFrameDataEh+0x4a>
    32d4:	07 96       	adiw	r24, 0x07	; 7
    32d6:	0e 94 42 16 	call	0x2c84	; 0x2c84 <_ZN13XBeeAddress646getLsbEv>
    32da:	69 2f       	mov	r22, r25
    32dc:	77 27       	eor	r23, r23
    32de:	88 27       	eor	r24, r24
    32e0:	99 27       	eor	r25, r25
    32e2:	30 c0       	rjmp	.+96     	; 0x3344 <_ZN11ZBTxRequest12getFrameDataEh+0xaa>
    32e4:	65 30       	cpi	r22, 0x05	; 5
    32e6:	39 f4       	brne	.+14     	; 0x32f6 <_ZN11ZBTxRequest12getFrameDataEh+0x5c>
    32e8:	07 96       	adiw	r24, 0x07	; 7
    32ea:	0e 94 42 16 	call	0x2c84	; 0x2c84 <_ZN13XBeeAddress646getLsbEv>
    32ee:	bc 01       	movw	r22, r24
    32f0:	88 27       	eor	r24, r24
    32f2:	99 27       	eor	r25, r25
    32f4:	27 c0       	rjmp	.+78     	; 0x3344 <_ZN11ZBTxRequest12getFrameDataEh+0xaa>
    32f6:	66 30       	cpi	r22, 0x06	; 6
    32f8:	41 f4       	brne	.+16     	; 0x330a <_ZN11ZBTxRequest12getFrameDataEh+0x70>
    32fa:	07 96       	adiw	r24, 0x07	; 7
    32fc:	0e 94 42 16 	call	0x2c84	; 0x2c84 <_ZN13XBeeAddress646getLsbEv>
    3300:	67 2f       	mov	r22, r23
    3302:	78 2f       	mov	r23, r24
    3304:	89 2f       	mov	r24, r25
    3306:	99 27       	eor	r25, r25
    3308:	1d c0       	rjmp	.+58     	; 0x3344 <_ZN11ZBTxRequest12getFrameDataEh+0xaa>
    330a:	67 30       	cpi	r22, 0x07	; 7
    330c:	21 f4       	brne	.+8      	; 0x3316 <_ZN11ZBTxRequest12getFrameDataEh+0x7c>
    330e:	07 96       	adiw	r24, 0x07	; 7
    3310:	0e 94 42 16 	call	0x2c84	; 0x2c84 <_ZN13XBeeAddress646getLsbEv>
    3314:	17 c0       	rjmp	.+46     	; 0x3344 <_ZN11ZBTxRequest12getFrameDataEh+0xaa>
    3316:	68 30       	cpi	r22, 0x08	; 8
    3318:	11 f4       	brne	.+4      	; 0x331e <_ZN11ZBTxRequest12getFrameDataEh+0x84>
    331a:	60 89       	ldd	r22, Z+16	; 0x10
    331c:	13 c0       	rjmp	.+38     	; 0x3344 <_ZN11ZBTxRequest12getFrameDataEh+0xaa>
    331e:	69 30       	cpi	r22, 0x09	; 9
    3320:	11 f4       	brne	.+4      	; 0x3326 <_ZN11ZBTxRequest12getFrameDataEh+0x8c>
    3322:	67 85       	ldd	r22, Z+15	; 0x0f
    3324:	0f c0       	rjmp	.+30     	; 0x3344 <_ZN11ZBTxRequest12getFrameDataEh+0xaa>
    3326:	6a 30       	cpi	r22, 0x0A	; 10
    3328:	11 f4       	brne	.+4      	; 0x332e <_ZN11ZBTxRequest12getFrameDataEh+0x94>
    332a:	61 89       	ldd	r22, Z+17	; 0x11
    332c:	0b c0       	rjmp	.+22     	; 0x3344 <_ZN11ZBTxRequest12getFrameDataEh+0xaa>
    332e:	6b 30       	cpi	r22, 0x0B	; 11
    3330:	11 f4       	brne	.+4      	; 0x3336 <_ZN11ZBTxRequest12getFrameDataEh+0x9c>
    3332:	62 89       	ldd	r22, Z+18	; 0x12
    3334:	07 c0       	rjmp	.+14     	; 0x3344 <_ZN11ZBTxRequest12getFrameDataEh+0xaa>
    3336:	0e 94 fc 14 	call	0x29f8	; 0x29f8 <_ZN14PayloadRequest10getPayloadEv>
    333a:	fc 01       	movw	r30, r24
    333c:	e1 0f       	add	r30, r17
    333e:	f1 1d       	adc	r31, r1
    3340:	3c 97       	sbiw	r30, 0x0c	; 12
    3342:	60 81       	ld	r22, Z
    3344:	86 2f       	mov	r24, r22
    3346:	1f 91       	pop	r17
    3348:	08 95       	ret

0000334a <_ZN11ZBTxRequest18getFrameDataLengthEv>:
    334a:	0e 94 04 15 	call	0x2a08	; 0x2a08 <_ZN14PayloadRequest16getPayloadLengthEv>
    334e:	84 5f       	subi	r24, 0xF4	; 244
    3350:	08 95       	ret

00003352 <_ZN11ZBTxRequest12getAddress64Ev>:
    3352:	9c 01       	movw	r18, r24
    3354:	29 5f       	subi	r18, 0xF9	; 249
    3356:	3f 4f       	sbci	r19, 0xFF	; 255
    3358:	c9 01       	movw	r24, r18
    335a:	08 95       	ret

0000335c <_ZN11ZBTxRequest12getAddress16Ev>:
    335c:	fc 01       	movw	r30, r24
    335e:	87 85       	ldd	r24, Z+15	; 0x0f
    3360:	90 89       	ldd	r25, Z+16	; 0x10
    3362:	08 95       	ret

00003364 <_ZN11ZBTxRequest18getBroadcastRadiusEv>:
    3364:	fc 01       	movw	r30, r24
    3366:	81 89       	ldd	r24, Z+17	; 0x11
    3368:	08 95       	ret

0000336a <_ZN11ZBTxRequest9getOptionEv>:
    336a:	fc 01       	movw	r30, r24
    336c:	82 89       	ldd	r24, Z+18	; 0x12
    336e:	08 95       	ret

00003370 <_ZN11ZBTxRequest12setAddress64ER13XBeeAddress64>:
    3370:	dc 01       	movw	r26, r24
    3372:	17 96       	adiw	r26, 0x07	; 7
    3374:	fb 01       	movw	r30, r22
    3376:	88 e0       	ldi	r24, 0x08	; 8
    3378:	01 90       	ld	r0, Z+
    337a:	0d 92       	st	X+, r0
    337c:	81 50       	subi	r24, 0x01	; 1
    337e:	e1 f7       	brne	.-8      	; 0x3378 <_ZN11ZBTxRequest12setAddress64ER13XBeeAddress64+0x8>
    3380:	08 95       	ret

00003382 <_ZN11ZBTxRequest12setAddress16Ej>:
    3382:	fc 01       	movw	r30, r24
    3384:	70 8b       	std	Z+16, r23	; 0x10
    3386:	67 87       	std	Z+15, r22	; 0x0f
    3388:	08 95       	ret

0000338a <_ZN11ZBTxRequest18setBroadcastRadiusEh>:
    338a:	fc 01       	movw	r30, r24
    338c:	61 8b       	std	Z+17, r22	; 0x11
    338e:	08 95       	ret

00003390 <_ZN11ZBTxRequest9setOptionEh>:
    3390:	fc 01       	movw	r30, r24
    3392:	62 8b       	std	Z+18, r22	; 0x12
    3394:	08 95       	ret

00003396 <_ZN11Tx16RequestC2Ev>:
    3396:	ef 92       	push	r14
    3398:	ff 92       	push	r15
    339a:	0f 93       	push	r16
    339c:	7c 01       	movw	r14, r24
    339e:	61 e0       	ldi	r22, 0x01	; 1
    33a0:	41 e0       	ldi	r20, 0x01	; 1
    33a2:	20 e0       	ldi	r18, 0x00	; 0
    33a4:	30 e0       	ldi	r19, 0x00	; 0
    33a6:	00 e0       	ldi	r16, 0x00	; 0
    33a8:	0e 94 ce 14 	call	0x299c	; 0x299c <_ZN14PayloadRequestC2EhhPhh>
    33ac:	85 e7       	ldi	r24, 0x75	; 117
    33ae:	95 e0       	ldi	r25, 0x05	; 5
    33b0:	f7 01       	movw	r30, r14
    33b2:	91 83       	std	Z+1, r25	; 0x01
    33b4:	80 83       	st	Z, r24
    33b6:	0f 91       	pop	r16
    33b8:	ff 90       	pop	r15
    33ba:	ef 90       	pop	r14
    33bc:	08 95       	ret

000033be <_ZN11Tx16RequestC1Ev>:
    33be:	ef 92       	push	r14
    33c0:	ff 92       	push	r15
    33c2:	0f 93       	push	r16
    33c4:	7c 01       	movw	r14, r24
    33c6:	61 e0       	ldi	r22, 0x01	; 1
    33c8:	41 e0       	ldi	r20, 0x01	; 1
    33ca:	20 e0       	ldi	r18, 0x00	; 0
    33cc:	30 e0       	ldi	r19, 0x00	; 0
    33ce:	00 e0       	ldi	r16, 0x00	; 0
    33d0:	0e 94 ce 14 	call	0x299c	; 0x299c <_ZN14PayloadRequestC2EhhPhh>
    33d4:	85 e7       	ldi	r24, 0x75	; 117
    33d6:	95 e0       	ldi	r25, 0x05	; 5
    33d8:	f7 01       	movw	r30, r14
    33da:	91 83       	std	Z+1, r25	; 0x01
    33dc:	80 83       	st	Z, r24
    33de:	0f 91       	pop	r16
    33e0:	ff 90       	pop	r15
    33e2:	ef 90       	pop	r14
    33e4:	08 95       	ret

000033e6 <_ZN11Tx16RequestC2EjhPhhh>:
    33e6:	af 92       	push	r10
    33e8:	bf 92       	push	r11
    33ea:	cf 92       	push	r12
    33ec:	df 92       	push	r13
    33ee:	ef 92       	push	r14
    33f0:	0f 93       	push	r16
    33f2:	1f 93       	push	r17
    33f4:	6c 01       	movw	r12, r24
    33f6:	5b 01       	movw	r10, r22
    33f8:	14 2f       	mov	r17, r20
    33fa:	4e 2d       	mov	r20, r14
    33fc:	61 e0       	ldi	r22, 0x01	; 1
    33fe:	0e 94 ce 14 	call	0x299c	; 0x299c <_ZN14PayloadRequestC2EhhPhh>
    3402:	85 e7       	ldi	r24, 0x75	; 117
    3404:	95 e0       	ldi	r25, 0x05	; 5
    3406:	f6 01       	movw	r30, r12
    3408:	91 83       	std	Z+1, r25	; 0x01
    340a:	80 83       	st	Z, r24
    340c:	b0 86       	std	Z+8, r11	; 0x08
    340e:	a7 82       	std	Z+7, r10	; 0x07
    3410:	11 87       	std	Z+9, r17	; 0x09
    3412:	1f 91       	pop	r17
    3414:	0f 91       	pop	r16
    3416:	ef 90       	pop	r14
    3418:	df 90       	pop	r13
    341a:	cf 90       	pop	r12
    341c:	bf 90       	pop	r11
    341e:	af 90       	pop	r10
    3420:	08 95       	ret

00003422 <_ZN11Tx16RequestC1EjhPhhh>:
    3422:	af 92       	push	r10
    3424:	bf 92       	push	r11
    3426:	cf 92       	push	r12
    3428:	df 92       	push	r13
    342a:	ef 92       	push	r14
    342c:	0f 93       	push	r16
    342e:	1f 93       	push	r17
    3430:	6c 01       	movw	r12, r24
    3432:	5b 01       	movw	r10, r22
    3434:	14 2f       	mov	r17, r20
    3436:	4e 2d       	mov	r20, r14
    3438:	61 e0       	ldi	r22, 0x01	; 1
    343a:	0e 94 ce 14 	call	0x299c	; 0x299c <_ZN14PayloadRequestC2EhhPhh>
    343e:	85 e7       	ldi	r24, 0x75	; 117
    3440:	95 e0       	ldi	r25, 0x05	; 5
    3442:	f6 01       	movw	r30, r12
    3444:	91 83       	std	Z+1, r25	; 0x01
    3446:	80 83       	st	Z, r24
    3448:	b0 86       	std	Z+8, r11	; 0x08
    344a:	a7 82       	std	Z+7, r10	; 0x07
    344c:	11 87       	std	Z+9, r17	; 0x09
    344e:	1f 91       	pop	r17
    3450:	0f 91       	pop	r16
    3452:	ef 90       	pop	r14
    3454:	df 90       	pop	r13
    3456:	cf 90       	pop	r12
    3458:	bf 90       	pop	r11
    345a:	af 90       	pop	r10
    345c:	08 95       	ret

0000345e <_ZN11Tx16RequestC2EjPhh>:
    345e:	cf 92       	push	r12
    3460:	df 92       	push	r13
    3462:	ef 92       	push	r14
    3464:	ff 92       	push	r15
    3466:	0f 93       	push	r16
    3468:	7c 01       	movw	r14, r24
    346a:	6b 01       	movw	r12, r22
    346c:	fa 01       	movw	r30, r20
    346e:	02 2f       	mov	r16, r18
    3470:	61 e0       	ldi	r22, 0x01	; 1
    3472:	41 e0       	ldi	r20, 0x01	; 1
    3474:	9f 01       	movw	r18, r30
    3476:	0e 94 ce 14 	call	0x299c	; 0x299c <_ZN14PayloadRequestC2EhhPhh>
    347a:	85 e7       	ldi	r24, 0x75	; 117
    347c:	95 e0       	ldi	r25, 0x05	; 5
    347e:	f7 01       	movw	r30, r14
    3480:	91 83       	std	Z+1, r25	; 0x01
    3482:	80 83       	st	Z, r24
    3484:	d0 86       	std	Z+8, r13	; 0x08
    3486:	c7 82       	std	Z+7, r12	; 0x07
    3488:	11 86       	std	Z+9, r1	; 0x09
    348a:	0f 91       	pop	r16
    348c:	ff 90       	pop	r15
    348e:	ef 90       	pop	r14
    3490:	df 90       	pop	r13
    3492:	cf 90       	pop	r12
    3494:	08 95       	ret

00003496 <_ZN11Tx16RequestC1EjPhh>:
    3496:	cf 92       	push	r12
    3498:	df 92       	push	r13
    349a:	ef 92       	push	r14
    349c:	ff 92       	push	r15
    349e:	0f 93       	push	r16
    34a0:	7c 01       	movw	r14, r24
    34a2:	6b 01       	movw	r12, r22
    34a4:	fa 01       	movw	r30, r20
    34a6:	02 2f       	mov	r16, r18
    34a8:	61 e0       	ldi	r22, 0x01	; 1
    34aa:	41 e0       	ldi	r20, 0x01	; 1
    34ac:	9f 01       	movw	r18, r30
    34ae:	0e 94 ce 14 	call	0x299c	; 0x299c <_ZN14PayloadRequestC2EhhPhh>
    34b2:	85 e7       	ldi	r24, 0x75	; 117
    34b4:	95 e0       	ldi	r25, 0x05	; 5
    34b6:	f7 01       	movw	r30, r14
    34b8:	91 83       	std	Z+1, r25	; 0x01
    34ba:	80 83       	st	Z, r24
    34bc:	d0 86       	std	Z+8, r13	; 0x08
    34be:	c7 82       	std	Z+7, r12	; 0x07
    34c0:	11 86       	std	Z+9, r1	; 0x09
    34c2:	0f 91       	pop	r16
    34c4:	ff 90       	pop	r15
    34c6:	ef 90       	pop	r14
    34c8:	df 90       	pop	r13
    34ca:	cf 90       	pop	r12
    34cc:	08 95       	ret

000034ce <_ZN11Tx16Request12getFrameDataEh>:
    34ce:	1f 93       	push	r17
    34d0:	fc 01       	movw	r30, r24
    34d2:	16 2f       	mov	r17, r22
    34d4:	66 23       	and	r22, r22
    34d6:	11 f4       	brne	.+4      	; 0x34dc <_ZN11Tx16Request12getFrameDataEh+0xe>
    34d8:	80 85       	ldd	r24, Z+8	; 0x08
    34da:	0f c0       	rjmp	.+30     	; 0x34fa <_ZN11Tx16Request12getFrameDataEh+0x2c>
    34dc:	61 30       	cpi	r22, 0x01	; 1
    34de:	11 f4       	brne	.+4      	; 0x34e4 <_ZN11Tx16Request12getFrameDataEh+0x16>
    34e0:	87 81       	ldd	r24, Z+7	; 0x07
    34e2:	0b c0       	rjmp	.+22     	; 0x34fa <_ZN11Tx16Request12getFrameDataEh+0x2c>
    34e4:	62 30       	cpi	r22, 0x02	; 2
    34e6:	11 f4       	brne	.+4      	; 0x34ec <_ZN11Tx16Request12getFrameDataEh+0x1e>
    34e8:	81 85       	ldd	r24, Z+9	; 0x09
    34ea:	07 c0       	rjmp	.+14     	; 0x34fa <_ZN11Tx16Request12getFrameDataEh+0x2c>
    34ec:	0e 94 fc 14 	call	0x29f8	; 0x29f8 <_ZN14PayloadRequest10getPayloadEv>
    34f0:	fc 01       	movw	r30, r24
    34f2:	e1 0f       	add	r30, r17
    34f4:	f1 1d       	adc	r31, r1
    34f6:	33 97       	sbiw	r30, 0x03	; 3
    34f8:	80 81       	ld	r24, Z
    34fa:	1f 91       	pop	r17
    34fc:	08 95       	ret

000034fe <_ZN11Tx16Request18getFrameDataLengthEv>:
    34fe:	0e 94 04 15 	call	0x2a08	; 0x2a08 <_ZN14PayloadRequest16getPayloadLengthEv>
    3502:	8d 5f       	subi	r24, 0xFD	; 253
    3504:	08 95       	ret

00003506 <_ZN11Tx16Request12getAddress16Ev>:
    3506:	fc 01       	movw	r30, r24
    3508:	87 81       	ldd	r24, Z+7	; 0x07
    350a:	90 85       	ldd	r25, Z+8	; 0x08
    350c:	08 95       	ret

0000350e <_ZN11Tx16Request12setAddress16Ej>:
    350e:	fc 01       	movw	r30, r24
    3510:	70 87       	std	Z+8, r23	; 0x08
    3512:	67 83       	std	Z+7, r22	; 0x07
    3514:	08 95       	ret

00003516 <_ZN11Tx16Request9getOptionEv>:
    3516:	fc 01       	movw	r30, r24
    3518:	81 85       	ldd	r24, Z+9	; 0x09
    351a:	08 95       	ret

0000351c <_ZN11Tx16Request9setOptionEh>:
    351c:	fc 01       	movw	r30, r24
    351e:	61 87       	std	Z+9, r22	; 0x09
    3520:	08 95       	ret

00003522 <_ZN11Tx64RequestC2Ev>:
    3522:	ef 92       	push	r14
    3524:	ff 92       	push	r15
    3526:	0f 93       	push	r16
    3528:	7c 01       	movw	r14, r24
    352a:	60 e0       	ldi	r22, 0x00	; 0
    352c:	41 e0       	ldi	r20, 0x01	; 1
    352e:	20 e0       	ldi	r18, 0x00	; 0
    3530:	30 e0       	ldi	r19, 0x00	; 0
    3532:	00 e0       	ldi	r16, 0x00	; 0
    3534:	0e 94 ce 14 	call	0x299c	; 0x299c <_ZN14PayloadRequestC2EhhPhh>
    3538:	8d e6       	ldi	r24, 0x6D	; 109
    353a:	95 e0       	ldi	r25, 0x05	; 5
    353c:	f7 01       	movw	r30, r14
    353e:	91 83       	std	Z+1, r25	; 0x01
    3540:	80 83       	st	Z, r24
    3542:	0f 91       	pop	r16
    3544:	ff 90       	pop	r15
    3546:	ef 90       	pop	r14
    3548:	08 95       	ret

0000354a <_ZN11Tx64RequestC1Ev>:
    354a:	ef 92       	push	r14
    354c:	ff 92       	push	r15
    354e:	0f 93       	push	r16
    3550:	7c 01       	movw	r14, r24
    3552:	60 e0       	ldi	r22, 0x00	; 0
    3554:	41 e0       	ldi	r20, 0x01	; 1
    3556:	20 e0       	ldi	r18, 0x00	; 0
    3558:	30 e0       	ldi	r19, 0x00	; 0
    355a:	00 e0       	ldi	r16, 0x00	; 0
    355c:	0e 94 ce 14 	call	0x299c	; 0x299c <_ZN14PayloadRequestC2EhhPhh>
    3560:	8d e6       	ldi	r24, 0x6D	; 109
    3562:	95 e0       	ldi	r25, 0x05	; 5
    3564:	f7 01       	movw	r30, r14
    3566:	91 83       	std	Z+1, r25	; 0x01
    3568:	80 83       	st	Z, r24
    356a:	0f 91       	pop	r16
    356c:	ff 90       	pop	r15
    356e:	ef 90       	pop	r14
    3570:	08 95       	ret

00003572 <_ZN11Tx64RequestC2ER13XBeeAddress64hPhhh>:
    3572:	df 92       	push	r13
    3574:	ef 92       	push	r14
    3576:	ff 92       	push	r15
    3578:	0f 93       	push	r16
    357a:	1f 93       	push	r17
    357c:	cf 93       	push	r28
    357e:	df 93       	push	r29
    3580:	ec 01       	movw	r28, r24
    3582:	16 2f       	mov	r17, r22
    3584:	f7 2e       	mov	r15, r23
    3586:	d4 2e       	mov	r13, r20
    3588:	4e 2d       	mov	r20, r14
    358a:	60 e0       	ldi	r22, 0x00	; 0
    358c:	0e 94 ce 14 	call	0x299c	; 0x299c <_ZN14PayloadRequestC2EhhPhh>
    3590:	8d e6       	ldi	r24, 0x6D	; 109
    3592:	95 e0       	ldi	r25, 0x05	; 5
    3594:	99 83       	std	Y+1, r25	; 0x01
    3596:	88 83       	st	Y, r24
    3598:	de 01       	movw	r26, r28
    359a:	17 96       	adiw	r26, 0x07	; 7
    359c:	21 2f       	mov	r18, r17
    359e:	3f 2d       	mov	r19, r15
    35a0:	c9 01       	movw	r24, r18
    35a2:	fc 01       	movw	r30, r24
    35a4:	88 e0       	ldi	r24, 0x08	; 8
    35a6:	01 90       	ld	r0, Z+
    35a8:	0d 92       	st	X+, r0
    35aa:	81 50       	subi	r24, 0x01	; 1
    35ac:	e1 f7       	brne	.-8      	; 0x35a6 <_ZN11Tx64RequestC2ER13XBeeAddress64hPhhh+0x34>
    35ae:	df 86       	std	Y+15, r13	; 0x0f
    35b0:	df 91       	pop	r29
    35b2:	cf 91       	pop	r28
    35b4:	1f 91       	pop	r17
    35b6:	0f 91       	pop	r16
    35b8:	ff 90       	pop	r15
    35ba:	ef 90       	pop	r14
    35bc:	df 90       	pop	r13
    35be:	08 95       	ret

000035c0 <_ZN11Tx64RequestC1ER13XBeeAddress64hPhhh>:
    35c0:	df 92       	push	r13
    35c2:	ef 92       	push	r14
    35c4:	ff 92       	push	r15
    35c6:	0f 93       	push	r16
    35c8:	1f 93       	push	r17
    35ca:	cf 93       	push	r28
    35cc:	df 93       	push	r29
    35ce:	ec 01       	movw	r28, r24
    35d0:	16 2f       	mov	r17, r22
    35d2:	f7 2e       	mov	r15, r23
    35d4:	d4 2e       	mov	r13, r20
    35d6:	4e 2d       	mov	r20, r14
    35d8:	60 e0       	ldi	r22, 0x00	; 0
    35da:	0e 94 ce 14 	call	0x299c	; 0x299c <_ZN14PayloadRequestC2EhhPhh>
    35de:	8d e6       	ldi	r24, 0x6D	; 109
    35e0:	95 e0       	ldi	r25, 0x05	; 5
    35e2:	99 83       	std	Y+1, r25	; 0x01
    35e4:	88 83       	st	Y, r24
    35e6:	de 01       	movw	r26, r28
    35e8:	17 96       	adiw	r26, 0x07	; 7
    35ea:	21 2f       	mov	r18, r17
    35ec:	3f 2d       	mov	r19, r15
    35ee:	c9 01       	movw	r24, r18
    35f0:	fc 01       	movw	r30, r24
    35f2:	88 e0       	ldi	r24, 0x08	; 8
    35f4:	01 90       	ld	r0, Z+
    35f6:	0d 92       	st	X+, r0
    35f8:	81 50       	subi	r24, 0x01	; 1
    35fa:	e1 f7       	brne	.-8      	; 0x35f4 <_ZN11Tx64RequestC1ER13XBeeAddress64hPhhh+0x34>
    35fc:	df 86       	std	Y+15, r13	; 0x0f
    35fe:	df 91       	pop	r29
    3600:	cf 91       	pop	r28
    3602:	1f 91       	pop	r17
    3604:	0f 91       	pop	r16
    3606:	ff 90       	pop	r15
    3608:	ef 90       	pop	r14
    360a:	df 90       	pop	r13
    360c:	08 95       	ret

0000360e <_ZN11Tx64RequestC2ER13XBeeAddress64Phh>:
    360e:	ff 92       	push	r15
    3610:	0f 93       	push	r16
    3612:	1f 93       	push	r17
    3614:	cf 93       	push	r28
    3616:	df 93       	push	r29
    3618:	ec 01       	movw	r28, r24
    361a:	16 2f       	mov	r17, r22
    361c:	f7 2e       	mov	r15, r23
    361e:	fa 01       	movw	r30, r20
    3620:	02 2f       	mov	r16, r18
    3622:	60 e0       	ldi	r22, 0x00	; 0
    3624:	41 e0       	ldi	r20, 0x01	; 1
    3626:	9f 01       	movw	r18, r30
    3628:	0e 94 ce 14 	call	0x299c	; 0x299c <_ZN14PayloadRequestC2EhhPhh>
    362c:	8d e6       	ldi	r24, 0x6D	; 109
    362e:	95 e0       	ldi	r25, 0x05	; 5
    3630:	99 83       	std	Y+1, r25	; 0x01
    3632:	88 83       	st	Y, r24
    3634:	de 01       	movw	r26, r28
    3636:	17 96       	adiw	r26, 0x07	; 7
    3638:	21 2f       	mov	r18, r17
    363a:	3f 2d       	mov	r19, r15
    363c:	c9 01       	movw	r24, r18
    363e:	fc 01       	movw	r30, r24
    3640:	88 e0       	ldi	r24, 0x08	; 8
    3642:	01 90       	ld	r0, Z+
    3644:	0d 92       	st	X+, r0
    3646:	81 50       	subi	r24, 0x01	; 1
    3648:	e1 f7       	brne	.-8      	; 0x3642 <_ZN11Tx64RequestC2ER13XBeeAddress64Phh+0x34>
    364a:	1f 86       	std	Y+15, r1	; 0x0f
    364c:	df 91       	pop	r29
    364e:	cf 91       	pop	r28
    3650:	1f 91       	pop	r17
    3652:	0f 91       	pop	r16
    3654:	ff 90       	pop	r15
    3656:	08 95       	ret

00003658 <_ZN11Tx64RequestC1ER13XBeeAddress64Phh>:
    3658:	ff 92       	push	r15
    365a:	0f 93       	push	r16
    365c:	1f 93       	push	r17
    365e:	cf 93       	push	r28
    3660:	df 93       	push	r29
    3662:	ec 01       	movw	r28, r24
    3664:	16 2f       	mov	r17, r22
    3666:	f7 2e       	mov	r15, r23
    3668:	fa 01       	movw	r30, r20
    366a:	02 2f       	mov	r16, r18
    366c:	60 e0       	ldi	r22, 0x00	; 0
    366e:	41 e0       	ldi	r20, 0x01	; 1
    3670:	9f 01       	movw	r18, r30
    3672:	0e 94 ce 14 	call	0x299c	; 0x299c <_ZN14PayloadRequestC2EhhPhh>
    3676:	8d e6       	ldi	r24, 0x6D	; 109
    3678:	95 e0       	ldi	r25, 0x05	; 5
    367a:	99 83       	std	Y+1, r25	; 0x01
    367c:	88 83       	st	Y, r24
    367e:	de 01       	movw	r26, r28
    3680:	17 96       	adiw	r26, 0x07	; 7
    3682:	21 2f       	mov	r18, r17
    3684:	3f 2d       	mov	r19, r15
    3686:	c9 01       	movw	r24, r18
    3688:	fc 01       	movw	r30, r24
    368a:	88 e0       	ldi	r24, 0x08	; 8
    368c:	01 90       	ld	r0, Z+
    368e:	0d 92       	st	X+, r0
    3690:	81 50       	subi	r24, 0x01	; 1
    3692:	e1 f7       	brne	.-8      	; 0x368c <_ZN11Tx64RequestC1ER13XBeeAddress64Phh+0x34>
    3694:	1f 86       	std	Y+15, r1	; 0x0f
    3696:	df 91       	pop	r29
    3698:	cf 91       	pop	r28
    369a:	1f 91       	pop	r17
    369c:	0f 91       	pop	r16
    369e:	ff 90       	pop	r15
    36a0:	08 95       	ret

000036a2 <_ZN11Tx64Request12getFrameDataEh>:
    36a2:	1f 93       	push	r17
    36a4:	fc 01       	movw	r30, r24
    36a6:	16 2f       	mov	r17, r22
    36a8:	66 23       	and	r22, r22
    36aa:	21 f4       	brne	.+8      	; 0x36b4 <_ZN11Tx64Request12getFrameDataEh+0x12>
    36ac:	07 96       	adiw	r24, 0x07	; 7
    36ae:	0e 94 36 16 	call	0x2c6c	; 0x2c6c <_ZN13XBeeAddress646getMsbEv>
    36b2:	17 c0       	rjmp	.+46     	; 0x36e2 <_ZN11Tx64Request12getFrameDataEh+0x40>
    36b4:	61 30       	cpi	r22, 0x01	; 1
    36b6:	21 f4       	brne	.+8      	; 0x36c0 <_ZN11Tx64Request12getFrameDataEh+0x1e>
    36b8:	07 96       	adiw	r24, 0x07	; 7
    36ba:	0e 94 36 16 	call	0x2c6c	; 0x2c6c <_ZN13XBeeAddress646getMsbEv>
    36be:	1b c0       	rjmp	.+54     	; 0x36f6 <_ZN11Tx64Request12getFrameDataEh+0x54>
    36c0:	62 30       	cpi	r22, 0x02	; 2
    36c2:	21 f4       	brne	.+8      	; 0x36cc <_ZN11Tx64Request12getFrameDataEh+0x2a>
    36c4:	07 96       	adiw	r24, 0x07	; 7
    36c6:	0e 94 36 16 	call	0x2c6c	; 0x2c6c <_ZN13XBeeAddress646getMsbEv>
    36ca:	1e c0       	rjmp	.+60     	; 0x3708 <_ZN11Tx64Request12getFrameDataEh+0x66>
    36cc:	63 30       	cpi	r22, 0x03	; 3
    36ce:	21 f4       	brne	.+8      	; 0x36d8 <_ZN11Tx64Request12getFrameDataEh+0x36>
    36d0:	07 96       	adiw	r24, 0x07	; 7
    36d2:	0e 94 36 16 	call	0x2c6c	; 0x2c6c <_ZN13XBeeAddress646getMsbEv>
    36d6:	2e c0       	rjmp	.+92     	; 0x3734 <_ZN11Tx64Request12getFrameDataEh+0x92>
    36d8:	64 30       	cpi	r22, 0x04	; 4
    36da:	41 f4       	brne	.+16     	; 0x36ec <_ZN11Tx64Request12getFrameDataEh+0x4a>
    36dc:	07 96       	adiw	r24, 0x07	; 7
    36de:	0e 94 42 16 	call	0x2c84	; 0x2c84 <_ZN13XBeeAddress646getLsbEv>
    36e2:	69 2f       	mov	r22, r25
    36e4:	77 27       	eor	r23, r23
    36e6:	88 27       	eor	r24, r24
    36e8:	99 27       	eor	r25, r25
    36ea:	24 c0       	rjmp	.+72     	; 0x3734 <_ZN11Tx64Request12getFrameDataEh+0x92>
    36ec:	65 30       	cpi	r22, 0x05	; 5
    36ee:	39 f4       	brne	.+14     	; 0x36fe <_ZN11Tx64Request12getFrameDataEh+0x5c>
    36f0:	07 96       	adiw	r24, 0x07	; 7
    36f2:	0e 94 42 16 	call	0x2c84	; 0x2c84 <_ZN13XBeeAddress646getLsbEv>
    36f6:	bc 01       	movw	r22, r24
    36f8:	88 27       	eor	r24, r24
    36fa:	99 27       	eor	r25, r25
    36fc:	1b c0       	rjmp	.+54     	; 0x3734 <_ZN11Tx64Request12getFrameDataEh+0x92>
    36fe:	66 30       	cpi	r22, 0x06	; 6
    3700:	41 f4       	brne	.+16     	; 0x3712 <_ZN11Tx64Request12getFrameDataEh+0x70>
    3702:	07 96       	adiw	r24, 0x07	; 7
    3704:	0e 94 42 16 	call	0x2c84	; 0x2c84 <_ZN13XBeeAddress646getLsbEv>
    3708:	67 2f       	mov	r22, r23
    370a:	78 2f       	mov	r23, r24
    370c:	89 2f       	mov	r24, r25
    370e:	99 27       	eor	r25, r25
    3710:	11 c0       	rjmp	.+34     	; 0x3734 <_ZN11Tx64Request12getFrameDataEh+0x92>
    3712:	67 30       	cpi	r22, 0x07	; 7
    3714:	21 f4       	brne	.+8      	; 0x371e <_ZN11Tx64Request12getFrameDataEh+0x7c>
    3716:	07 96       	adiw	r24, 0x07	; 7
    3718:	0e 94 42 16 	call	0x2c84	; 0x2c84 <_ZN13XBeeAddress646getLsbEv>
    371c:	0b c0       	rjmp	.+22     	; 0x3734 <_ZN11Tx64Request12getFrameDataEh+0x92>
    371e:	68 30       	cpi	r22, 0x08	; 8
    3720:	11 f4       	brne	.+4      	; 0x3726 <_ZN11Tx64Request12getFrameDataEh+0x84>
    3722:	67 85       	ldd	r22, Z+15	; 0x0f
    3724:	07 c0       	rjmp	.+14     	; 0x3734 <_ZN11Tx64Request12getFrameDataEh+0x92>
    3726:	0e 94 fc 14 	call	0x29f8	; 0x29f8 <_ZN14PayloadRequest10getPayloadEv>
    372a:	fc 01       	movw	r30, r24
    372c:	e1 0f       	add	r30, r17
    372e:	f1 1d       	adc	r31, r1
    3730:	39 97       	sbiw	r30, 0x09	; 9
    3732:	60 81       	ld	r22, Z
    3734:	86 2f       	mov	r24, r22
    3736:	1f 91       	pop	r17
    3738:	08 95       	ret

0000373a <_ZN11Tx64Request18getFrameDataLengthEv>:
    373a:	0e 94 04 15 	call	0x2a08	; 0x2a08 <_ZN14PayloadRequest16getPayloadLengthEv>
    373e:	87 5f       	subi	r24, 0xF7	; 247
    3740:	08 95       	ret

00003742 <_ZN11Tx64Request12getAddress64Ev>:
    3742:	9c 01       	movw	r18, r24
    3744:	29 5f       	subi	r18, 0xF9	; 249
    3746:	3f 4f       	sbci	r19, 0xFF	; 255
    3748:	c9 01       	movw	r24, r18
    374a:	08 95       	ret

0000374c <_ZN11Tx64Request12setAddress64ER13XBeeAddress64>:
    374c:	dc 01       	movw	r26, r24
    374e:	17 96       	adiw	r26, 0x07	; 7
    3750:	fb 01       	movw	r30, r22
    3752:	88 e0       	ldi	r24, 0x08	; 8
    3754:	01 90       	ld	r0, Z+
    3756:	0d 92       	st	X+, r0
    3758:	81 50       	subi	r24, 0x01	; 1
    375a:	e1 f7       	brne	.-8      	; 0x3754 <_ZN11Tx64Request12setAddress64ER13XBeeAddress64+0x8>
    375c:	08 95       	ret

0000375e <_ZN11Tx64Request9getOptionEv>:
    375e:	fc 01       	movw	r30, r24
    3760:	87 85       	ldd	r24, Z+15	; 0x0f
    3762:	08 95       	ret

00003764 <_ZN11Tx64Request9setOptionEh>:
    3764:	fc 01       	movw	r30, r24
    3766:	67 87       	std	Z+15, r22	; 0x0f
    3768:	08 95       	ret

0000376a <_ZN16AtCommandRequestC2EPhS0_h>:
    376a:	bf 92       	push	r11
    376c:	cf 92       	push	r12
    376e:	df 92       	push	r13
    3770:	ef 92       	push	r14
    3772:	ff 92       	push	r15
    3774:	0f 93       	push	r16
    3776:	1f 93       	push	r17
    3778:	8c 01       	movw	r16, r24
    377a:	7b 01       	movw	r14, r22
    377c:	6a 01       	movw	r12, r20
    377e:	b2 2e       	mov	r11, r18
    3780:	68 e0       	ldi	r22, 0x08	; 8
    3782:	41 e0       	ldi	r20, 0x01	; 1
    3784:	0e 94 b2 14 	call	0x2964	; 0x2964 <_ZN11XBeeRequestC2Ehh>
    3788:	85 e6       	ldi	r24, 0x65	; 101
    378a:	95 e0       	ldi	r25, 0x05	; 5
    378c:	f8 01       	movw	r30, r16
    378e:	91 83       	std	Z+1, r25	; 0x01
    3790:	80 83       	st	Z, r24
    3792:	f5 82       	std	Z+5, r15	; 0x05
    3794:	e4 82       	std	Z+4, r14	; 0x04
    3796:	d7 82       	std	Z+7, r13	; 0x07
    3798:	c6 82       	std	Z+6, r12	; 0x06
    379a:	b0 86       	std	Z+8, r11	; 0x08
    379c:	1f 91       	pop	r17
    379e:	0f 91       	pop	r16
    37a0:	ff 90       	pop	r15
    37a2:	ef 90       	pop	r14
    37a4:	df 90       	pop	r13
    37a6:	cf 90       	pop	r12
    37a8:	bf 90       	pop	r11
    37aa:	08 95       	ret

000037ac <_ZN16AtCommandRequestC1EPhS0_h>:
    37ac:	bf 92       	push	r11
    37ae:	cf 92       	push	r12
    37b0:	df 92       	push	r13
    37b2:	ef 92       	push	r14
    37b4:	ff 92       	push	r15
    37b6:	0f 93       	push	r16
    37b8:	1f 93       	push	r17
    37ba:	8c 01       	movw	r16, r24
    37bc:	7b 01       	movw	r14, r22
    37be:	6a 01       	movw	r12, r20
    37c0:	b2 2e       	mov	r11, r18
    37c2:	68 e0       	ldi	r22, 0x08	; 8
    37c4:	41 e0       	ldi	r20, 0x01	; 1
    37c6:	0e 94 b2 14 	call	0x2964	; 0x2964 <_ZN11XBeeRequestC2Ehh>
    37ca:	85 e6       	ldi	r24, 0x65	; 101
    37cc:	95 e0       	ldi	r25, 0x05	; 5
    37ce:	f8 01       	movw	r30, r16
    37d0:	91 83       	std	Z+1, r25	; 0x01
    37d2:	80 83       	st	Z, r24
    37d4:	f5 82       	std	Z+5, r15	; 0x05
    37d6:	e4 82       	std	Z+4, r14	; 0x04
    37d8:	d7 82       	std	Z+7, r13	; 0x07
    37da:	c6 82       	std	Z+6, r12	; 0x06
    37dc:	b0 86       	std	Z+8, r11	; 0x08
    37de:	1f 91       	pop	r17
    37e0:	0f 91       	pop	r16
    37e2:	ff 90       	pop	r15
    37e4:	ef 90       	pop	r14
    37e6:	df 90       	pop	r13
    37e8:	cf 90       	pop	r12
    37ea:	bf 90       	pop	r11
    37ec:	08 95       	ret

000037ee <_ZN16AtCommandRequest10getCommandEv>:
    37ee:	fc 01       	movw	r30, r24
    37f0:	84 81       	ldd	r24, Z+4	; 0x04
    37f2:	95 81       	ldd	r25, Z+5	; 0x05
    37f4:	08 95       	ret

000037f6 <_ZN16AtCommandRequest15getCommandValueEv>:
    37f6:	fc 01       	movw	r30, r24
    37f8:	86 81       	ldd	r24, Z+6	; 0x06
    37fa:	97 81       	ldd	r25, Z+7	; 0x07
    37fc:	08 95       	ret

000037fe <_ZN16AtCommandRequest21getCommandValueLengthEv>:
    37fe:	fc 01       	movw	r30, r24
    3800:	80 85       	ldd	r24, Z+8	; 0x08
    3802:	08 95       	ret

00003804 <_ZN16AtCommandRequest10setCommandEPh>:
    3804:	fc 01       	movw	r30, r24
    3806:	75 83       	std	Z+5, r23	; 0x05
    3808:	64 83       	std	Z+4, r22	; 0x04
    380a:	08 95       	ret

0000380c <_ZN16AtCommandRequest15setCommandValueEPh>:
    380c:	fc 01       	movw	r30, r24
    380e:	77 83       	std	Z+7, r23	; 0x07
    3810:	66 83       	std	Z+6, r22	; 0x06
    3812:	08 95       	ret

00003814 <_ZN16AtCommandRequest21setCommandValueLengthEh>:
    3814:	fc 01       	movw	r30, r24
    3816:	60 87       	std	Z+8, r22	; 0x08
    3818:	08 95       	ret

0000381a <_ZN16AtCommandRequest12getFrameDataEh>:
    381a:	fc 01       	movw	r30, r24
    381c:	66 23       	and	r22, r22
    381e:	29 f4       	brne	.+10     	; 0x382a <_ZN16AtCommandRequest12getFrameDataEh+0x10>
    3820:	04 80       	ldd	r0, Z+4	; 0x04
    3822:	f5 81       	ldd	r31, Z+5	; 0x05
    3824:	e0 2d       	mov	r30, r0
    3826:	80 81       	ld	r24, Z
    3828:	08 95       	ret
    382a:	61 30       	cpi	r22, 0x01	; 1
    382c:	29 f4       	brne	.+10     	; 0x3838 <_ZN16AtCommandRequest12getFrameDataEh+0x1e>
    382e:	04 80       	ldd	r0, Z+4	; 0x04
    3830:	f5 81       	ldd	r31, Z+5	; 0x05
    3832:	e0 2d       	mov	r30, r0
    3834:	81 81       	ldd	r24, Z+1	; 0x01
    3836:	08 95       	ret
    3838:	06 80       	ldd	r0, Z+6	; 0x06
    383a:	f7 81       	ldd	r31, Z+7	; 0x07
    383c:	e0 2d       	mov	r30, r0
    383e:	e6 0f       	add	r30, r22
    3840:	f1 1d       	adc	r31, r1
    3842:	32 97       	sbiw	r30, 0x02	; 2
    3844:	80 81       	ld	r24, Z
    3846:	08 95       	ret

00003848 <_ZN16AtCommandRequest17clearCommandValueEv>:
    3848:	fc 01       	movw	r30, r24
    384a:	17 82       	std	Z+7, r1	; 0x07
    384c:	16 82       	std	Z+6, r1	; 0x06
    384e:	10 86       	std	Z+8, r1	; 0x08
    3850:	08 95       	ret

00003852 <_ZN16AtCommandRequestC1EPh>:
    3852:	ef 92       	push	r14
    3854:	ff 92       	push	r15
    3856:	0f 93       	push	r16
    3858:	1f 93       	push	r17
    385a:	8c 01       	movw	r16, r24
    385c:	7b 01       	movw	r14, r22
    385e:	68 e0       	ldi	r22, 0x08	; 8
    3860:	41 e0       	ldi	r20, 0x01	; 1
    3862:	0e 94 b2 14 	call	0x2964	; 0x2964 <_ZN11XBeeRequestC2Ehh>
    3866:	85 e6       	ldi	r24, 0x65	; 101
    3868:	95 e0       	ldi	r25, 0x05	; 5
    386a:	f8 01       	movw	r30, r16
    386c:	91 83       	std	Z+1, r25	; 0x01
    386e:	80 83       	st	Z, r24
    3870:	f5 82       	std	Z+5, r15	; 0x05
    3872:	e4 82       	std	Z+4, r14	; 0x04
    3874:	c8 01       	movw	r24, r16
    3876:	0e 94 24 1c 	call	0x3848	; 0x3848 <_ZN16AtCommandRequest17clearCommandValueEv>
    387a:	1f 91       	pop	r17
    387c:	0f 91       	pop	r16
    387e:	ff 90       	pop	r15
    3880:	ef 90       	pop	r14
    3882:	08 95       	ret

00003884 <_ZN16AtCommandRequestC2EPh>:
    3884:	ef 92       	push	r14
    3886:	ff 92       	push	r15
    3888:	0f 93       	push	r16
    388a:	1f 93       	push	r17
    388c:	8c 01       	movw	r16, r24
    388e:	7b 01       	movw	r14, r22
    3890:	68 e0       	ldi	r22, 0x08	; 8
    3892:	41 e0       	ldi	r20, 0x01	; 1
    3894:	0e 94 b2 14 	call	0x2964	; 0x2964 <_ZN11XBeeRequestC2Ehh>
    3898:	85 e6       	ldi	r24, 0x65	; 101
    389a:	95 e0       	ldi	r25, 0x05	; 5
    389c:	f8 01       	movw	r30, r16
    389e:	91 83       	std	Z+1, r25	; 0x01
    38a0:	80 83       	st	Z, r24
    38a2:	f5 82       	std	Z+5, r15	; 0x05
    38a4:	e4 82       	std	Z+4, r14	; 0x04
    38a6:	c8 01       	movw	r24, r16
    38a8:	0e 94 24 1c 	call	0x3848	; 0x3848 <_ZN16AtCommandRequest17clearCommandValueEv>
    38ac:	1f 91       	pop	r17
    38ae:	0f 91       	pop	r16
    38b0:	ff 90       	pop	r15
    38b2:	ef 90       	pop	r14
    38b4:	08 95       	ret

000038b6 <_ZN16AtCommandRequestC1Ev>:
    38b6:	0f 93       	push	r16
    38b8:	1f 93       	push	r17
    38ba:	8c 01       	movw	r16, r24
    38bc:	68 e0       	ldi	r22, 0x08	; 8
    38be:	41 e0       	ldi	r20, 0x01	; 1
    38c0:	0e 94 b2 14 	call	0x2964	; 0x2964 <_ZN11XBeeRequestC2Ehh>
    38c4:	85 e6       	ldi	r24, 0x65	; 101
    38c6:	95 e0       	ldi	r25, 0x05	; 5
    38c8:	f8 01       	movw	r30, r16
    38ca:	91 83       	std	Z+1, r25	; 0x01
    38cc:	80 83       	st	Z, r24
    38ce:	15 82       	std	Z+5, r1	; 0x05
    38d0:	14 82       	std	Z+4, r1	; 0x04
    38d2:	c8 01       	movw	r24, r16
    38d4:	0e 94 24 1c 	call	0x3848	; 0x3848 <_ZN16AtCommandRequest17clearCommandValueEv>
    38d8:	1f 91       	pop	r17
    38da:	0f 91       	pop	r16
    38dc:	08 95       	ret

000038de <_ZN16AtCommandRequestC2Ev>:
    38de:	0f 93       	push	r16
    38e0:	1f 93       	push	r17
    38e2:	8c 01       	movw	r16, r24
    38e4:	68 e0       	ldi	r22, 0x08	; 8
    38e6:	41 e0       	ldi	r20, 0x01	; 1
    38e8:	0e 94 b2 14 	call	0x2964	; 0x2964 <_ZN11XBeeRequestC2Ehh>
    38ec:	85 e6       	ldi	r24, 0x65	; 101
    38ee:	95 e0       	ldi	r25, 0x05	; 5
    38f0:	f8 01       	movw	r30, r16
    38f2:	91 83       	std	Z+1, r25	; 0x01
    38f4:	80 83       	st	Z, r24
    38f6:	15 82       	std	Z+5, r1	; 0x05
    38f8:	14 82       	std	Z+4, r1	; 0x04
    38fa:	c8 01       	movw	r24, r16
    38fc:	0e 94 24 1c 	call	0x3848	; 0x3848 <_ZN16AtCommandRequest17clearCommandValueEv>
    3900:	1f 91       	pop	r17
    3902:	0f 91       	pop	r16
    3904:	08 95       	ret

00003906 <_ZN16AtCommandRequest18getFrameDataLengthEv>:
    3906:	fc 01       	movw	r30, r24
    3908:	80 85       	ldd	r24, Z+8	; 0x08
    390a:	8e 5f       	subi	r24, 0xFE	; 254
    390c:	08 95       	ret

0000390e <_ZN22RemoteAtCommandRequestC2Ev>:
    390e:	0f 93       	push	r16
    3910:	1f 93       	push	r17
    3912:	8c 01       	movw	r16, r24
    3914:	60 e0       	ldi	r22, 0x00	; 0
    3916:	70 e0       	ldi	r23, 0x00	; 0
    3918:	40 e0       	ldi	r20, 0x00	; 0
    391a:	50 e0       	ldi	r21, 0x00	; 0
    391c:	20 e0       	ldi	r18, 0x00	; 0
    391e:	0e 94 b5 1b 	call	0x376a	; 0x376a <_ZN16AtCommandRequestC2EPhS0_h>
    3922:	8d e5       	ldi	r24, 0x5D	; 93
    3924:	95 e0       	ldi	r25, 0x05	; 5
    3926:	f8 01       	movw	r30, r16
    3928:	91 83       	std	Z+1, r25	; 0x01
    392a:	80 83       	st	Z, r24
    392c:	12 8a       	std	Z+18, r1	; 0x12
    392e:	11 8a       	std	Z+17, r1	; 0x11
    3930:	13 8a       	std	Z+19, r1	; 0x13
    3932:	c8 01       	movw	r24, r16
    3934:	67 e1       	ldi	r22, 0x17	; 23
    3936:	0e 94 cb 14 	call	0x2996	; 0x2996 <_ZN11XBeeRequest8setApiIdEh>
    393a:	1f 91       	pop	r17
    393c:	0f 91       	pop	r16
    393e:	08 95       	ret

00003940 <_ZN22RemoteAtCommandRequestC1Ev>:
    3940:	0f 93       	push	r16
    3942:	1f 93       	push	r17
    3944:	8c 01       	movw	r16, r24
    3946:	60 e0       	ldi	r22, 0x00	; 0
    3948:	70 e0       	ldi	r23, 0x00	; 0
    394a:	40 e0       	ldi	r20, 0x00	; 0
    394c:	50 e0       	ldi	r21, 0x00	; 0
    394e:	20 e0       	ldi	r18, 0x00	; 0
    3950:	0e 94 b5 1b 	call	0x376a	; 0x376a <_ZN16AtCommandRequestC2EPhS0_h>
    3954:	8d e5       	ldi	r24, 0x5D	; 93
    3956:	95 e0       	ldi	r25, 0x05	; 5
    3958:	f8 01       	movw	r30, r16
    395a:	91 83       	std	Z+1, r25	; 0x01
    395c:	80 83       	st	Z, r24
    395e:	12 8a       	std	Z+18, r1	; 0x12
    3960:	11 8a       	std	Z+17, r1	; 0x11
    3962:	13 8a       	std	Z+19, r1	; 0x13
    3964:	c8 01       	movw	r24, r16
    3966:	67 e1       	ldi	r22, 0x17	; 23
    3968:	0e 94 cb 14 	call	0x2996	; 0x2996 <_ZN11XBeeRequest8setApiIdEh>
    396c:	1f 91       	pop	r17
    396e:	0f 91       	pop	r16
    3970:	08 95       	ret

00003972 <_ZN22RemoteAtCommandRequestC2EjPhS0_h>:
    3972:	ef 92       	push	r14
    3974:	ff 92       	push	r15
    3976:	0f 93       	push	r16
    3978:	cf 93       	push	r28
    397a:	df 93       	push	r29
    397c:	ec 01       	movw	r28, r24
    397e:	7b 01       	movw	r14, r22
    3980:	ba 01       	movw	r22, r20
    3982:	a9 01       	movw	r20, r18
    3984:	20 2f       	mov	r18, r16
    3986:	0e 94 b5 1b 	call	0x376a	; 0x376a <_ZN16AtCommandRequestC2EPhS0_h>
    398a:	8d e5       	ldi	r24, 0x5D	; 93
    398c:	95 e0       	ldi	r25, 0x05	; 5
    398e:	99 83       	std	Y+1, r25	; 0x01
    3990:	88 83       	st	Y, r24
    3992:	de 01       	movw	r26, r28
    3994:	19 96       	adiw	r26, 0x09	; 9
    3996:	ef e5       	ldi	r30, 0x5F	; 95
    3998:	f7 e0       	ldi	r31, 0x07	; 7
    399a:	88 e0       	ldi	r24, 0x08	; 8
    399c:	01 90       	ld	r0, Z+
    399e:	0d 92       	st	X+, r0
    39a0:	81 50       	subi	r24, 0x01	; 1
    39a2:	e1 f7       	brne	.-8      	; 0x399c <_ZN22RemoteAtCommandRequestC2EjPhS0_h+0x2a>
    39a4:	fa 8a       	std	Y+18, r15	; 0x12
    39a6:	e9 8a       	std	Y+17, r14	; 0x11
    39a8:	81 e0       	ldi	r24, 0x01	; 1
    39aa:	8b 8b       	std	Y+19, r24	; 0x13
    39ac:	ce 01       	movw	r24, r28
    39ae:	67 e1       	ldi	r22, 0x17	; 23
    39b0:	0e 94 cb 14 	call	0x2996	; 0x2996 <_ZN11XBeeRequest8setApiIdEh>
    39b4:	df 91       	pop	r29
    39b6:	cf 91       	pop	r28
    39b8:	0f 91       	pop	r16
    39ba:	ff 90       	pop	r15
    39bc:	ef 90       	pop	r14
    39be:	08 95       	ret

000039c0 <_ZN22RemoteAtCommandRequestC1EjPhS0_h>:
    39c0:	ef 92       	push	r14
    39c2:	ff 92       	push	r15
    39c4:	0f 93       	push	r16
    39c6:	cf 93       	push	r28
    39c8:	df 93       	push	r29
    39ca:	ec 01       	movw	r28, r24
    39cc:	7b 01       	movw	r14, r22
    39ce:	ba 01       	movw	r22, r20
    39d0:	a9 01       	movw	r20, r18
    39d2:	20 2f       	mov	r18, r16
    39d4:	0e 94 b5 1b 	call	0x376a	; 0x376a <_ZN16AtCommandRequestC2EPhS0_h>
    39d8:	8d e5       	ldi	r24, 0x5D	; 93
    39da:	95 e0       	ldi	r25, 0x05	; 5
    39dc:	99 83       	std	Y+1, r25	; 0x01
    39de:	88 83       	st	Y, r24
    39e0:	de 01       	movw	r26, r28
    39e2:	19 96       	adiw	r26, 0x09	; 9
    39e4:	ef e5       	ldi	r30, 0x5F	; 95
    39e6:	f7 e0       	ldi	r31, 0x07	; 7
    39e8:	88 e0       	ldi	r24, 0x08	; 8
    39ea:	01 90       	ld	r0, Z+
    39ec:	0d 92       	st	X+, r0
    39ee:	81 50       	subi	r24, 0x01	; 1
    39f0:	e1 f7       	brne	.-8      	; 0x39ea <_ZN22RemoteAtCommandRequestC1EjPhS0_h+0x2a>
    39f2:	fa 8a       	std	Y+18, r15	; 0x12
    39f4:	e9 8a       	std	Y+17, r14	; 0x11
    39f6:	81 e0       	ldi	r24, 0x01	; 1
    39f8:	8b 8b       	std	Y+19, r24	; 0x13
    39fa:	ce 01       	movw	r24, r28
    39fc:	67 e1       	ldi	r22, 0x17	; 23
    39fe:	0e 94 cb 14 	call	0x2996	; 0x2996 <_ZN11XBeeRequest8setApiIdEh>
    3a02:	df 91       	pop	r29
    3a04:	cf 91       	pop	r28
    3a06:	0f 91       	pop	r16
    3a08:	ff 90       	pop	r15
    3a0a:	ef 90       	pop	r14
    3a0c:	08 95       	ret

00003a0e <_ZN22RemoteAtCommandRequestC2EjPh>:
    3a0e:	0f 93       	push	r16
    3a10:	1f 93       	push	r17
    3a12:	cf 93       	push	r28
    3a14:	df 93       	push	r29
    3a16:	ec 01       	movw	r28, r24
    3a18:	8b 01       	movw	r16, r22
    3a1a:	ba 01       	movw	r22, r20
    3a1c:	40 e0       	ldi	r20, 0x00	; 0
    3a1e:	50 e0       	ldi	r21, 0x00	; 0
    3a20:	20 e0       	ldi	r18, 0x00	; 0
    3a22:	0e 94 b5 1b 	call	0x376a	; 0x376a <_ZN16AtCommandRequestC2EPhS0_h>
    3a26:	8d e5       	ldi	r24, 0x5D	; 93
    3a28:	95 e0       	ldi	r25, 0x05	; 5
    3a2a:	99 83       	std	Y+1, r25	; 0x01
    3a2c:	88 83       	st	Y, r24
    3a2e:	de 01       	movw	r26, r28
    3a30:	19 96       	adiw	r26, 0x09	; 9
    3a32:	ef e5       	ldi	r30, 0x5F	; 95
    3a34:	f7 e0       	ldi	r31, 0x07	; 7
    3a36:	88 e0       	ldi	r24, 0x08	; 8
    3a38:	01 90       	ld	r0, Z+
    3a3a:	0d 92       	st	X+, r0
    3a3c:	81 50       	subi	r24, 0x01	; 1
    3a3e:	e1 f7       	brne	.-8      	; 0x3a38 <_ZN22RemoteAtCommandRequestC2EjPh+0x2a>
    3a40:	1a 8b       	std	Y+18, r17	; 0x12
    3a42:	09 8b       	std	Y+17, r16	; 0x11
    3a44:	1b 8a       	std	Y+19, r1	; 0x13
    3a46:	ce 01       	movw	r24, r28
    3a48:	67 e1       	ldi	r22, 0x17	; 23
    3a4a:	0e 94 cb 14 	call	0x2996	; 0x2996 <_ZN11XBeeRequest8setApiIdEh>
    3a4e:	df 91       	pop	r29
    3a50:	cf 91       	pop	r28
    3a52:	1f 91       	pop	r17
    3a54:	0f 91       	pop	r16
    3a56:	08 95       	ret

00003a58 <_ZN22RemoteAtCommandRequestC1EjPh>:
    3a58:	0f 93       	push	r16
    3a5a:	1f 93       	push	r17
    3a5c:	cf 93       	push	r28
    3a5e:	df 93       	push	r29
    3a60:	ec 01       	movw	r28, r24
    3a62:	8b 01       	movw	r16, r22
    3a64:	ba 01       	movw	r22, r20
    3a66:	40 e0       	ldi	r20, 0x00	; 0
    3a68:	50 e0       	ldi	r21, 0x00	; 0
    3a6a:	20 e0       	ldi	r18, 0x00	; 0
    3a6c:	0e 94 b5 1b 	call	0x376a	; 0x376a <_ZN16AtCommandRequestC2EPhS0_h>
    3a70:	8d e5       	ldi	r24, 0x5D	; 93
    3a72:	95 e0       	ldi	r25, 0x05	; 5
    3a74:	99 83       	std	Y+1, r25	; 0x01
    3a76:	88 83       	st	Y, r24
    3a78:	de 01       	movw	r26, r28
    3a7a:	19 96       	adiw	r26, 0x09	; 9
    3a7c:	ef e5       	ldi	r30, 0x5F	; 95
    3a7e:	f7 e0       	ldi	r31, 0x07	; 7
    3a80:	88 e0       	ldi	r24, 0x08	; 8
    3a82:	01 90       	ld	r0, Z+
    3a84:	0d 92       	st	X+, r0
    3a86:	81 50       	subi	r24, 0x01	; 1
    3a88:	e1 f7       	brne	.-8      	; 0x3a82 <_ZN22RemoteAtCommandRequestC1EjPh+0x2a>
    3a8a:	1a 8b       	std	Y+18, r17	; 0x12
    3a8c:	09 8b       	std	Y+17, r16	; 0x11
    3a8e:	1b 8a       	std	Y+19, r1	; 0x13
    3a90:	ce 01       	movw	r24, r28
    3a92:	67 e1       	ldi	r22, 0x17	; 23
    3a94:	0e 94 cb 14 	call	0x2996	; 0x2996 <_ZN11XBeeRequest8setApiIdEh>
    3a98:	df 91       	pop	r29
    3a9a:	cf 91       	pop	r28
    3a9c:	1f 91       	pop	r17
    3a9e:	0f 91       	pop	r16
    3aa0:	08 95       	ret

00003aa2 <_ZN22RemoteAtCommandRequestC2ER13XBeeAddress64PhS2_h>:
    3aa2:	ff 92       	push	r15
    3aa4:	0f 93       	push	r16
    3aa6:	1f 93       	push	r17
    3aa8:	cf 93       	push	r28
    3aaa:	df 93       	push	r29
    3aac:	ec 01       	movw	r28, r24
    3aae:	16 2f       	mov	r17, r22
    3ab0:	f7 2e       	mov	r15, r23
    3ab2:	ba 01       	movw	r22, r20
    3ab4:	a9 01       	movw	r20, r18
    3ab6:	20 2f       	mov	r18, r16
    3ab8:	0e 94 b5 1b 	call	0x376a	; 0x376a <_ZN16AtCommandRequestC2EPhS0_h>
    3abc:	8d e5       	ldi	r24, 0x5D	; 93
    3abe:	95 e0       	ldi	r25, 0x05	; 5
    3ac0:	99 83       	std	Y+1, r25	; 0x01
    3ac2:	88 83       	st	Y, r24
    3ac4:	de 01       	movw	r26, r28
    3ac6:	19 96       	adiw	r26, 0x09	; 9
    3ac8:	21 2f       	mov	r18, r17
    3aca:	3f 2d       	mov	r19, r15
    3acc:	c9 01       	movw	r24, r18
    3ace:	fc 01       	movw	r30, r24
    3ad0:	88 e0       	ldi	r24, 0x08	; 8
    3ad2:	01 90       	ld	r0, Z+
    3ad4:	0d 92       	st	X+, r0
    3ad6:	81 50       	subi	r24, 0x01	; 1
    3ad8:	e1 f7       	brne	.-8      	; 0x3ad2 <_ZN22RemoteAtCommandRequestC2ER13XBeeAddress64PhS2_h+0x30>
    3ada:	8e ef       	ldi	r24, 0xFE	; 254
    3adc:	9f ef       	ldi	r25, 0xFF	; 255
    3ade:	9a 8b       	std	Y+18, r25	; 0x12
    3ae0:	89 8b       	std	Y+17, r24	; 0x11
    3ae2:	81 e0       	ldi	r24, 0x01	; 1
    3ae4:	8b 8b       	std	Y+19, r24	; 0x13
    3ae6:	ce 01       	movw	r24, r28
    3ae8:	67 e1       	ldi	r22, 0x17	; 23
    3aea:	0e 94 cb 14 	call	0x2996	; 0x2996 <_ZN11XBeeRequest8setApiIdEh>
    3aee:	df 91       	pop	r29
    3af0:	cf 91       	pop	r28
    3af2:	1f 91       	pop	r17
    3af4:	0f 91       	pop	r16
    3af6:	ff 90       	pop	r15
    3af8:	08 95       	ret

00003afa <_ZN22RemoteAtCommandRequestC1ER13XBeeAddress64PhS2_h>:
    3afa:	ff 92       	push	r15
    3afc:	0f 93       	push	r16
    3afe:	1f 93       	push	r17
    3b00:	cf 93       	push	r28
    3b02:	df 93       	push	r29
    3b04:	ec 01       	movw	r28, r24
    3b06:	16 2f       	mov	r17, r22
    3b08:	f7 2e       	mov	r15, r23
    3b0a:	ba 01       	movw	r22, r20
    3b0c:	a9 01       	movw	r20, r18
    3b0e:	20 2f       	mov	r18, r16
    3b10:	0e 94 b5 1b 	call	0x376a	; 0x376a <_ZN16AtCommandRequestC2EPhS0_h>
    3b14:	8d e5       	ldi	r24, 0x5D	; 93
    3b16:	95 e0       	ldi	r25, 0x05	; 5
    3b18:	99 83       	std	Y+1, r25	; 0x01
    3b1a:	88 83       	st	Y, r24
    3b1c:	de 01       	movw	r26, r28
    3b1e:	19 96       	adiw	r26, 0x09	; 9
    3b20:	21 2f       	mov	r18, r17
    3b22:	3f 2d       	mov	r19, r15
    3b24:	c9 01       	movw	r24, r18
    3b26:	fc 01       	movw	r30, r24
    3b28:	88 e0       	ldi	r24, 0x08	; 8
    3b2a:	01 90       	ld	r0, Z+
    3b2c:	0d 92       	st	X+, r0
    3b2e:	81 50       	subi	r24, 0x01	; 1
    3b30:	e1 f7       	brne	.-8      	; 0x3b2a <_ZN22RemoteAtCommandRequestC1ER13XBeeAddress64PhS2_h+0x30>
    3b32:	8e ef       	ldi	r24, 0xFE	; 254
    3b34:	9f ef       	ldi	r25, 0xFF	; 255
    3b36:	9a 8b       	std	Y+18, r25	; 0x12
    3b38:	89 8b       	std	Y+17, r24	; 0x11
    3b3a:	81 e0       	ldi	r24, 0x01	; 1
    3b3c:	8b 8b       	std	Y+19, r24	; 0x13
    3b3e:	ce 01       	movw	r24, r28
    3b40:	67 e1       	ldi	r22, 0x17	; 23
    3b42:	0e 94 cb 14 	call	0x2996	; 0x2996 <_ZN11XBeeRequest8setApiIdEh>
    3b46:	df 91       	pop	r29
    3b48:	cf 91       	pop	r28
    3b4a:	1f 91       	pop	r17
    3b4c:	0f 91       	pop	r16
    3b4e:	ff 90       	pop	r15
    3b50:	08 95       	ret

00003b52 <_ZN22RemoteAtCommandRequestC2ER13XBeeAddress64Ph>:
    3b52:	0f 93       	push	r16
    3b54:	1f 93       	push	r17
    3b56:	cf 93       	push	r28
    3b58:	df 93       	push	r29
    3b5a:	ec 01       	movw	r28, r24
    3b5c:	16 2f       	mov	r17, r22
    3b5e:	07 2f       	mov	r16, r23
    3b60:	ba 01       	movw	r22, r20
    3b62:	40 e0       	ldi	r20, 0x00	; 0
    3b64:	50 e0       	ldi	r21, 0x00	; 0
    3b66:	20 e0       	ldi	r18, 0x00	; 0
    3b68:	0e 94 b5 1b 	call	0x376a	; 0x376a <_ZN16AtCommandRequestC2EPhS0_h>
    3b6c:	8d e5       	ldi	r24, 0x5D	; 93
    3b6e:	95 e0       	ldi	r25, 0x05	; 5
    3b70:	99 83       	std	Y+1, r25	; 0x01
    3b72:	88 83       	st	Y, r24
    3b74:	de 01       	movw	r26, r28
    3b76:	19 96       	adiw	r26, 0x09	; 9
    3b78:	21 2f       	mov	r18, r17
    3b7a:	30 2f       	mov	r19, r16
    3b7c:	c9 01       	movw	r24, r18
    3b7e:	fc 01       	movw	r30, r24
    3b80:	88 e0       	ldi	r24, 0x08	; 8
    3b82:	01 90       	ld	r0, Z+
    3b84:	0d 92       	st	X+, r0
    3b86:	81 50       	subi	r24, 0x01	; 1
    3b88:	e1 f7       	brne	.-8      	; 0x3b82 <_ZN22RemoteAtCommandRequestC2ER13XBeeAddress64Ph+0x30>
    3b8a:	8e ef       	ldi	r24, 0xFE	; 254
    3b8c:	9f ef       	ldi	r25, 0xFF	; 255
    3b8e:	9a 8b       	std	Y+18, r25	; 0x12
    3b90:	89 8b       	std	Y+17, r24	; 0x11
    3b92:	1b 8a       	std	Y+19, r1	; 0x13
    3b94:	ce 01       	movw	r24, r28
    3b96:	67 e1       	ldi	r22, 0x17	; 23
    3b98:	0e 94 cb 14 	call	0x2996	; 0x2996 <_ZN11XBeeRequest8setApiIdEh>
    3b9c:	df 91       	pop	r29
    3b9e:	cf 91       	pop	r28
    3ba0:	1f 91       	pop	r17
    3ba2:	0f 91       	pop	r16
    3ba4:	08 95       	ret

00003ba6 <_ZN22RemoteAtCommandRequestC1ER13XBeeAddress64Ph>:
    3ba6:	0f 93       	push	r16
    3ba8:	1f 93       	push	r17
    3baa:	cf 93       	push	r28
    3bac:	df 93       	push	r29
    3bae:	ec 01       	movw	r28, r24
    3bb0:	16 2f       	mov	r17, r22
    3bb2:	07 2f       	mov	r16, r23
    3bb4:	ba 01       	movw	r22, r20
    3bb6:	40 e0       	ldi	r20, 0x00	; 0
    3bb8:	50 e0       	ldi	r21, 0x00	; 0
    3bba:	20 e0       	ldi	r18, 0x00	; 0
    3bbc:	0e 94 b5 1b 	call	0x376a	; 0x376a <_ZN16AtCommandRequestC2EPhS0_h>
    3bc0:	8d e5       	ldi	r24, 0x5D	; 93
    3bc2:	95 e0       	ldi	r25, 0x05	; 5
    3bc4:	99 83       	std	Y+1, r25	; 0x01
    3bc6:	88 83       	st	Y, r24
    3bc8:	de 01       	movw	r26, r28
    3bca:	19 96       	adiw	r26, 0x09	; 9
    3bcc:	21 2f       	mov	r18, r17
    3bce:	30 2f       	mov	r19, r16
    3bd0:	c9 01       	movw	r24, r18
    3bd2:	fc 01       	movw	r30, r24
    3bd4:	88 e0       	ldi	r24, 0x08	; 8
    3bd6:	01 90       	ld	r0, Z+
    3bd8:	0d 92       	st	X+, r0
    3bda:	81 50       	subi	r24, 0x01	; 1
    3bdc:	e1 f7       	brne	.-8      	; 0x3bd6 <_ZN22RemoteAtCommandRequestC1ER13XBeeAddress64Ph+0x30>
    3bde:	8e ef       	ldi	r24, 0xFE	; 254
    3be0:	9f ef       	ldi	r25, 0xFF	; 255
    3be2:	9a 8b       	std	Y+18, r25	; 0x12
    3be4:	89 8b       	std	Y+17, r24	; 0x11
    3be6:	1b 8a       	std	Y+19, r1	; 0x13
    3be8:	ce 01       	movw	r24, r28
    3bea:	67 e1       	ldi	r22, 0x17	; 23
    3bec:	0e 94 cb 14 	call	0x2996	; 0x2996 <_ZN11XBeeRequest8setApiIdEh>
    3bf0:	df 91       	pop	r29
    3bf2:	cf 91       	pop	r28
    3bf4:	1f 91       	pop	r17
    3bf6:	0f 91       	pop	r16
    3bf8:	08 95       	ret

00003bfa <_ZN22RemoteAtCommandRequest18getRemoteAddress16Ev>:
    3bfa:	fc 01       	movw	r30, r24
    3bfc:	81 89       	ldd	r24, Z+17	; 0x11
    3bfe:	92 89       	ldd	r25, Z+18	; 0x12
    3c00:	08 95       	ret

00003c02 <_ZN22RemoteAtCommandRequest18setRemoteAddress16Ej>:
    3c02:	fc 01       	movw	r30, r24
    3c04:	72 8b       	std	Z+18, r23	; 0x12
    3c06:	61 8b       	std	Z+17, r22	; 0x11
    3c08:	08 95       	ret

00003c0a <_ZN22RemoteAtCommandRequest18getRemoteAddress64Ev>:
    3c0a:	9c 01       	movw	r18, r24
    3c0c:	27 5f       	subi	r18, 0xF7	; 247
    3c0e:	3f 4f       	sbci	r19, 0xFF	; 255
    3c10:	c9 01       	movw	r24, r18
    3c12:	08 95       	ret

00003c14 <_ZN22RemoteAtCommandRequest18setRemoteAddress64ER13XBeeAddress64>:
    3c14:	dc 01       	movw	r26, r24
    3c16:	19 96       	adiw	r26, 0x09	; 9
    3c18:	fb 01       	movw	r30, r22
    3c1a:	88 e0       	ldi	r24, 0x08	; 8
    3c1c:	01 90       	ld	r0, Z+
    3c1e:	0d 92       	st	X+, r0
    3c20:	81 50       	subi	r24, 0x01	; 1
    3c22:	e1 f7       	brne	.-8      	; 0x3c1c <_ZN22RemoteAtCommandRequest18setRemoteAddress64ER13XBeeAddress64+0x8>
    3c24:	08 95       	ret

00003c26 <_ZN22RemoteAtCommandRequest15getApplyChangesEv>:
    3c26:	fc 01       	movw	r30, r24
    3c28:	83 89       	ldd	r24, Z+19	; 0x13
    3c2a:	08 95       	ret

00003c2c <_ZN22RemoteAtCommandRequest15setApplyChangesEb>:
    3c2c:	fc 01       	movw	r30, r24
    3c2e:	63 8b       	std	Z+19, r22	; 0x13
    3c30:	08 95       	ret

00003c32 <_ZN22RemoteAtCommandRequest12getFrameDataEh>:
    3c32:	1f 93       	push	r17
    3c34:	fc 01       	movw	r30, r24
    3c36:	16 2f       	mov	r17, r22
    3c38:	66 23       	and	r22, r22
    3c3a:	21 f4       	brne	.+8      	; 0x3c44 <_ZN22RemoteAtCommandRequest12getFrameDataEh+0x12>
    3c3c:	09 96       	adiw	r24, 0x09	; 9
    3c3e:	0e 94 36 16 	call	0x2c6c	; 0x2c6c <_ZN13XBeeAddress646getMsbEv>
    3c42:	17 c0       	rjmp	.+46     	; 0x3c72 <_ZN22RemoteAtCommandRequest12getFrameDataEh+0x40>
    3c44:	61 30       	cpi	r22, 0x01	; 1
    3c46:	21 f4       	brne	.+8      	; 0x3c50 <_ZN22RemoteAtCommandRequest12getFrameDataEh+0x1e>
    3c48:	09 96       	adiw	r24, 0x09	; 9
    3c4a:	0e 94 36 16 	call	0x2c6c	; 0x2c6c <_ZN13XBeeAddress646getMsbEv>
    3c4e:	1b c0       	rjmp	.+54     	; 0x3c86 <_ZN22RemoteAtCommandRequest12getFrameDataEh+0x54>
    3c50:	62 30       	cpi	r22, 0x02	; 2
    3c52:	21 f4       	brne	.+8      	; 0x3c5c <_ZN22RemoteAtCommandRequest12getFrameDataEh+0x2a>
    3c54:	09 96       	adiw	r24, 0x09	; 9
    3c56:	0e 94 36 16 	call	0x2c6c	; 0x2c6c <_ZN13XBeeAddress646getMsbEv>
    3c5a:	1e c0       	rjmp	.+60     	; 0x3c98 <_ZN22RemoteAtCommandRequest12getFrameDataEh+0x66>
    3c5c:	63 30       	cpi	r22, 0x03	; 3
    3c5e:	21 f4       	brne	.+8      	; 0x3c68 <_ZN22RemoteAtCommandRequest12getFrameDataEh+0x36>
    3c60:	09 96       	adiw	r24, 0x09	; 9
    3c62:	0e 94 36 16 	call	0x2c6c	; 0x2c6c <_ZN13XBeeAddress646getMsbEv>
    3c66:	48 c0       	rjmp	.+144    	; 0x3cf8 <_ZN22RemoteAtCommandRequest12getFrameDataEh+0xc6>
    3c68:	64 30       	cpi	r22, 0x04	; 4
    3c6a:	41 f4       	brne	.+16     	; 0x3c7c <_ZN22RemoteAtCommandRequest12getFrameDataEh+0x4a>
    3c6c:	09 96       	adiw	r24, 0x09	; 9
    3c6e:	0e 94 42 16 	call	0x2c84	; 0x2c84 <_ZN13XBeeAddress646getLsbEv>
    3c72:	69 2f       	mov	r22, r25
    3c74:	77 27       	eor	r23, r23
    3c76:	88 27       	eor	r24, r24
    3c78:	99 27       	eor	r25, r25
    3c7a:	3e c0       	rjmp	.+124    	; 0x3cf8 <_ZN22RemoteAtCommandRequest12getFrameDataEh+0xc6>
    3c7c:	65 30       	cpi	r22, 0x05	; 5
    3c7e:	39 f4       	brne	.+14     	; 0x3c8e <_ZN22RemoteAtCommandRequest12getFrameDataEh+0x5c>
    3c80:	09 96       	adiw	r24, 0x09	; 9
    3c82:	0e 94 42 16 	call	0x2c84	; 0x2c84 <_ZN13XBeeAddress646getLsbEv>
    3c86:	bc 01       	movw	r22, r24
    3c88:	88 27       	eor	r24, r24
    3c8a:	99 27       	eor	r25, r25
    3c8c:	35 c0       	rjmp	.+106    	; 0x3cf8 <_ZN22RemoteAtCommandRequest12getFrameDataEh+0xc6>
    3c8e:	66 30       	cpi	r22, 0x06	; 6
    3c90:	41 f4       	brne	.+16     	; 0x3ca2 <_ZN22RemoteAtCommandRequest12getFrameDataEh+0x70>
    3c92:	09 96       	adiw	r24, 0x09	; 9
    3c94:	0e 94 42 16 	call	0x2c84	; 0x2c84 <_ZN13XBeeAddress646getLsbEv>
    3c98:	67 2f       	mov	r22, r23
    3c9a:	78 2f       	mov	r23, r24
    3c9c:	89 2f       	mov	r24, r25
    3c9e:	99 27       	eor	r25, r25
    3ca0:	2b c0       	rjmp	.+86     	; 0x3cf8 <_ZN22RemoteAtCommandRequest12getFrameDataEh+0xc6>
    3ca2:	67 30       	cpi	r22, 0x07	; 7
    3ca4:	21 f4       	brne	.+8      	; 0x3cae <_ZN22RemoteAtCommandRequest12getFrameDataEh+0x7c>
    3ca6:	09 96       	adiw	r24, 0x09	; 9
    3ca8:	0e 94 42 16 	call	0x2c84	; 0x2c84 <_ZN13XBeeAddress646getLsbEv>
    3cac:	25 c0       	rjmp	.+74     	; 0x3cf8 <_ZN22RemoteAtCommandRequest12getFrameDataEh+0xc6>
    3cae:	68 30       	cpi	r22, 0x08	; 8
    3cb0:	11 f4       	brne	.+4      	; 0x3cb6 <_ZN22RemoteAtCommandRequest12getFrameDataEh+0x84>
    3cb2:	62 89       	ldd	r22, Z+18	; 0x12
    3cb4:	21 c0       	rjmp	.+66     	; 0x3cf8 <_ZN22RemoteAtCommandRequest12getFrameDataEh+0xc6>
    3cb6:	69 30       	cpi	r22, 0x09	; 9
    3cb8:	11 f4       	brne	.+4      	; 0x3cbe <_ZN22RemoteAtCommandRequest12getFrameDataEh+0x8c>
    3cba:	61 89       	ldd	r22, Z+17	; 0x11
    3cbc:	1d c0       	rjmp	.+58     	; 0x3cf8 <_ZN22RemoteAtCommandRequest12getFrameDataEh+0xc6>
    3cbe:	6a 30       	cpi	r22, 0x0A	; 10
    3cc0:	39 f4       	brne	.+14     	; 0x3cd0 <_ZN22RemoteAtCommandRequest12getFrameDataEh+0x9e>
    3cc2:	83 89       	ldd	r24, Z+19	; 0x13
    3cc4:	88 23       	and	r24, r24
    3cc6:	11 f4       	brne	.+4      	; 0x3ccc <_ZN22RemoteAtCommandRequest12getFrameDataEh+0x9a>
    3cc8:	60 e0       	ldi	r22, 0x00	; 0
    3cca:	16 c0       	rjmp	.+44     	; 0x3cf8 <_ZN22RemoteAtCommandRequest12getFrameDataEh+0xc6>
    3ccc:	62 e0       	ldi	r22, 0x02	; 2
    3cce:	14 c0       	rjmp	.+40     	; 0x3cf8 <_ZN22RemoteAtCommandRequest12getFrameDataEh+0xc6>
    3cd0:	6b 30       	cpi	r22, 0x0B	; 11
    3cd2:	21 f4       	brne	.+8      	; 0x3cdc <_ZN22RemoteAtCommandRequest12getFrameDataEh+0xaa>
    3cd4:	0e 94 f7 1b 	call	0x37ee	; 0x37ee <_ZN16AtCommandRequest10getCommandEv>
    3cd8:	fc 01       	movw	r30, r24
    3cda:	0d c0       	rjmp	.+26     	; 0x3cf6 <_ZN22RemoteAtCommandRequest12getFrameDataEh+0xc4>
    3cdc:	6c 30       	cpi	r22, 0x0C	; 12
    3cde:	29 f4       	brne	.+10     	; 0x3cea <_ZN22RemoteAtCommandRequest12getFrameDataEh+0xb8>
    3ce0:	0e 94 f7 1b 	call	0x37ee	; 0x37ee <_ZN16AtCommandRequest10getCommandEv>
    3ce4:	fc 01       	movw	r30, r24
    3ce6:	61 81       	ldd	r22, Z+1	; 0x01
    3ce8:	07 c0       	rjmp	.+14     	; 0x3cf8 <_ZN22RemoteAtCommandRequest12getFrameDataEh+0xc6>
    3cea:	0e 94 fb 1b 	call	0x37f6	; 0x37f6 <_ZN16AtCommandRequest15getCommandValueEv>
    3cee:	fc 01       	movw	r30, r24
    3cf0:	e1 0f       	add	r30, r17
    3cf2:	f1 1d       	adc	r31, r1
    3cf4:	3d 97       	sbiw	r30, 0x0d	; 13
    3cf6:	60 81       	ld	r22, Z
    3cf8:	86 2f       	mov	r24, r22
    3cfa:	1f 91       	pop	r17
    3cfc:	08 95       	ret

00003cfe <_ZN22RemoteAtCommandRequest18getFrameDataLengthEv>:
    3cfe:	0e 94 ff 1b 	call	0x37fe	; 0x37fe <_ZN16AtCommandRequest21getCommandValueLengthEv>
    3d02:	83 5f       	subi	r24, 0xF3	; 243
    3d04:	08 95       	ret

00003d06 <_GLOBAL__I__ZN12XBeeResponseC2Ev>:
    3d06:	0f 93       	push	r16
    3d08:	1f 93       	push	r17
    3d0a:	8f e5       	ldi	r24, 0x5F	; 95
    3d0c:	97 e0       	ldi	r25, 0x07	; 7
    3d0e:	40 e0       	ldi	r20, 0x00	; 0
    3d10:	50 e0       	ldi	r21, 0x00	; 0
    3d12:	60 e0       	ldi	r22, 0x00	; 0
    3d14:	70 e0       	ldi	r23, 0x00	; 0
    3d16:	0f ef       	ldi	r16, 0xFF	; 255
    3d18:	1f ef       	ldi	r17, 0xFF	; 255
    3d1a:	20 e0       	ldi	r18, 0x00	; 0
    3d1c:	30 e0       	ldi	r19, 0x00	; 0
    3d1e:	0e 94 28 16 	call	0x2c50	; 0x2c50 <_ZN13XBeeAddress64C1Emm>
    3d22:	1f 91       	pop	r17
    3d24:	0f 91       	pop	r16
    3d26:	08 95       	ret

00003d28 <_ZN4XBee10readPacketEi>:
    3d28:	af 92       	push	r10
    3d2a:	bf 92       	push	r11
    3d2c:	cf 92       	push	r12
    3d2e:	df 92       	push	r13
    3d30:	ef 92       	push	r14
    3d32:	ff 92       	push	r15
    3d34:	0f 93       	push	r16
    3d36:	1f 93       	push	r17
    3d38:	cf 93       	push	r28
    3d3a:	df 93       	push	r29
    3d3c:	5c 01       	movw	r10, r24
    3d3e:	6b 01       	movw	r12, r22
    3d40:	77 fd       	sbrc	r23, 7
    3d42:	1e c0       	rjmp	.+60     	; 0x3d80 <_ZN4XBee10readPacketEi+0x58>
    3d44:	0e 94 e2 4b 	call	0x97c4	; 0x97c4 <millis>
    3d48:	7b 01       	movw	r14, r22
    3d4a:	8c 01       	movw	r16, r24
    3d4c:	12 c0       	rjmp	.+36     	; 0x3d72 <_ZN4XBee10readPacketEi+0x4a>
    3d4e:	c5 01       	movw	r24, r10
    3d50:	0e 94 de 13 	call	0x27bc	; 0x27bc <_ZN4XBee10readPacketEv>
    3d54:	c5 01       	movw	r24, r10
    3d56:	0e 94 ab 13 	call	0x2756	; 0x2756 <_ZN4XBee11getResponseEv>
    3d5a:	ec 01       	movw	r28, r24
    3d5c:	0e 94 22 0e 	call	0x1c44	; 0x1c44 <_ZN12XBeeResponse11isAvailableEv>
    3d60:	88 23       	and	r24, r24
    3d62:	11 f0       	breq	.+4      	; 0x3d68 <_ZN4XBee10readPacketEi+0x40>
    3d64:	81 e0       	ldi	r24, 0x01	; 1
    3d66:	0d c0       	rjmp	.+26     	; 0x3d82 <_ZN4XBee10readPacketEi+0x5a>
    3d68:	ce 01       	movw	r24, r28
    3d6a:	0e 94 28 0e 	call	0x1c50	; 0x1c50 <_ZN12XBeeResponse7isErrorEv>
    3d6e:	88 23       	and	r24, r24
    3d70:	39 f4       	brne	.+14     	; 0x3d80 <_ZN4XBee10readPacketEi+0x58>
    3d72:	0e 94 e2 4b 	call	0x97c4	; 0x97c4 <millis>
    3d76:	6e 19       	sub	r22, r14
    3d78:	7f 09       	sbc	r23, r15
    3d7a:	6c 15       	cp	r22, r12
    3d7c:	7d 05       	cpc	r23, r13
    3d7e:	3c f3       	brlt	.-50     	; 0x3d4e <_ZN4XBee10readPacketEi+0x26>
    3d80:	80 e0       	ldi	r24, 0x00	; 0
    3d82:	df 91       	pop	r29
    3d84:	cf 91       	pop	r28
    3d86:	1f 91       	pop	r17
    3d88:	0f 91       	pop	r16
    3d8a:	ff 90       	pop	r15
    3d8c:	ef 90       	pop	r14
    3d8e:	df 90       	pop	r13
    3d90:	cf 90       	pop	r12
    3d92:	bf 90       	pop	r11
    3d94:	af 90       	pop	r10
    3d96:	08 95       	ret

00003d98 <_ZN4XBee5printEh>:
    3d98:	fc 01       	movw	r30, r24
    3d9a:	e4 58       	subi	r30, 0x84	; 132
    3d9c:	ff 4f       	sbci	r31, 0xFF	; 255
    3d9e:	80 81       	ld	r24, Z
    3da0:	91 81       	ldd	r25, Z+1	; 0x01
    3da2:	40 e0       	ldi	r20, 0x00	; 0
    3da4:	50 e0       	ldi	r21, 0x00	; 0
    3da6:	0e 94 42 41 	call	0x8284	; 0x8284 <_ZN5Print5printEhi>
    3daa:	08 95       	ret

00003dac <_ZN4XBee8sendByteEhb>:
    3dac:	1f 93       	push	r17
    3dae:	cf 93       	push	r28
    3db0:	df 93       	push	r29
    3db2:	ec 01       	movw	r28, r24
    3db4:	16 2f       	mov	r17, r22
    3db6:	44 23       	and	r20, r20
    3db8:	81 f0       	breq	.+32     	; 0x3dda <_ZN4XBee8sendByteEhb+0x2e>
    3dba:	86 2f       	mov	r24, r22
    3dbc:	8d 57       	subi	r24, 0x7D	; 125
    3dbe:	82 30       	cpi	r24, 0x02	; 2
    3dc0:	20 f0       	brcs	.+8      	; 0x3dca <_ZN4XBee8sendByteEhb+0x1e>
    3dc2:	61 31       	cpi	r22, 0x11	; 17
    3dc4:	11 f0       	breq	.+4      	; 0x3dca <_ZN4XBee8sendByteEhb+0x1e>
    3dc6:	63 31       	cpi	r22, 0x13	; 19
    3dc8:	41 f4       	brne	.+16     	; 0x3dda <_ZN4XBee8sendByteEhb+0x2e>
    3dca:	ce 01       	movw	r24, r28
    3dcc:	6d e7       	ldi	r22, 0x7D	; 125
    3dce:	0e 94 cc 1e 	call	0x3d98	; 0x3d98 <_ZN4XBee5printEh>
    3dd2:	60 e2       	ldi	r22, 0x20	; 32
    3dd4:	61 27       	eor	r22, r17
    3dd6:	ce 01       	movw	r24, r28
    3dd8:	02 c0       	rjmp	.+4      	; 0x3dde <_ZN4XBee8sendByteEhb+0x32>
    3dda:	ce 01       	movw	r24, r28
    3ddc:	61 2f       	mov	r22, r17
    3dde:	0e 94 cc 1e 	call	0x3d98	; 0x3d98 <_ZN4XBee5printEh>
    3de2:	df 91       	pop	r29
    3de4:	cf 91       	pop	r28
    3de6:	1f 91       	pop	r17
    3de8:	08 95       	ret

00003dea <_ZN4XBee4sendER11XBeeRequest>:
    3dea:	cf 92       	push	r12
    3dec:	df 92       	push	r13
    3dee:	ff 92       	push	r15
    3df0:	0f 93       	push	r16
    3df2:	1f 93       	push	r17
    3df4:	cf 93       	push	r28
    3df6:	df 93       	push	r29
    3df8:	6c 01       	movw	r12, r24
    3dfa:	eb 01       	movw	r28, r22
    3dfc:	6e e7       	ldi	r22, 0x7E	; 126
    3dfe:	40 e0       	ldi	r20, 0x00	; 0
    3e00:	0e 94 d6 1e 	call	0x3dac	; 0x3dac <_ZN4XBee8sendByteEhb>
    3e04:	e8 81       	ld	r30, Y
    3e06:	f9 81       	ldd	r31, Y+1	; 0x01
    3e08:	02 80       	ldd	r0, Z+2	; 0x02
    3e0a:	f3 81       	ldd	r31, Z+3	; 0x03
    3e0c:	e0 2d       	mov	r30, r0
    3e0e:	ce 01       	movw	r24, r28
    3e10:	09 95       	icall
    3e12:	08 2f       	mov	r16, r24
    3e14:	e8 81       	ld	r30, Y
    3e16:	f9 81       	ldd	r31, Y+1	; 0x01
    3e18:	02 80       	ldd	r0, Z+2	; 0x02
    3e1a:	f3 81       	ldd	r31, Z+3	; 0x03
    3e1c:	e0 2d       	mov	r30, r0
    3e1e:	ce 01       	movw	r24, r28
    3e20:	09 95       	icall
    3e22:	f8 2e       	mov	r15, r24
    3e24:	10 e0       	ldi	r17, 0x00	; 0
    3e26:	0e 5f       	subi	r16, 0xFE	; 254
    3e28:	1f 4f       	sbci	r17, 0xFF	; 255
    3e2a:	c6 01       	movw	r24, r12
    3e2c:	61 2f       	mov	r22, r17
    3e2e:	41 e0       	ldi	r20, 0x01	; 1
    3e30:	0e 94 d6 1e 	call	0x3dac	; 0x3dac <_ZN4XBee8sendByteEhb>
    3e34:	82 e0       	ldi	r24, 0x02	; 2
    3e36:	f8 0e       	add	r15, r24
    3e38:	c6 01       	movw	r24, r12
    3e3a:	6f 2d       	mov	r22, r15
    3e3c:	41 e0       	ldi	r20, 0x01	; 1
    3e3e:	0e 94 d6 1e 	call	0x3dac	; 0x3dac <_ZN4XBee8sendByteEhb>
    3e42:	ce 01       	movw	r24, r28
    3e44:	0e 94 c8 14 	call	0x2990	; 0x2990 <_ZN11XBeeRequest8getApiIdEv>
    3e48:	68 2f       	mov	r22, r24
    3e4a:	c6 01       	movw	r24, r12
    3e4c:	41 e0       	ldi	r20, 0x01	; 1
    3e4e:	0e 94 d6 1e 	call	0x3dac	; 0x3dac <_ZN4XBee8sendByteEhb>
    3e52:	ce 01       	movw	r24, r28
    3e54:	0e 94 c5 14 	call	0x298a	; 0x298a <_ZN11XBeeRequest10getFrameIdEv>
    3e58:	68 2f       	mov	r22, r24
    3e5a:	c6 01       	movw	r24, r12
    3e5c:	41 e0       	ldi	r20, 0x01	; 1
    3e5e:	0e 94 d6 1e 	call	0x3dac	; 0x3dac <_ZN4XBee8sendByteEhb>
    3e62:	ce 01       	movw	r24, r28
    3e64:	0e 94 c8 14 	call	0x2990	; 0x2990 <_ZN11XBeeRequest8getApiIdEv>
    3e68:	f8 2e       	mov	r15, r24
    3e6a:	ce 01       	movw	r24, r28
    3e6c:	0e 94 c5 14 	call	0x298a	; 0x298a <_ZN11XBeeRequest10getFrameIdEv>
    3e70:	f8 0e       	add	r15, r24
    3e72:	00 e0       	ldi	r16, 0x00	; 0
    3e74:	10 e0       	ldi	r17, 0x00	; 0
    3e76:	18 c0       	rjmp	.+48     	; 0x3ea8 <_ZN4XBee4sendER11XBeeRequest+0xbe>
    3e78:	e8 81       	ld	r30, Y
    3e7a:	f9 81       	ldd	r31, Y+1	; 0x01
    3e7c:	01 90       	ld	r0, Z+
    3e7e:	f0 81       	ld	r31, Z
    3e80:	e0 2d       	mov	r30, r0
    3e82:	ce 01       	movw	r24, r28
    3e84:	60 2f       	mov	r22, r16
    3e86:	09 95       	icall
    3e88:	68 2f       	mov	r22, r24
    3e8a:	c6 01       	movw	r24, r12
    3e8c:	41 e0       	ldi	r20, 0x01	; 1
    3e8e:	0e 94 d6 1e 	call	0x3dac	; 0x3dac <_ZN4XBee8sendByteEhb>
    3e92:	e8 81       	ld	r30, Y
    3e94:	f9 81       	ldd	r31, Y+1	; 0x01
    3e96:	01 90       	ld	r0, Z+
    3e98:	f0 81       	ld	r31, Z
    3e9a:	e0 2d       	mov	r30, r0
    3e9c:	ce 01       	movw	r24, r28
    3e9e:	60 2f       	mov	r22, r16
    3ea0:	09 95       	icall
    3ea2:	f8 0e       	add	r15, r24
    3ea4:	0f 5f       	subi	r16, 0xFF	; 255
    3ea6:	1f 4f       	sbci	r17, 0xFF	; 255
    3ea8:	e8 81       	ld	r30, Y
    3eaa:	f9 81       	ldd	r31, Y+1	; 0x01
    3eac:	02 80       	ldd	r0, Z+2	; 0x02
    3eae:	f3 81       	ldd	r31, Z+3	; 0x03
    3eb0:	e0 2d       	mov	r30, r0
    3eb2:	ce 01       	movw	r24, r28
    3eb4:	09 95       	icall
    3eb6:	90 e0       	ldi	r25, 0x00	; 0
    3eb8:	08 17       	cp	r16, r24
    3eba:	19 07       	cpc	r17, r25
    3ebc:	ec f2       	brlt	.-70     	; 0x3e78 <_ZN4XBee4sendER11XBeeRequest+0x8e>
    3ebe:	f0 94       	com	r15
    3ec0:	c6 01       	movw	r24, r12
    3ec2:	6f 2d       	mov	r22, r15
    3ec4:	41 e0       	ldi	r20, 0x01	; 1
    3ec6:	0e 94 d6 1e 	call	0x3dac	; 0x3dac <_ZN4XBee8sendByteEhb>
    3eca:	df 91       	pop	r29
    3ecc:	cf 91       	pop	r28
    3ece:	1f 91       	pop	r17
    3ed0:	0f 91       	pop	r16
    3ed2:	ff 90       	pop	r15
    3ed4:	df 90       	pop	r13
    3ed6:	cf 90       	pop	r12
    3ed8:	08 95       	ret

00003eda <_ZN4XBee5beginEl>:
    3eda:	fc 01       	movw	r30, r24
    3edc:	e4 58       	subi	r30, 0x84	; 132
    3ede:	ff 4f       	sbci	r31, 0xFF	; 255
    3ee0:	80 81       	ld	r24, Z
    3ee2:	91 81       	ldd	r25, Z+1	; 0x01
    3ee4:	0e 94 60 3e 	call	0x7cc0	; 0x7cc0 <_ZN14HardwareSerial5beginEl>
    3ee8:	08 95       	ret

00003eea <_ZN8xbeeSRstC2Ev>:
    3eea:	fc 01       	movw	r30, r24
    3eec:	11 82       	std	Z+1, r1	; 0x01
    3eee:	10 82       	st	Z, r1
    3ef0:	13 82       	std	Z+3, r1	; 0x03
    3ef2:	14 82       	std	Z+4, r1	; 0x04
    3ef4:	15 82       	std	Z+5, r1	; 0x05
    3ef6:	16 82       	std	Z+6, r1	; 0x06
    3ef8:	17 82       	std	Z+7, r1	; 0x07
    3efa:	10 86       	std	Z+8, r1	; 0x08
    3efc:	11 86       	std	Z+9, r1	; 0x09
    3efe:	12 86       	std	Z+10, r1	; 0x0a
    3f00:	08 95       	ret

00003f02 <_ZN8xbeeSRstC1Ev>:
    3f02:	fc 01       	movw	r30, r24
    3f04:	11 82       	std	Z+1, r1	; 0x01
    3f06:	10 82       	st	Z, r1
    3f08:	13 82       	std	Z+3, r1	; 0x03
    3f0a:	14 82       	std	Z+4, r1	; 0x04
    3f0c:	15 82       	std	Z+5, r1	; 0x05
    3f0e:	16 82       	std	Z+6, r1	; 0x06
    3f10:	17 82       	std	Z+7, r1	; 0x07
    3f12:	10 86       	std	Z+8, r1	; 0x08
    3f14:	11 86       	std	Z+9, r1	; 0x09
    3f16:	12 86       	std	Z+10, r1	; 0x0a
    3f18:	08 95       	ret

00003f1a <_ZN8xbeeSRst8sendDataEPhiPli>:
    3f1a:	4f 92       	push	r4
    3f1c:	5f 92       	push	r5
    3f1e:	6f 92       	push	r6
    3f20:	7f 92       	push	r7
    3f22:	8f 92       	push	r8
    3f24:	9f 92       	push	r9
    3f26:	bf 92       	push	r11
    3f28:	cf 92       	push	r12
    3f2a:	df 92       	push	r13
    3f2c:	ef 92       	push	r14
    3f2e:	ff 92       	push	r15
    3f30:	0f 93       	push	r16
    3f32:	1f 93       	push	r17
    3f34:	cf 93       	push	r28
    3f36:	df 93       	push	r29
    3f38:	2b 01       	movw	r4, r22
    3f3a:	3a 01       	movw	r6, r20
    3f3c:	f2 2e       	mov	r15, r18
    3f3e:	e3 2e       	mov	r14, r19
    3f40:	48 01       	movw	r8, r16
    3f42:	80 91 4a 05 	lds	r24, 0x054A
    3f46:	8f 5f       	subi	r24, 0xFF	; 255
    3f48:	80 93 4a 05 	sts	0x054A, r24
    3f4c:	88 23       	and	r24, r24
    3f4e:	19 f4       	brne	.+6      	; 0x3f56 <_ZN8xbeeSRst8sendDataEPhiPli+0x3c>
    3f50:	81 e0       	ldi	r24, 0x01	; 1
    3f52:	80 93 4a 05 	sts	0x054A, r24
    3f56:	8f e7       	ldi	r24, 0x7F	; 127
    3f58:	99 e0       	ldi	r25, 0x09	; 9
    3f5a:	6e e7       	ldi	r22, 0x7E	; 126
    3f5c:	70 e0       	ldi	r23, 0x00	; 0
    3f5e:	40 e0       	ldi	r20, 0x00	; 0
    3f60:	50 e0       	ldi	r21, 0x00	; 0
    3f62:	0e 94 8a 41 	call	0x8314	; 0x8314 <_ZN5Print5printEii>
    3f66:	8f e7       	ldi	r24, 0x7F	; 127
    3f68:	99 e0       	ldi	r25, 0x09	; 9
    3f6a:	60 e0       	ldi	r22, 0x00	; 0
    3f6c:	70 e0       	ldi	r23, 0x00	; 0
    3f6e:	40 e0       	ldi	r20, 0x00	; 0
    3f70:	50 e0       	ldi	r21, 0x00	; 0
    3f72:	0e 94 8a 41 	call	0x8314	; 0x8314 <_ZN5Print5printEii>
    3f76:	b3 01       	movw	r22, r6
    3f78:	62 5f       	subi	r22, 0xF2	; 242
    3f7a:	7f 4f       	sbci	r23, 0xFF	; 255
    3f7c:	8f e7       	ldi	r24, 0x7F	; 127
    3f7e:	99 e0       	ldi	r25, 0x09	; 9
    3f80:	40 e0       	ldi	r20, 0x00	; 0
    3f82:	50 e0       	ldi	r21, 0x00	; 0
    3f84:	0e 94 8a 41 	call	0x8314	; 0x8314 <_ZN5Print5printEii>
    3f88:	8f e7       	ldi	r24, 0x7F	; 127
    3f8a:	99 e0       	ldi	r25, 0x09	; 9
    3f8c:	60 e1       	ldi	r22, 0x10	; 16
    3f8e:	70 e0       	ldi	r23, 0x00	; 0
    3f90:	40 e0       	ldi	r20, 0x00	; 0
    3f92:	50 e0       	ldi	r21, 0x00	; 0
    3f94:	0e 94 8a 41 	call	0x8314	; 0x8314 <_ZN5Print5printEii>
    3f98:	8f e7       	ldi	r24, 0x7F	; 127
    3f9a:	99 e0       	ldi	r25, 0x09	; 9
    3f9c:	60 91 4a 05 	lds	r22, 0x054A
    3fa0:	40 e0       	ldi	r20, 0x00	; 0
    3fa2:	50 e0       	ldi	r21, 0x00	; 0
    3fa4:	0e 94 42 41 	call	0x8284	; 0x8284 <_ZN5Print5printEhi>
    3fa8:	9f ee       	ldi	r25, 0xEF	; 239
    3faa:	b9 2e       	mov	r11, r25
    3fac:	80 91 4a 05 	lds	r24, 0x054A
    3fb0:	b8 1a       	sub	r11, r24
    3fb2:	2f 2d       	mov	r18, r15
    3fb4:	3e 2d       	mov	r19, r14
    3fb6:	c9 01       	movw	r24, r18
    3fb8:	6c 01       	movw	r12, r24
    3fba:	ee 24       	eor	r14, r14
    3fbc:	ff 24       	eor	r15, r15
    3fbe:	26 c0       	rjmp	.+76     	; 0x400c <_ZN8xbeeSRst8sendDataEPhiPli+0xf2>
    3fc0:	f6 01       	movw	r30, r12
    3fc2:	20 81       	ld	r18, Z
    3fc4:	31 81       	ldd	r19, Z+1	; 0x01
    3fc6:	42 81       	ldd	r20, Z+2	; 0x02
    3fc8:	53 81       	ldd	r21, Z+3	; 0x03
    3fca:	0c 2e       	mov	r0, r28
    3fcc:	04 c0       	rjmp	.+8      	; 0x3fd6 <_ZN8xbeeSRst8sendDataEPhiPli+0xbc>
    3fce:	55 95       	asr	r21
    3fd0:	47 95       	ror	r20
    3fd2:	37 95       	ror	r19
    3fd4:	27 95       	ror	r18
    3fd6:	0a 94       	dec	r0
    3fd8:	d2 f7       	brpl	.-12     	; 0x3fce <_ZN8xbeeSRst8sendDataEPhiPli+0xb4>
    3fda:	12 2f       	mov	r17, r18
    3fdc:	8f e7       	ldi	r24, 0x7F	; 127
    3fde:	99 e0       	ldi	r25, 0x09	; 9
    3fe0:	62 2f       	mov	r22, r18
    3fe2:	40 e0       	ldi	r20, 0x00	; 0
    3fe4:	50 e0       	ldi	r21, 0x00	; 0
    3fe6:	0e 94 42 41 	call	0x8284	; 0x8284 <_ZN5Print5printEhi>
    3fea:	b1 1a       	sub	r11, r17
    3fec:	28 97       	sbiw	r28, 0x08	; 8
    3fee:	ff ef       	ldi	r31, 0xFF	; 255
    3ff0:	c8 3f       	cpi	r28, 0xF8	; 248
    3ff2:	df 07       	cpc	r29, r31
    3ff4:	29 f7       	brne	.-54     	; 0x3fc0 <_ZN8xbeeSRst8sendDataEPhiPli+0xa6>
    3ff6:	08 94       	sec
    3ff8:	e1 1c       	adc	r14, r1
    3ffa:	f1 1c       	adc	r15, r1
    3ffc:	84 e0       	ldi	r24, 0x04	; 4
    3ffe:	90 e0       	ldi	r25, 0x00	; 0
    4000:	c8 0e       	add	r12, r24
    4002:	d9 1e       	adc	r13, r25
    4004:	92 e0       	ldi	r25, 0x02	; 2
    4006:	e9 16       	cp	r14, r25
    4008:	f1 04       	cpc	r15, r1
    400a:	19 f0       	breq	.+6      	; 0x4012 <_ZN8xbeeSRst8sendDataEPhiPli+0xf8>
    400c:	c8 e1       	ldi	r28, 0x18	; 24
    400e:	d0 e0       	ldi	r29, 0x00	; 0
    4010:	d7 cf       	rjmp	.-82     	; 0x3fc0 <_ZN8xbeeSRst8sendDataEPhiPli+0xa6>
    4012:	69 2d       	mov	r22, r9
    4014:	77 27       	eor	r23, r23
    4016:	67 fd       	sbrc	r22, 7
    4018:	7a 95       	dec	r23
    401a:	06 2f       	mov	r16, r22
    401c:	8f e7       	ldi	r24, 0x7F	; 127
    401e:	99 e0       	ldi	r25, 0x09	; 9
    4020:	40 e0       	ldi	r20, 0x00	; 0
    4022:	50 e0       	ldi	r21, 0x00	; 0
    4024:	0e 94 42 41 	call	0x8284	; 0x8284 <_ZN5Print5printEhi>
    4028:	b0 1a       	sub	r11, r16
    402a:	0b 2d       	mov	r16, r11
    402c:	8f e7       	ldi	r24, 0x7F	; 127
    402e:	99 e0       	ldi	r25, 0x09	; 9
    4030:	68 2d       	mov	r22, r8
    4032:	40 e0       	ldi	r20, 0x00	; 0
    4034:	50 e0       	ldi	r21, 0x00	; 0
    4036:	0e 94 42 41 	call	0x8284	; 0x8284 <_ZN5Print5printEhi>
    403a:	08 19       	sub	r16, r8
    403c:	8f e7       	ldi	r24, 0x7F	; 127
    403e:	99 e0       	ldi	r25, 0x09	; 9
    4040:	60 e0       	ldi	r22, 0x00	; 0
    4042:	70 e0       	ldi	r23, 0x00	; 0
    4044:	40 e0       	ldi	r20, 0x00	; 0
    4046:	50 e0       	ldi	r21, 0x00	; 0
    4048:	0e 94 8a 41 	call	0x8314	; 0x8314 <_ZN5Print5printEii>
    404c:	8f e7       	ldi	r24, 0x7F	; 127
    404e:	99 e0       	ldi	r25, 0x09	; 9
    4050:	60 e0       	ldi	r22, 0x00	; 0
    4052:	70 e0       	ldi	r23, 0x00	; 0
    4054:	40 e0       	ldi	r20, 0x00	; 0
    4056:	50 e0       	ldi	r21, 0x00	; 0
    4058:	0e 94 8a 41 	call	0x8314	; 0x8314 <_ZN5Print5printEii>
    405c:	c0 e0       	ldi	r28, 0x00	; 0
    405e:	d0 e0       	ldi	r29, 0x00	; 0
    4060:	0d c0       	rjmp	.+26     	; 0x407c <_ZN8xbeeSRst8sendDataEPhiPli+0x162>
    4062:	f2 01       	movw	r30, r4
    4064:	ec 0f       	add	r30, r28
    4066:	fd 1f       	adc	r31, r29
    4068:	10 81       	ld	r17, Z
    406a:	8f e7       	ldi	r24, 0x7F	; 127
    406c:	99 e0       	ldi	r25, 0x09	; 9
    406e:	61 2f       	mov	r22, r17
    4070:	40 e0       	ldi	r20, 0x00	; 0
    4072:	50 e0       	ldi	r21, 0x00	; 0
    4074:	0e 94 42 41 	call	0x8284	; 0x8284 <_ZN5Print5printEhi>
    4078:	01 1b       	sub	r16, r17
    407a:	21 96       	adiw	r28, 0x01	; 1
    407c:	c6 15       	cp	r28, r6
    407e:	d7 05       	cpc	r29, r7
    4080:	84 f3       	brlt	.-32     	; 0x4062 <_ZN8xbeeSRst8sendDataEPhiPli+0x148>
    4082:	8f e7       	ldi	r24, 0x7F	; 127
    4084:	99 e0       	ldi	r25, 0x09	; 9
    4086:	60 2f       	mov	r22, r16
    4088:	40 e0       	ldi	r20, 0x00	; 0
    408a:	50 e0       	ldi	r21, 0x00	; 0
    408c:	0e 94 42 41 	call	0x8284	; 0x8284 <_ZN5Print5printEhi>
    4090:	81 e0       	ldi	r24, 0x01	; 1
    4092:	df 91       	pop	r29
    4094:	cf 91       	pop	r28
    4096:	1f 91       	pop	r17
    4098:	0f 91       	pop	r16
    409a:	ff 90       	pop	r15
    409c:	ef 90       	pop	r14
    409e:	df 90       	pop	r13
    40a0:	cf 90       	pop	r12
    40a2:	bf 90       	pop	r11
    40a4:	9f 90       	pop	r9
    40a6:	8f 90       	pop	r8
    40a8:	7f 90       	pop	r7
    40aa:	6f 90       	pop	r6
    40ac:	5f 90       	pop	r5
    40ae:	4f 90       	pop	r4
    40b0:	08 95       	ret

000040b2 <_ZN8xbeeSRst7getDataEPhi>:
    40b2:	4f 92       	push	r4
    40b4:	5f 92       	push	r5
    40b6:	6f 92       	push	r6
    40b8:	7f 92       	push	r7
    40ba:	8f 92       	push	r8
    40bc:	9f 92       	push	r9
    40be:	af 92       	push	r10
    40c0:	bf 92       	push	r11
    40c2:	cf 92       	push	r12
    40c4:	df 92       	push	r13
    40c6:	ef 92       	push	r14
    40c8:	ff 92       	push	r15
    40ca:	0f 93       	push	r16
    40cc:	1f 93       	push	r17
    40ce:	cf 93       	push	r28
    40d0:	df 93       	push	r29
    40d2:	7c 01       	movw	r14, r24
    40d4:	2b 01       	movw	r4, r22
    40d6:	8a 01       	movw	r16, r20
    40d8:	0e 94 e2 4b 	call	0x97c4	; 0x97c4 <millis>
    40dc:	5b 01       	movw	r10, r22
    40de:	6c 01       	movw	r12, r24
    40e0:	38 01       	movw	r6, r16
    40e2:	88 24       	eor	r8, r8
    40e4:	99 24       	eor	r9, r9
    40e6:	8f e7       	ldi	r24, 0x7F	; 127
    40e8:	99 e0       	ldi	r25, 0x09	; 9
    40ea:	0e 94 e3 3e 	call	0x7dc6	; 0x7dc6 <_ZN14HardwareSerial9availableEv>
    40ee:	18 16       	cp	r1, r24
    40f0:	19 06       	cpc	r1, r25
    40f2:	0c f0       	brlt	.+2      	; 0x40f6 <_ZN8xbeeSRst7getDataEPhi+0x44>
    40f4:	71 c1       	rjmp	.+738    	; 0x43d8 <_ZN8xbeeSRst7getDataEPhi+0x326>
    40f6:	8f e7       	ldi	r24, 0x7F	; 127
    40f8:	99 e0       	ldi	r25, 0x09	; 9
    40fa:	0e 94 0e 3f 	call	0x7e1c	; 0x7e1c <_ZN14HardwareSerial4readEv>
    40fe:	18 2f       	mov	r17, r24
    4100:	0e 94 e2 4b 	call	0x97c4	; 0x97c4 <millis>
    4104:	6a 19       	sub	r22, r10
    4106:	7b 09       	sbc	r23, r11
    4108:	8c 09       	sbc	r24, r12
    410a:	9d 09       	sbc	r25, r13
    410c:	66 16       	cp	r6, r22
    410e:	77 06       	cpc	r7, r23
    4110:	88 06       	cpc	r8, r24
    4112:	99 06       	cpc	r9, r25
    4114:	08 f4       	brcc	.+2      	; 0x4118 <_ZN8xbeeSRst7getDataEPhi+0x66>
    4116:	60 c1       	rjmp	.+704    	; 0x43d8 <_ZN8xbeeSRst7getDataEPhi+0x326>
    4118:	1e 37       	cpi	r17, 0x7E	; 126
    411a:	29 f7       	brne	.-54     	; 0x40e6 <_ZN8xbeeSRst7getDataEPhi+0x34>
    411c:	0e 94 e2 4b 	call	0x97c4	; 0x97c4 <millis>
    4120:	5b 01       	movw	r10, r22
    4122:	6c 01       	movw	r12, r24
    4124:	0c c0       	rjmp	.+24     	; 0x413e <_ZN8xbeeSRst7getDataEPhi+0x8c>
    4126:	0e 94 e2 4b 	call	0x97c4	; 0x97c4 <millis>
    412a:	6a 19       	sub	r22, r10
    412c:	7b 09       	sbc	r23, r11
    412e:	8c 09       	sbc	r24, r12
    4130:	9d 09       	sbc	r25, r13
    4132:	66 16       	cp	r6, r22
    4134:	77 06       	cpc	r7, r23
    4136:	88 06       	cpc	r8, r24
    4138:	99 06       	cpc	r9, r25
    413a:	08 f4       	brcc	.+2      	; 0x413e <_ZN8xbeeSRst7getDataEPhi+0x8c>
    413c:	4d c1       	rjmp	.+666    	; 0x43d8 <_ZN8xbeeSRst7getDataEPhi+0x326>
    413e:	8f e7       	ldi	r24, 0x7F	; 127
    4140:	99 e0       	ldi	r25, 0x09	; 9
    4142:	0e 94 e3 3e 	call	0x7dc6	; 0x7dc6 <_ZN14HardwareSerial9availableEv>
    4146:	02 97       	sbiw	r24, 0x02	; 2
    4148:	74 f3       	brlt	.-36     	; 0x4126 <_ZN8xbeeSRst7getDataEPhi+0x74>
    414a:	8f e7       	ldi	r24, 0x7F	; 127
    414c:	99 e0       	ldi	r25, 0x09	; 9
    414e:	0e 94 e3 3e 	call	0x7dc6	; 0x7dc6 <_ZN14HardwareSerial9availableEv>
    4152:	02 97       	sbiw	r24, 0x02	; 2
    4154:	84 f0       	brlt	.+32     	; 0x4176 <_ZN8xbeeSRst7getDataEPhi+0xc4>
    4156:	8f e7       	ldi	r24, 0x7F	; 127
    4158:	99 e0       	ldi	r25, 0x09	; 9
    415a:	0e 94 0e 3f 	call	0x7e1c	; 0x7e1c <_ZN14HardwareSerial4readEv>
    415e:	18 2f       	mov	r17, r24
    4160:	8f e7       	ldi	r24, 0x7F	; 127
    4162:	99 e0       	ldi	r25, 0x09	; 9
    4164:	0e 94 0e 3f 	call	0x7e1c	; 0x7e1c <_ZN14HardwareSerial4readEv>
    4168:	31 2f       	mov	r19, r17
    416a:	20 e0       	ldi	r18, 0x00	; 0
    416c:	28 0f       	add	r18, r24
    416e:	39 1f       	adc	r19, r25
    4170:	f7 01       	movw	r30, r14
    4172:	31 83       	std	Z+1, r19	; 0x01
    4174:	20 83       	st	Z, r18
    4176:	f7 01       	movw	r30, r14
    4178:	80 81       	ld	r24, Z
    417a:	91 81       	ldd	r25, Z+1	; 0x01
    417c:	18 16       	cp	r1, r24
    417e:	19 06       	cpc	r1, r25
    4180:	0c f0       	brlt	.+2      	; 0x4184 <_ZN8xbeeSRst7getDataEPhi+0xd2>
    4182:	28 c1       	rjmp	.+592    	; 0x43d4 <_ZN8xbeeSRst7getDataEPhi+0x322>
    4184:	8a e5       	ldi	r24, 0x5A	; 90
    4186:	f7 01       	movw	r30, r14
    4188:	82 83       	std	Z+2, r24	; 0x02
    418a:	0e 94 e2 4b 	call	0x97c4	; 0x97c4 <millis>
    418e:	5b 01       	movw	r10, r22
    4190:	6c 01       	movw	r12, r24
    4192:	0c c0       	rjmp	.+24     	; 0x41ac <_ZN8xbeeSRst7getDataEPhi+0xfa>
    4194:	0e 94 e2 4b 	call	0x97c4	; 0x97c4 <millis>
    4198:	6a 19       	sub	r22, r10
    419a:	7b 09       	sbc	r23, r11
    419c:	8c 09       	sbc	r24, r12
    419e:	9d 09       	sbc	r25, r13
    41a0:	66 16       	cp	r6, r22
    41a2:	77 06       	cpc	r7, r23
    41a4:	88 06       	cpc	r8, r24
    41a6:	99 06       	cpc	r9, r25
    41a8:	08 f4       	brcc	.+2      	; 0x41ac <_ZN8xbeeSRst7getDataEPhi+0xfa>
    41aa:	16 c1       	rjmp	.+556    	; 0x43d8 <_ZN8xbeeSRst7getDataEPhi+0x326>
    41ac:	8f e7       	ldi	r24, 0x7F	; 127
    41ae:	99 e0       	ldi	r25, 0x09	; 9
    41b0:	0e 94 e3 3e 	call	0x7dc6	; 0x7dc6 <_ZN14HardwareSerial9availableEv>
    41b4:	18 16       	cp	r1, r24
    41b6:	19 06       	cpc	r1, r25
    41b8:	6c f7       	brge	.-38     	; 0x4194 <_ZN8xbeeSRst7getDataEPhi+0xe2>
    41ba:	8f e7       	ldi	r24, 0x7F	; 127
    41bc:	99 e0       	ldi	r25, 0x09	; 9
    41be:	0e 94 e3 3e 	call	0x7dc6	; 0x7dc6 <_ZN14HardwareSerial9availableEv>
    41c2:	18 16       	cp	r1, r24
    41c4:	19 06       	cpc	r1, r25
    41c6:	0c f0       	brlt	.+2      	; 0x41ca <_ZN8xbeeSRst7getDataEPhi+0x118>
    41c8:	07 c1       	rjmp	.+526    	; 0x43d8 <_ZN8xbeeSRst7getDataEPhi+0x326>
    41ca:	8f e7       	ldi	r24, 0x7F	; 127
    41cc:	99 e0       	ldi	r25, 0x09	; 9
    41ce:	0e 94 0e 3f 	call	0x7e1c	; 0x7e1c <_ZN14HardwareSerial4readEv>
    41d2:	f7 01       	movw	r30, r14
    41d4:	82 83       	std	Z+2, r24	; 0x02
    41d6:	13 82       	std	Z+3, r1	; 0x03
    41d8:	14 82       	std	Z+4, r1	; 0x04
    41da:	15 82       	std	Z+5, r1	; 0x05
    41dc:	16 82       	std	Z+6, r1	; 0x06
    41de:	17 82       	std	Z+7, r1	; 0x07
    41e0:	10 86       	std	Z+8, r1	; 0x08
    41e2:	11 86       	std	Z+9, r1	; 0x09
    41e4:	12 86       	std	Z+10, r1	; 0x0a
    41e6:	0e 94 e2 4b 	call	0x97c4	; 0x97c4 <millis>
    41ea:	5b 01       	movw	r10, r22
    41ec:	6c 01       	movw	r12, r24
    41ee:	0c c0       	rjmp	.+24     	; 0x4208 <_ZN8xbeeSRst7getDataEPhi+0x156>
    41f0:	0e 94 e2 4b 	call	0x97c4	; 0x97c4 <millis>
    41f4:	6a 19       	sub	r22, r10
    41f6:	7b 09       	sbc	r23, r11
    41f8:	8c 09       	sbc	r24, r12
    41fa:	9d 09       	sbc	r25, r13
    41fc:	66 16       	cp	r6, r22
    41fe:	77 06       	cpc	r7, r23
    4200:	88 06       	cpc	r8, r24
    4202:	99 06       	cpc	r9, r25
    4204:	08 f4       	brcc	.+2      	; 0x4208 <_ZN8xbeeSRst7getDataEPhi+0x156>
    4206:	e8 c0       	rjmp	.+464    	; 0x43d8 <_ZN8xbeeSRst7getDataEPhi+0x326>
    4208:	8f e7       	ldi	r24, 0x7F	; 127
    420a:	99 e0       	ldi	r25, 0x09	; 9
    420c:	0e 94 e3 3e 	call	0x7dc6	; 0x7dc6 <_ZN14HardwareSerial9availableEv>
    4210:	08 97       	sbiw	r24, 0x08	; 8
    4212:	74 f3       	brlt	.-36     	; 0x41f0 <_ZN8xbeeSRst7getDataEPhi+0x13e>
    4214:	8f e7       	ldi	r24, 0x7F	; 127
    4216:	99 e0       	ldi	r25, 0x09	; 9
    4218:	0e 94 e3 3e 	call	0x7dc6	; 0x7dc6 <_ZN14HardwareSerial9availableEv>
    421c:	08 97       	sbiw	r24, 0x08	; 8
    421e:	0c f4       	brge	.+2      	; 0x4222 <_ZN8xbeeSRst7getDataEPhi+0x170>
    4220:	db c0       	rjmp	.+438    	; 0x43d8 <_ZN8xbeeSRst7getDataEPhi+0x326>
    4222:	00 e0       	ldi	r16, 0x00	; 0
    4224:	10 e0       	ldi	r17, 0x00	; 0
    4226:	c8 e1       	ldi	r28, 0x18	; 24
    4228:	d0 e0       	ldi	r29, 0x00	; 0
    422a:	8f e7       	ldi	r24, 0x7F	; 127
    422c:	99 e0       	ldi	r25, 0x09	; 9
    422e:	0e 94 0e 3f 	call	0x7e1c	; 0x7e1c <_ZN14HardwareSerial4readEv>
    4232:	28 2f       	mov	r18, r24
    4234:	30 e0       	ldi	r19, 0x00	; 0
    4236:	40 e0       	ldi	r20, 0x00	; 0
    4238:	50 e0       	ldi	r21, 0x00	; 0
    423a:	04 30       	cpi	r16, 0x04	; 4
    423c:	11 05       	cpc	r17, r1
    423e:	b4 f4       	brge	.+44     	; 0x426c <_ZN8xbeeSRst7getDataEPhi+0x1ba>
    4240:	0c 2e       	mov	r0, r28
    4242:	04 c0       	rjmp	.+8      	; 0x424c <_ZN8xbeeSRst7getDataEPhi+0x19a>
    4244:	22 0f       	add	r18, r18
    4246:	33 1f       	adc	r19, r19
    4248:	44 1f       	adc	r20, r20
    424a:	55 1f       	adc	r21, r21
    424c:	0a 94       	dec	r0
    424e:	d2 f7       	brpl	.-12     	; 0x4244 <_ZN8xbeeSRst7getDataEPhi+0x192>
    4250:	f7 01       	movw	r30, r14
    4252:	83 81       	ldd	r24, Z+3	; 0x03
    4254:	94 81       	ldd	r25, Z+4	; 0x04
    4256:	a5 81       	ldd	r26, Z+5	; 0x05
    4258:	b6 81       	ldd	r27, Z+6	; 0x06
    425a:	82 0f       	add	r24, r18
    425c:	93 1f       	adc	r25, r19
    425e:	a4 1f       	adc	r26, r20
    4260:	b5 1f       	adc	r27, r21
    4262:	83 83       	std	Z+3, r24	; 0x03
    4264:	94 83       	std	Z+4, r25	; 0x04
    4266:	a5 83       	std	Z+5, r26	; 0x05
    4268:	b6 83       	std	Z+6, r27	; 0x06
    426a:	17 c0       	rjmp	.+46     	; 0x429a <_ZN8xbeeSRst7getDataEPhi+0x1e8>
    426c:	a0 96       	adiw	r28, 0x20	; 32
    426e:	0c 2e       	mov	r0, r28
    4270:	04 c0       	rjmp	.+8      	; 0x427a <_ZN8xbeeSRst7getDataEPhi+0x1c8>
    4272:	22 0f       	add	r18, r18
    4274:	33 1f       	adc	r19, r19
    4276:	44 1f       	adc	r20, r20
    4278:	55 1f       	adc	r21, r21
    427a:	0a 94       	dec	r0
    427c:	d2 f7       	brpl	.-12     	; 0x4272 <_ZN8xbeeSRst7getDataEPhi+0x1c0>
    427e:	a0 97       	sbiw	r28, 0x20	; 32
    4280:	f7 01       	movw	r30, r14
    4282:	87 81       	ldd	r24, Z+7	; 0x07
    4284:	90 85       	ldd	r25, Z+8	; 0x08
    4286:	a1 85       	ldd	r26, Z+9	; 0x09
    4288:	b2 85       	ldd	r27, Z+10	; 0x0a
    428a:	82 0f       	add	r24, r18
    428c:	93 1f       	adc	r25, r19
    428e:	a4 1f       	adc	r26, r20
    4290:	b5 1f       	adc	r27, r21
    4292:	87 83       	std	Z+7, r24	; 0x07
    4294:	90 87       	std	Z+8, r25	; 0x08
    4296:	a1 87       	std	Z+9, r26	; 0x09
    4298:	b2 87       	std	Z+10, r27	; 0x0a
    429a:	0f 5f       	subi	r16, 0xFF	; 255
    429c:	1f 4f       	sbci	r17, 0xFF	; 255
    429e:	28 97       	sbiw	r28, 0x08	; 8
    42a0:	08 30       	cpi	r16, 0x08	; 8
    42a2:	11 05       	cpc	r17, r1
    42a4:	11 f6       	brne	.-124    	; 0x422a <_ZN8xbeeSRst7getDataEPhi+0x178>
    42a6:	0e 94 e2 4b 	call	0x97c4	; 0x97c4 <millis>
    42aa:	5b 01       	movw	r10, r22
    42ac:	6c 01       	movw	r12, r24
    42ae:	0c c0       	rjmp	.+24     	; 0x42c8 <_ZN8xbeeSRst7getDataEPhi+0x216>
    42b0:	0e 94 e2 4b 	call	0x97c4	; 0x97c4 <millis>
    42b4:	6a 19       	sub	r22, r10
    42b6:	7b 09       	sbc	r23, r11
    42b8:	8c 09       	sbc	r24, r12
    42ba:	9d 09       	sbc	r25, r13
    42bc:	66 16       	cp	r6, r22
    42be:	77 06       	cpc	r7, r23
    42c0:	88 06       	cpc	r8, r24
    42c2:	99 06       	cpc	r9, r25
    42c4:	08 f4       	brcc	.+2      	; 0x42c8 <_ZN8xbeeSRst7getDataEPhi+0x216>
    42c6:	88 c0       	rjmp	.+272    	; 0x43d8 <_ZN8xbeeSRst7getDataEPhi+0x326>
    42c8:	8f e7       	ldi	r24, 0x7F	; 127
    42ca:	99 e0       	ldi	r25, 0x09	; 9
    42cc:	0e 94 e3 3e 	call	0x7dc6	; 0x7dc6 <_ZN14HardwareSerial9availableEv>
    42d0:	02 97       	sbiw	r24, 0x02	; 2
    42d2:	74 f3       	brlt	.-36     	; 0x42b0 <_ZN8xbeeSRst7getDataEPhi+0x1fe>
    42d4:	8f e7       	ldi	r24, 0x7F	; 127
    42d6:	99 e0       	ldi	r25, 0x09	; 9
    42d8:	0e 94 0e 3f 	call	0x7e1c	; 0x7e1c <_ZN14HardwareSerial4readEv>
    42dc:	18 2f       	mov	r17, r24
    42de:	8f e7       	ldi	r24, 0x7F	; 127
    42e0:	99 e0       	ldi	r25, 0x09	; 9
    42e2:	0e 94 0e 3f 	call	0x7e1c	; 0x7e1c <_ZN14HardwareSerial4readEv>
    42e6:	31 2f       	mov	r19, r17
    42e8:	20 e0       	ldi	r18, 0x00	; 0
    42ea:	28 0f       	add	r18, r24
    42ec:	39 1f       	adc	r19, r25
    42ee:	f7 01       	movw	r30, r14
    42f0:	34 87       	std	Z+12, r19	; 0x0c
    42f2:	23 87       	std	Z+11, r18	; 0x0b
    42f4:	0e 94 e2 4b 	call	0x97c4	; 0x97c4 <millis>
    42f8:	5b 01       	movw	r10, r22
    42fa:	6c 01       	movw	r12, r24
    42fc:	0c c0       	rjmp	.+24     	; 0x4316 <_ZN8xbeeSRst7getDataEPhi+0x264>
    42fe:	0e 94 e2 4b 	call	0x97c4	; 0x97c4 <millis>
    4302:	6a 19       	sub	r22, r10
    4304:	7b 09       	sbc	r23, r11
    4306:	8c 09       	sbc	r24, r12
    4308:	9d 09       	sbc	r25, r13
    430a:	66 16       	cp	r6, r22
    430c:	77 06       	cpc	r7, r23
    430e:	88 06       	cpc	r8, r24
    4310:	99 06       	cpc	r9, r25
    4312:	08 f4       	brcc	.+2      	; 0x4316 <_ZN8xbeeSRst7getDataEPhi+0x264>
    4314:	61 c0       	rjmp	.+194    	; 0x43d8 <_ZN8xbeeSRst7getDataEPhi+0x326>
    4316:	8f e7       	ldi	r24, 0x7F	; 127
    4318:	99 e0       	ldi	r25, 0x09	; 9
    431a:	0e 94 e3 3e 	call	0x7dc6	; 0x7dc6 <_ZN14HardwareSerial9availableEv>
    431e:	18 16       	cp	r1, r24
    4320:	19 06       	cpc	r1, r25
    4322:	6c f7       	brge	.-38     	; 0x42fe <_ZN8xbeeSRst7getDataEPhi+0x24c>
    4324:	8f e7       	ldi	r24, 0x7F	; 127
    4326:	99 e0       	ldi	r25, 0x09	; 9
    4328:	0e 94 0e 3f 	call	0x7e1c	; 0x7e1c <_ZN14HardwareSerial4readEv>
    432c:	f7 01       	movw	r30, r14
    432e:	85 87       	std	Z+13, r24	; 0x0d
    4330:	0e 94 e2 4b 	call	0x97c4	; 0x97c4 <millis>
    4334:	5b 01       	movw	r10, r22
    4336:	6c 01       	movw	r12, r24
    4338:	f7 01       	movw	r30, r14
    433a:	80 81       	ld	r24, Z
    433c:	91 81       	ldd	r25, Z+1	; 0x01
    433e:	0c 97       	sbiw	r24, 0x0c	; 12
    4340:	92 8b       	std	Z+18, r25	; 0x12
    4342:	81 8b       	std	Z+17, r24	; 0x11
    4344:	0b c0       	rjmp	.+22     	; 0x435c <_ZN8xbeeSRst7getDataEPhi+0x2aa>
    4346:	0e 94 e2 4b 	call	0x97c4	; 0x97c4 <millis>
    434a:	6a 19       	sub	r22, r10
    434c:	7b 09       	sbc	r23, r11
    434e:	8c 09       	sbc	r24, r12
    4350:	9d 09       	sbc	r25, r13
    4352:	66 16       	cp	r6, r22
    4354:	77 06       	cpc	r7, r23
    4356:	88 06       	cpc	r8, r24
    4358:	99 06       	cpc	r9, r25
    435a:	f0 f1       	brcs	.+124    	; 0x43d8 <_ZN8xbeeSRst7getDataEPhi+0x326>
    435c:	8f e7       	ldi	r24, 0x7F	; 127
    435e:	99 e0       	ldi	r25, 0x09	; 9
    4360:	0e 94 e3 3e 	call	0x7dc6	; 0x7dc6 <_ZN14HardwareSerial9availableEv>
    4364:	f7 01       	movw	r30, r14
    4366:	20 81       	ld	r18, Z
    4368:	31 81       	ldd	r19, Z+1	; 0x01
    436a:	2c 50       	subi	r18, 0x0C	; 12
    436c:	30 40       	sbci	r19, 0x00	; 0
    436e:	82 17       	cp	r24, r18
    4370:	93 07       	cpc	r25, r19
    4372:	4c f3       	brlt	.-46     	; 0x4346 <_ZN8xbeeSRst7getDataEPhi+0x294>
    4374:	c0 e0       	ldi	r28, 0x00	; 0
    4376:	d0 e0       	ldi	r29, 0x00	; 0
    4378:	09 c0       	rjmp	.+18     	; 0x438c <_ZN8xbeeSRst7getDataEPhi+0x2da>
    437a:	8f e7       	ldi	r24, 0x7F	; 127
    437c:	99 e0       	ldi	r25, 0x09	; 9
    437e:	0e 94 0e 3f 	call	0x7e1c	; 0x7e1c <_ZN14HardwareSerial4readEv>
    4382:	f2 01       	movw	r30, r4
    4384:	ec 0f       	add	r30, r28
    4386:	fd 1f       	adc	r31, r29
    4388:	80 83       	st	Z, r24
    438a:	21 96       	adiw	r28, 0x01	; 1
    438c:	f7 01       	movw	r30, r14
    438e:	80 81       	ld	r24, Z
    4390:	91 81       	ldd	r25, Z+1	; 0x01
    4392:	0c 97       	sbiw	r24, 0x0c	; 12
    4394:	c8 17       	cp	r28, r24
    4396:	d9 07       	cpc	r29, r25
    4398:	84 f3       	brlt	.-32     	; 0x437a <_ZN8xbeeSRst7getDataEPhi+0x2c8>
    439a:	0e 94 e2 4b 	call	0x97c4	; 0x97c4 <millis>
    439e:	5b 01       	movw	r10, r22
    43a0:	6c 01       	movw	r12, r24
    43a2:	0b c0       	rjmp	.+22     	; 0x43ba <_ZN8xbeeSRst7getDataEPhi+0x308>
    43a4:	0e 94 e2 4b 	call	0x97c4	; 0x97c4 <millis>
    43a8:	6a 19       	sub	r22, r10
    43aa:	7b 09       	sbc	r23, r11
    43ac:	8c 09       	sbc	r24, r12
    43ae:	9d 09       	sbc	r25, r13
    43b0:	66 16       	cp	r6, r22
    43b2:	77 06       	cpc	r7, r23
    43b4:	88 06       	cpc	r8, r24
    43b6:	99 06       	cpc	r9, r25
    43b8:	78 f0       	brcs	.+30     	; 0x43d8 <_ZN8xbeeSRst7getDataEPhi+0x326>
    43ba:	8f e7       	ldi	r24, 0x7F	; 127
    43bc:	99 e0       	ldi	r25, 0x09	; 9
    43be:	0e 94 e3 3e 	call	0x7dc6	; 0x7dc6 <_ZN14HardwareSerial9availableEv>
    43c2:	18 16       	cp	r1, r24
    43c4:	19 06       	cpc	r1, r25
    43c6:	74 f7       	brge	.-36     	; 0x43a4 <_ZN8xbeeSRst7getDataEPhi+0x2f2>
    43c8:	8f e7       	ldi	r24, 0x7F	; 127
    43ca:	99 e0       	ldi	r25, 0x09	; 9
    43cc:	0e 94 0e 3f 	call	0x7e1c	; 0x7e1c <_ZN14HardwareSerial4readEv>
    43d0:	f7 01       	movw	r30, r14
    43d2:	80 8b       	std	Z+16, r24	; 0x10
    43d4:	81 e0       	ldi	r24, 0x01	; 1
    43d6:	01 c0       	rjmp	.+2      	; 0x43da <_ZN8xbeeSRst7getDataEPhi+0x328>
    43d8:	80 e0       	ldi	r24, 0x00	; 0
    43da:	df 91       	pop	r29
    43dc:	cf 91       	pop	r28
    43de:	1f 91       	pop	r17
    43e0:	0f 91       	pop	r16
    43e2:	ff 90       	pop	r15
    43e4:	ef 90       	pop	r14
    43e6:	df 90       	pop	r13
    43e8:	cf 90       	pop	r12
    43ea:	bf 90       	pop	r11
    43ec:	af 90       	pop	r10
    43ee:	9f 90       	pop	r9
    43f0:	8f 90       	pop	r8
    43f2:	7f 90       	pop	r7
    43f4:	6f 90       	pop	r6
    43f6:	5f 90       	pop	r5
    43f8:	4f 90       	pop	r4
    43fa:	08 95       	ret

000043fc <_ZN8xbeeSRst11getDataAutoEi>:
    43fc:	4f 92       	push	r4
    43fe:	5f 92       	push	r5
    4400:	6f 92       	push	r6
    4402:	7f 92       	push	r7
    4404:	8f 92       	push	r8
    4406:	9f 92       	push	r9
    4408:	af 92       	push	r10
    440a:	bf 92       	push	r11
    440c:	cf 92       	push	r12
    440e:	df 92       	push	r13
    4410:	ef 92       	push	r14
    4412:	ff 92       	push	r15
    4414:	0f 93       	push	r16
    4416:	1f 93       	push	r17
    4418:	cf 93       	push	r28
    441a:	df 93       	push	r29
    441c:	6c 01       	movw	r12, r24
    441e:	8b 01       	movw	r16, r22
    4420:	0e 94 e2 4b 	call	0x97c4	; 0x97c4 <millis>
    4424:	2b 01       	movw	r4, r22
    4426:	3c 01       	movw	r6, r24
    4428:	48 01       	movw	r8, r16
    442a:	aa 24       	eor	r10, r10
    442c:	bb 24       	eor	r11, r11
    442e:	8f e7       	ldi	r24, 0x7F	; 127
    4430:	99 e0       	ldi	r25, 0x09	; 9
    4432:	0e 94 e3 3e 	call	0x7dc6	; 0x7dc6 <_ZN14HardwareSerial9availableEv>
    4436:	18 16       	cp	r1, r24
    4438:	19 06       	cpc	r1, r25
    443a:	0c f0       	brlt	.+2      	; 0x443e <_ZN8xbeeSRst11getDataAutoEi+0x42>
    443c:	8e c1       	rjmp	.+796    	; 0x475a <_ZN8xbeeSRst11getDataAutoEi+0x35e>
    443e:	8f e7       	ldi	r24, 0x7F	; 127
    4440:	99 e0       	ldi	r25, 0x09	; 9
    4442:	0e 94 0e 3f 	call	0x7e1c	; 0x7e1c <_ZN14HardwareSerial4readEv>
    4446:	18 2f       	mov	r17, r24
    4448:	0e 94 e2 4b 	call	0x97c4	; 0x97c4 <millis>
    444c:	64 19       	sub	r22, r4
    444e:	75 09       	sbc	r23, r5
    4450:	86 09       	sbc	r24, r6
    4452:	97 09       	sbc	r25, r7
    4454:	86 16       	cp	r8, r22
    4456:	97 06       	cpc	r9, r23
    4458:	a8 06       	cpc	r10, r24
    445a:	b9 06       	cpc	r11, r25
    445c:	08 f4       	brcc	.+2      	; 0x4460 <_ZN8xbeeSRst11getDataAutoEi+0x64>
    445e:	7d c1       	rjmp	.+762    	; 0x475a <_ZN8xbeeSRst11getDataAutoEi+0x35e>
    4460:	1e 37       	cpi	r17, 0x7E	; 126
    4462:	29 f7       	brne	.-54     	; 0x442e <_ZN8xbeeSRst11getDataAutoEi+0x32>
    4464:	0e 94 e2 4b 	call	0x97c4	; 0x97c4 <millis>
    4468:	7b 01       	movw	r14, r22
    446a:	8c 01       	movw	r16, r24
    446c:	0c c0       	rjmp	.+24     	; 0x4486 <_ZN8xbeeSRst11getDataAutoEi+0x8a>
    446e:	0e 94 e2 4b 	call	0x97c4	; 0x97c4 <millis>
    4472:	6e 19       	sub	r22, r14
    4474:	7f 09       	sbc	r23, r15
    4476:	80 0b       	sbc	r24, r16
    4478:	91 0b       	sbc	r25, r17
    447a:	86 16       	cp	r8, r22
    447c:	97 06       	cpc	r9, r23
    447e:	a8 06       	cpc	r10, r24
    4480:	b9 06       	cpc	r11, r25
    4482:	08 f4       	brcc	.+2      	; 0x4486 <_ZN8xbeeSRst11getDataAutoEi+0x8a>
    4484:	6a c1       	rjmp	.+724    	; 0x475a <_ZN8xbeeSRst11getDataAutoEi+0x35e>
    4486:	8f e7       	ldi	r24, 0x7F	; 127
    4488:	99 e0       	ldi	r25, 0x09	; 9
    448a:	0e 94 e3 3e 	call	0x7dc6	; 0x7dc6 <_ZN14HardwareSerial9availableEv>
    448e:	02 97       	sbiw	r24, 0x02	; 2
    4490:	74 f3       	brlt	.-36     	; 0x446e <_ZN8xbeeSRst11getDataAutoEi+0x72>
    4492:	8f e7       	ldi	r24, 0x7F	; 127
    4494:	99 e0       	ldi	r25, 0x09	; 9
    4496:	0e 94 e3 3e 	call	0x7dc6	; 0x7dc6 <_ZN14HardwareSerial9availableEv>
    449a:	02 97       	sbiw	r24, 0x02	; 2
    449c:	84 f0       	brlt	.+32     	; 0x44be <_ZN8xbeeSRst11getDataAutoEi+0xc2>
    449e:	8f e7       	ldi	r24, 0x7F	; 127
    44a0:	99 e0       	ldi	r25, 0x09	; 9
    44a2:	0e 94 0e 3f 	call	0x7e1c	; 0x7e1c <_ZN14HardwareSerial4readEv>
    44a6:	18 2f       	mov	r17, r24
    44a8:	8f e7       	ldi	r24, 0x7F	; 127
    44aa:	99 e0       	ldi	r25, 0x09	; 9
    44ac:	0e 94 0e 3f 	call	0x7e1c	; 0x7e1c <_ZN14HardwareSerial4readEv>
    44b0:	31 2f       	mov	r19, r17
    44b2:	20 e0       	ldi	r18, 0x00	; 0
    44b4:	28 0f       	add	r18, r24
    44b6:	39 1f       	adc	r19, r25
    44b8:	f6 01       	movw	r30, r12
    44ba:	31 83       	std	Z+1, r19	; 0x01
    44bc:	20 83       	st	Z, r18
    44be:	f6 01       	movw	r30, r12
    44c0:	80 81       	ld	r24, Z
    44c2:	91 81       	ldd	r25, Z+1	; 0x01
    44c4:	18 16       	cp	r1, r24
    44c6:	19 06       	cpc	r1, r25
    44c8:	0c f0       	brlt	.+2      	; 0x44cc <_ZN8xbeeSRst11getDataAutoEi+0xd0>
    44ca:	45 c1       	rjmp	.+650    	; 0x4756 <_ZN8xbeeSRst11getDataAutoEi+0x35a>
    44cc:	8a e5       	ldi	r24, 0x5A	; 90
    44ce:	f6 01       	movw	r30, r12
    44d0:	82 83       	std	Z+2, r24	; 0x02
    44d2:	0e 94 e2 4b 	call	0x97c4	; 0x97c4 <millis>
    44d6:	7b 01       	movw	r14, r22
    44d8:	8c 01       	movw	r16, r24
    44da:	0c c0       	rjmp	.+24     	; 0x44f4 <_ZN8xbeeSRst11getDataAutoEi+0xf8>
    44dc:	0e 94 e2 4b 	call	0x97c4	; 0x97c4 <millis>
    44e0:	6e 19       	sub	r22, r14
    44e2:	7f 09       	sbc	r23, r15
    44e4:	80 0b       	sbc	r24, r16
    44e6:	91 0b       	sbc	r25, r17
    44e8:	86 16       	cp	r8, r22
    44ea:	97 06       	cpc	r9, r23
    44ec:	a8 06       	cpc	r10, r24
    44ee:	b9 06       	cpc	r11, r25
    44f0:	08 f4       	brcc	.+2      	; 0x44f4 <_ZN8xbeeSRst11getDataAutoEi+0xf8>
    44f2:	33 c1       	rjmp	.+614    	; 0x475a <_ZN8xbeeSRst11getDataAutoEi+0x35e>
    44f4:	8f e7       	ldi	r24, 0x7F	; 127
    44f6:	99 e0       	ldi	r25, 0x09	; 9
    44f8:	0e 94 e3 3e 	call	0x7dc6	; 0x7dc6 <_ZN14HardwareSerial9availableEv>
    44fc:	18 16       	cp	r1, r24
    44fe:	19 06       	cpc	r1, r25
    4500:	6c f7       	brge	.-38     	; 0x44dc <_ZN8xbeeSRst11getDataAutoEi+0xe0>
    4502:	8f e7       	ldi	r24, 0x7F	; 127
    4504:	99 e0       	ldi	r25, 0x09	; 9
    4506:	0e 94 e3 3e 	call	0x7dc6	; 0x7dc6 <_ZN14HardwareSerial9availableEv>
    450a:	18 16       	cp	r1, r24
    450c:	19 06       	cpc	r1, r25
    450e:	0c f0       	brlt	.+2      	; 0x4512 <_ZN8xbeeSRst11getDataAutoEi+0x116>
    4510:	24 c1       	rjmp	.+584    	; 0x475a <_ZN8xbeeSRst11getDataAutoEi+0x35e>
    4512:	8f e7       	ldi	r24, 0x7F	; 127
    4514:	99 e0       	ldi	r25, 0x09	; 9
    4516:	0e 94 0e 3f 	call	0x7e1c	; 0x7e1c <_ZN14HardwareSerial4readEv>
    451a:	f6 01       	movw	r30, r12
    451c:	82 83       	std	Z+2, r24	; 0x02
    451e:	13 82       	std	Z+3, r1	; 0x03
    4520:	14 82       	std	Z+4, r1	; 0x04
    4522:	15 82       	std	Z+5, r1	; 0x05
    4524:	16 82       	std	Z+6, r1	; 0x06
    4526:	17 82       	std	Z+7, r1	; 0x07
    4528:	10 86       	std	Z+8, r1	; 0x08
    452a:	11 86       	std	Z+9, r1	; 0x09
    452c:	12 86       	std	Z+10, r1	; 0x0a
    452e:	0e 94 e2 4b 	call	0x97c4	; 0x97c4 <millis>
    4532:	7b 01       	movw	r14, r22
    4534:	8c 01       	movw	r16, r24
    4536:	0c c0       	rjmp	.+24     	; 0x4550 <_ZN8xbeeSRst11getDataAutoEi+0x154>
    4538:	0e 94 e2 4b 	call	0x97c4	; 0x97c4 <millis>
    453c:	6e 19       	sub	r22, r14
    453e:	7f 09       	sbc	r23, r15
    4540:	80 0b       	sbc	r24, r16
    4542:	91 0b       	sbc	r25, r17
    4544:	86 16       	cp	r8, r22
    4546:	97 06       	cpc	r9, r23
    4548:	a8 06       	cpc	r10, r24
    454a:	b9 06       	cpc	r11, r25
    454c:	08 f4       	brcc	.+2      	; 0x4550 <_ZN8xbeeSRst11getDataAutoEi+0x154>
    454e:	05 c1       	rjmp	.+522    	; 0x475a <_ZN8xbeeSRst11getDataAutoEi+0x35e>
    4550:	8f e7       	ldi	r24, 0x7F	; 127
    4552:	99 e0       	ldi	r25, 0x09	; 9
    4554:	0e 94 e3 3e 	call	0x7dc6	; 0x7dc6 <_ZN14HardwareSerial9availableEv>
    4558:	08 97       	sbiw	r24, 0x08	; 8
    455a:	74 f3       	brlt	.-36     	; 0x4538 <_ZN8xbeeSRst11getDataAutoEi+0x13c>
    455c:	8f e7       	ldi	r24, 0x7F	; 127
    455e:	99 e0       	ldi	r25, 0x09	; 9
    4560:	0e 94 e3 3e 	call	0x7dc6	; 0x7dc6 <_ZN14HardwareSerial9availableEv>
    4564:	08 97       	sbiw	r24, 0x08	; 8
    4566:	0c f4       	brge	.+2      	; 0x456a <_ZN8xbeeSRst11getDataAutoEi+0x16e>
    4568:	f8 c0       	rjmp	.+496    	; 0x475a <_ZN8xbeeSRst11getDataAutoEi+0x35e>
    456a:	c0 e0       	ldi	r28, 0x00	; 0
    456c:	d0 e0       	ldi	r29, 0x00	; 0
    456e:	08 e1       	ldi	r16, 0x18	; 24
    4570:	10 e0       	ldi	r17, 0x00	; 0
    4572:	8f e7       	ldi	r24, 0x7F	; 127
    4574:	99 e0       	ldi	r25, 0x09	; 9
    4576:	0e 94 0e 3f 	call	0x7e1c	; 0x7e1c <_ZN14HardwareSerial4readEv>
    457a:	28 2f       	mov	r18, r24
    457c:	30 e0       	ldi	r19, 0x00	; 0
    457e:	40 e0       	ldi	r20, 0x00	; 0
    4580:	50 e0       	ldi	r21, 0x00	; 0
    4582:	c4 30       	cpi	r28, 0x04	; 4
    4584:	d1 05       	cpc	r29, r1
    4586:	b4 f4       	brge	.+44     	; 0x45b4 <_ZN8xbeeSRst11getDataAutoEi+0x1b8>
    4588:	00 2e       	mov	r0, r16
    458a:	04 c0       	rjmp	.+8      	; 0x4594 <_ZN8xbeeSRst11getDataAutoEi+0x198>
    458c:	22 0f       	add	r18, r18
    458e:	33 1f       	adc	r19, r19
    4590:	44 1f       	adc	r20, r20
    4592:	55 1f       	adc	r21, r21
    4594:	0a 94       	dec	r0
    4596:	d2 f7       	brpl	.-12     	; 0x458c <_ZN8xbeeSRst11getDataAutoEi+0x190>
    4598:	f6 01       	movw	r30, r12
    459a:	83 81       	ldd	r24, Z+3	; 0x03
    459c:	94 81       	ldd	r25, Z+4	; 0x04
    459e:	a5 81       	ldd	r26, Z+5	; 0x05
    45a0:	b6 81       	ldd	r27, Z+6	; 0x06
    45a2:	82 0f       	add	r24, r18
    45a4:	93 1f       	adc	r25, r19
    45a6:	a4 1f       	adc	r26, r20
    45a8:	b5 1f       	adc	r27, r21
    45aa:	83 83       	std	Z+3, r24	; 0x03
    45ac:	94 83       	std	Z+4, r25	; 0x04
    45ae:	a5 83       	std	Z+5, r26	; 0x05
    45b0:	b6 83       	std	Z+6, r27	; 0x06
    45b2:	19 c0       	rjmp	.+50     	; 0x45e6 <_ZN8xbeeSRst11getDataAutoEi+0x1ea>
    45b4:	00 5e       	subi	r16, 0xE0	; 224
    45b6:	1f 4f       	sbci	r17, 0xFF	; 255
    45b8:	00 2e       	mov	r0, r16
    45ba:	04 c0       	rjmp	.+8      	; 0x45c4 <_ZN8xbeeSRst11getDataAutoEi+0x1c8>
    45bc:	22 0f       	add	r18, r18
    45be:	33 1f       	adc	r19, r19
    45c0:	44 1f       	adc	r20, r20
    45c2:	55 1f       	adc	r21, r21
    45c4:	0a 94       	dec	r0
    45c6:	d2 f7       	brpl	.-12     	; 0x45bc <_ZN8xbeeSRst11getDataAutoEi+0x1c0>
    45c8:	00 52       	subi	r16, 0x20	; 32
    45ca:	10 40       	sbci	r17, 0x00	; 0
    45cc:	f6 01       	movw	r30, r12
    45ce:	87 81       	ldd	r24, Z+7	; 0x07
    45d0:	90 85       	ldd	r25, Z+8	; 0x08
    45d2:	a1 85       	ldd	r26, Z+9	; 0x09
    45d4:	b2 85       	ldd	r27, Z+10	; 0x0a
    45d6:	82 0f       	add	r24, r18
    45d8:	93 1f       	adc	r25, r19
    45da:	a4 1f       	adc	r26, r20
    45dc:	b5 1f       	adc	r27, r21
    45de:	87 83       	std	Z+7, r24	; 0x07
    45e0:	90 87       	std	Z+8, r25	; 0x08
    45e2:	a1 87       	std	Z+9, r26	; 0x09
    45e4:	b2 87       	std	Z+10, r27	; 0x0a
    45e6:	21 96       	adiw	r28, 0x01	; 1
    45e8:	08 50       	subi	r16, 0x08	; 8
    45ea:	10 40       	sbci	r17, 0x00	; 0
    45ec:	c8 30       	cpi	r28, 0x08	; 8
    45ee:	d1 05       	cpc	r29, r1
    45f0:	09 f0       	breq	.+2      	; 0x45f4 <_ZN8xbeeSRst11getDataAutoEi+0x1f8>
    45f2:	bf cf       	rjmp	.-130    	; 0x4572 <_ZN8xbeeSRst11getDataAutoEi+0x176>
    45f4:	0e 94 e2 4b 	call	0x97c4	; 0x97c4 <millis>
    45f8:	7b 01       	movw	r14, r22
    45fa:	8c 01       	movw	r16, r24
    45fc:	8f e7       	ldi	r24, 0x7F	; 127
    45fe:	99 e0       	ldi	r25, 0x09	; 9
    4600:	0e 94 e3 3e 	call	0x7dc6	; 0x7dc6 <_ZN14HardwareSerial9availableEv>
    4604:	02 97       	sbiw	r24, 0x02	; 2
    4606:	d4 f3       	brlt	.-12     	; 0x45fc <_ZN8xbeeSRst11getDataAutoEi+0x200>
    4608:	0e 94 e2 4b 	call	0x97c4	; 0x97c4 <millis>
    460c:	6e 19       	sub	r22, r14
    460e:	7f 09       	sbc	r23, r15
    4610:	80 0b       	sbc	r24, r16
    4612:	91 0b       	sbc	r25, r17
    4614:	86 16       	cp	r8, r22
    4616:	97 06       	cpc	r9, r23
    4618:	a8 06       	cpc	r10, r24
    461a:	b9 06       	cpc	r11, r25
    461c:	08 f4       	brcc	.+2      	; 0x4620 <_ZN8xbeeSRst11getDataAutoEi+0x224>
    461e:	9d c0       	rjmp	.+314    	; 0x475a <_ZN8xbeeSRst11getDataAutoEi+0x35e>
    4620:	8f e7       	ldi	r24, 0x7F	; 127
    4622:	99 e0       	ldi	r25, 0x09	; 9
    4624:	0e 94 0e 3f 	call	0x7e1c	; 0x7e1c <_ZN14HardwareSerial4readEv>
    4628:	18 2f       	mov	r17, r24
    462a:	8f e7       	ldi	r24, 0x7F	; 127
    462c:	99 e0       	ldi	r25, 0x09	; 9
    462e:	0e 94 0e 3f 	call	0x7e1c	; 0x7e1c <_ZN14HardwareSerial4readEv>
    4632:	31 2f       	mov	r19, r17
    4634:	20 e0       	ldi	r18, 0x00	; 0
    4636:	28 0f       	add	r18, r24
    4638:	39 1f       	adc	r19, r25
    463a:	f6 01       	movw	r30, r12
    463c:	34 87       	std	Z+12, r19	; 0x0c
    463e:	23 87       	std	Z+11, r18	; 0x0b
    4640:	0e 94 e2 4b 	call	0x97c4	; 0x97c4 <millis>
    4644:	7b 01       	movw	r14, r22
    4646:	8c 01       	movw	r16, r24
    4648:	0c c0       	rjmp	.+24     	; 0x4662 <_ZN8xbeeSRst11getDataAutoEi+0x266>
    464a:	0e 94 e2 4b 	call	0x97c4	; 0x97c4 <millis>
    464e:	6e 19       	sub	r22, r14
    4650:	7f 09       	sbc	r23, r15
    4652:	80 0b       	sbc	r24, r16
    4654:	91 0b       	sbc	r25, r17
    4656:	86 16       	cp	r8, r22
    4658:	97 06       	cpc	r9, r23
    465a:	a8 06       	cpc	r10, r24
    465c:	b9 06       	cpc	r11, r25
    465e:	08 f4       	brcc	.+2      	; 0x4662 <_ZN8xbeeSRst11getDataAutoEi+0x266>
    4660:	7c c0       	rjmp	.+248    	; 0x475a <_ZN8xbeeSRst11getDataAutoEi+0x35e>
    4662:	8f e7       	ldi	r24, 0x7F	; 127
    4664:	99 e0       	ldi	r25, 0x09	; 9
    4666:	0e 94 e3 3e 	call	0x7dc6	; 0x7dc6 <_ZN14HardwareSerial9availableEv>
    466a:	18 16       	cp	r1, r24
    466c:	19 06       	cpc	r1, r25
    466e:	6c f7       	brge	.-38     	; 0x464a <_ZN8xbeeSRst11getDataAutoEi+0x24e>
    4670:	8f e7       	ldi	r24, 0x7F	; 127
    4672:	99 e0       	ldi	r25, 0x09	; 9
    4674:	0e 94 0e 3f 	call	0x7e1c	; 0x7e1c <_ZN14HardwareSerial4readEv>
    4678:	f6 01       	movw	r30, r12
    467a:	85 87       	std	Z+13, r24	; 0x0d
    467c:	0e 94 e2 4b 	call	0x97c4	; 0x97c4 <millis>
    4680:	7b 01       	movw	r14, r22
    4682:	8c 01       	movw	r16, r24
    4684:	f6 01       	movw	r30, r12
    4686:	80 81       	ld	r24, Z
    4688:	91 81       	ldd	r25, Z+1	; 0x01
    468a:	0c 97       	sbiw	r24, 0x0c	; 12
    468c:	92 8b       	std	Z+18, r25	; 0x12
    468e:	81 8b       	std	Z+17, r24	; 0x11
    4690:	0c c0       	rjmp	.+24     	; 0x46aa <_ZN8xbeeSRst11getDataAutoEi+0x2ae>
    4692:	0e 94 e2 4b 	call	0x97c4	; 0x97c4 <millis>
    4696:	6e 19       	sub	r22, r14
    4698:	7f 09       	sbc	r23, r15
    469a:	80 0b       	sbc	r24, r16
    469c:	91 0b       	sbc	r25, r17
    469e:	86 16       	cp	r8, r22
    46a0:	97 06       	cpc	r9, r23
    46a2:	a8 06       	cpc	r10, r24
    46a4:	b9 06       	cpc	r11, r25
    46a6:	08 f4       	brcc	.+2      	; 0x46aa <_ZN8xbeeSRst11getDataAutoEi+0x2ae>
    46a8:	58 c0       	rjmp	.+176    	; 0x475a <_ZN8xbeeSRst11getDataAutoEi+0x35e>
    46aa:	8f e7       	ldi	r24, 0x7F	; 127
    46ac:	99 e0       	ldi	r25, 0x09	; 9
    46ae:	0e 94 e3 3e 	call	0x7dc6	; 0x7dc6 <_ZN14HardwareSerial9availableEv>
    46b2:	f6 01       	movw	r30, r12
    46b4:	20 81       	ld	r18, Z
    46b6:	31 81       	ldd	r19, Z+1	; 0x01
    46b8:	2c 50       	subi	r18, 0x0C	; 12
    46ba:	30 40       	sbci	r19, 0x00	; 0
    46bc:	82 17       	cp	r24, r18
    46be:	93 07       	cpc	r25, r19
    46c0:	44 f3       	brlt	.-48     	; 0x4692 <_ZN8xbeeSRst11getDataAutoEi+0x296>
    46c2:	80 91 67 07 	lds	r24, 0x0767
    46c6:	88 23       	and	r24, r24
    46c8:	29 f0       	breq	.+10     	; 0x46d4 <_ZN8xbeeSRst11getDataAutoEi+0x2d8>
    46ca:	86 85       	ldd	r24, Z+14	; 0x0e
    46cc:	97 85       	ldd	r25, Z+15	; 0x0f
    46ce:	0e 94 d9 08 	call	0x11b2	; 0x11b2 <free>
    46d2:	03 c0       	rjmp	.+6      	; 0x46da <_ZN8xbeeSRst11getDataAutoEi+0x2de>
    46d4:	81 e0       	ldi	r24, 0x01	; 1
    46d6:	80 93 67 07 	sts	0x0767, r24
    46da:	f6 01       	movw	r30, r12
    46dc:	80 81       	ld	r24, Z
    46de:	91 81       	ldd	r25, Z+1	; 0x01
    46e0:	0c 97       	sbiw	r24, 0x0c	; 12
    46e2:	0e 94 2f 08 	call	0x105e	; 0x105e <malloc>
    46e6:	f6 01       	movw	r30, r12
    46e8:	97 87       	std	Z+15, r25	; 0x0f
    46ea:	86 87       	std	Z+14, r24	; 0x0e
    46ec:	00 97       	sbiw	r24, 0x00	; 0
    46ee:	a9 f1       	breq	.+106    	; 0x475a <_ZN8xbeeSRst11getDataAutoEi+0x35e>
    46f0:	c0 e0       	ldi	r28, 0x00	; 0
    46f2:	d0 e0       	ldi	r29, 0x00	; 0
    46f4:	0c c0       	rjmp	.+24     	; 0x470e <_ZN8xbeeSRst11getDataAutoEi+0x312>
    46f6:	f6 01       	movw	r30, r12
    46f8:	06 85       	ldd	r16, Z+14	; 0x0e
    46fa:	17 85       	ldd	r17, Z+15	; 0x0f
    46fc:	0c 0f       	add	r16, r28
    46fe:	1d 1f       	adc	r17, r29
    4700:	8f e7       	ldi	r24, 0x7F	; 127
    4702:	99 e0       	ldi	r25, 0x09	; 9
    4704:	0e 94 0e 3f 	call	0x7e1c	; 0x7e1c <_ZN14HardwareSerial4readEv>
    4708:	f8 01       	movw	r30, r16
    470a:	80 83       	st	Z, r24
    470c:	21 96       	adiw	r28, 0x01	; 1
    470e:	f6 01       	movw	r30, r12
    4710:	80 81       	ld	r24, Z
    4712:	91 81       	ldd	r25, Z+1	; 0x01
    4714:	0c 97       	sbiw	r24, 0x0c	; 12
    4716:	c8 17       	cp	r28, r24
    4718:	d9 07       	cpc	r29, r25
    471a:	6c f3       	brlt	.-38     	; 0x46f6 <_ZN8xbeeSRst11getDataAutoEi+0x2fa>
    471c:	0e 94 e2 4b 	call	0x97c4	; 0x97c4 <millis>
    4720:	7b 01       	movw	r14, r22
    4722:	8c 01       	movw	r16, r24
    4724:	0b c0       	rjmp	.+22     	; 0x473c <_ZN8xbeeSRst11getDataAutoEi+0x340>
    4726:	0e 94 e2 4b 	call	0x97c4	; 0x97c4 <millis>
    472a:	6e 19       	sub	r22, r14
    472c:	7f 09       	sbc	r23, r15
    472e:	80 0b       	sbc	r24, r16
    4730:	91 0b       	sbc	r25, r17
    4732:	86 16       	cp	r8, r22
    4734:	97 06       	cpc	r9, r23
    4736:	a8 06       	cpc	r10, r24
    4738:	b9 06       	cpc	r11, r25
    473a:	78 f0       	brcs	.+30     	; 0x475a <_ZN8xbeeSRst11getDataAutoEi+0x35e>
    473c:	8f e7       	ldi	r24, 0x7F	; 127
    473e:	99 e0       	ldi	r25, 0x09	; 9
    4740:	0e 94 e3 3e 	call	0x7dc6	; 0x7dc6 <_ZN14HardwareSerial9availableEv>
    4744:	18 16       	cp	r1, r24
    4746:	19 06       	cpc	r1, r25
    4748:	74 f7       	brge	.-36     	; 0x4726 <_ZN8xbeeSRst11getDataAutoEi+0x32a>
    474a:	8f e7       	ldi	r24, 0x7F	; 127
    474c:	99 e0       	ldi	r25, 0x09	; 9
    474e:	0e 94 0e 3f 	call	0x7e1c	; 0x7e1c <_ZN14HardwareSerial4readEv>
    4752:	f6 01       	movw	r30, r12
    4754:	80 8b       	std	Z+16, r24	; 0x10
    4756:	81 e0       	ldi	r24, 0x01	; 1
    4758:	01 c0       	rjmp	.+2      	; 0x475c <_ZN8xbeeSRst11getDataAutoEi+0x360>
    475a:	80 e0       	ldi	r24, 0x00	; 0
    475c:	df 91       	pop	r29
    475e:	cf 91       	pop	r28
    4760:	1f 91       	pop	r17
    4762:	0f 91       	pop	r16
    4764:	ff 90       	pop	r15
    4766:	ef 90       	pop	r14
    4768:	df 90       	pop	r13
    476a:	cf 90       	pop	r12
    476c:	bf 90       	pop	r11
    476e:	af 90       	pop	r10
    4770:	9f 90       	pop	r9
    4772:	8f 90       	pop	r8
    4774:	7f 90       	pop	r7
    4776:	6f 90       	pop	r6
    4778:	5f 90       	pop	r5
    477a:	4f 90       	pop	r4
    477c:	08 95       	ret

0000477e <_ZN8xbeeSRsoC2Ev>:
    477e:	fc 01       	movw	r30, r24
    4780:	11 82       	std	Z+1, r1	; 0x01
    4782:	10 82       	st	Z, r1
    4784:	13 82       	std	Z+3, r1	; 0x03
    4786:	14 82       	std	Z+4, r1	; 0x04
    4788:	15 82       	std	Z+5, r1	; 0x05
    478a:	16 82       	std	Z+6, r1	; 0x06
    478c:	17 82       	std	Z+7, r1	; 0x07
    478e:	10 86       	std	Z+8, r1	; 0x08
    4790:	11 86       	std	Z+9, r1	; 0x09
    4792:	12 86       	std	Z+10, r1	; 0x0a
    4794:	08 95       	ret

00004796 <_ZN8xbeeSRsoC1Ev>:
    4796:	fc 01       	movw	r30, r24
    4798:	11 82       	std	Z+1, r1	; 0x01
    479a:	10 82       	st	Z, r1
    479c:	13 82       	std	Z+3, r1	; 0x03
    479e:	14 82       	std	Z+4, r1	; 0x04
    47a0:	15 82       	std	Z+5, r1	; 0x05
    47a2:	16 82       	std	Z+6, r1	; 0x06
    47a4:	17 82       	std	Z+7, r1	; 0x07
    47a6:	10 86       	std	Z+8, r1	; 0x08
    47a8:	11 86       	std	Z+9, r1	; 0x09
    47aa:	12 86       	std	Z+10, r1	; 0x0a
    47ac:	08 95       	ret

000047ae <_ZN8xbeeSRso10sendData16EPhii>:
    47ae:	af 92       	push	r10
    47b0:	bf 92       	push	r11
    47b2:	cf 92       	push	r12
    47b4:	df 92       	push	r13
    47b6:	ff 92       	push	r15
    47b8:	0f 93       	push	r16
    47ba:	1f 93       	push	r17
    47bc:	cf 93       	push	r28
    47be:	df 93       	push	r29
    47c0:	5b 01       	movw	r10, r22
    47c2:	6a 01       	movw	r12, r20
    47c4:	e9 01       	movw	r28, r18
    47c6:	80 91 4b 05 	lds	r24, 0x054B
    47ca:	8f 5f       	subi	r24, 0xFF	; 255
    47cc:	80 93 4b 05 	sts	0x054B, r24
    47d0:	88 23       	and	r24, r24
    47d2:	19 f4       	brne	.+6      	; 0x47da <_ZN8xbeeSRso10sendData16EPhii+0x2c>
    47d4:	81 e0       	ldi	r24, 0x01	; 1
    47d6:	80 93 4b 05 	sts	0x054B, r24
    47da:	8f e7       	ldi	r24, 0x7F	; 127
    47dc:	99 e0       	ldi	r25, 0x09	; 9
    47de:	6e e7       	ldi	r22, 0x7E	; 126
    47e0:	70 e0       	ldi	r23, 0x00	; 0
    47e2:	40 e0       	ldi	r20, 0x00	; 0
    47e4:	50 e0       	ldi	r21, 0x00	; 0
    47e6:	0e 94 8a 41 	call	0x8314	; 0x8314 <_ZN5Print5printEii>
    47ea:	8f e7       	ldi	r24, 0x7F	; 127
    47ec:	99 e0       	ldi	r25, 0x09	; 9
    47ee:	60 e0       	ldi	r22, 0x00	; 0
    47f0:	70 e0       	ldi	r23, 0x00	; 0
    47f2:	40 e0       	ldi	r20, 0x00	; 0
    47f4:	50 e0       	ldi	r21, 0x00	; 0
    47f6:	0e 94 8a 41 	call	0x8314	; 0x8314 <_ZN5Print5printEii>
    47fa:	b6 01       	movw	r22, r12
    47fc:	62 5f       	subi	r22, 0xF2	; 242
    47fe:	7f 4f       	sbci	r23, 0xFF	; 255
    4800:	8f e7       	ldi	r24, 0x7F	; 127
    4802:	99 e0       	ldi	r25, 0x09	; 9
    4804:	40 e0       	ldi	r20, 0x00	; 0
    4806:	50 e0       	ldi	r21, 0x00	; 0
    4808:	0e 94 8a 41 	call	0x8314	; 0x8314 <_ZN5Print5printEii>
    480c:	8f e7       	ldi	r24, 0x7F	; 127
    480e:	99 e0       	ldi	r25, 0x09	; 9
    4810:	60 e0       	ldi	r22, 0x00	; 0
    4812:	70 e0       	ldi	r23, 0x00	; 0
    4814:	40 e0       	ldi	r20, 0x00	; 0
    4816:	50 e0       	ldi	r21, 0x00	; 0
    4818:	0e 94 8a 41 	call	0x8314	; 0x8314 <_ZN5Print5printEii>
    481c:	8f e7       	ldi	r24, 0x7F	; 127
    481e:	99 e0       	ldi	r25, 0x09	; 9
    4820:	60 91 4b 05 	lds	r22, 0x054B
    4824:	40 e0       	ldi	r20, 0x00	; 0
    4826:	50 e0       	ldi	r21, 0x00	; 0
    4828:	0e 94 42 41 	call	0x8284	; 0x8284 <_ZN5Print5printEhi>
    482c:	0f ee       	ldi	r16, 0xEF	; 239
    482e:	80 91 4b 05 	lds	r24, 0x054B
    4832:	08 1b       	sub	r16, r24
    4834:	6d 2f       	mov	r22, r29
    4836:	77 27       	eor	r23, r23
    4838:	67 fd       	sbrc	r22, 7
    483a:	7a 95       	dec	r23
    483c:	16 2f       	mov	r17, r22
    483e:	8f e7       	ldi	r24, 0x7F	; 127
    4840:	99 e0       	ldi	r25, 0x09	; 9
    4842:	40 e0       	ldi	r20, 0x00	; 0
    4844:	50 e0       	ldi	r21, 0x00	; 0
    4846:	0e 94 42 41 	call	0x8284	; 0x8284 <_ZN5Print5printEhi>
    484a:	01 1b       	sub	r16, r17
    484c:	8f e7       	ldi	r24, 0x7F	; 127
    484e:	99 e0       	ldi	r25, 0x09	; 9
    4850:	6c 2f       	mov	r22, r28
    4852:	40 e0       	ldi	r20, 0x00	; 0
    4854:	50 e0       	ldi	r21, 0x00	; 0
    4856:	0e 94 42 41 	call	0x8284	; 0x8284 <_ZN5Print5printEhi>
    485a:	0c 1b       	sub	r16, r28
    485c:	8f e7       	ldi	r24, 0x7F	; 127
    485e:	99 e0       	ldi	r25, 0x09	; 9
    4860:	60 e0       	ldi	r22, 0x00	; 0
    4862:	70 e0       	ldi	r23, 0x00	; 0
    4864:	40 e0       	ldi	r20, 0x00	; 0
    4866:	50 e0       	ldi	r21, 0x00	; 0
    4868:	0e 94 8a 41 	call	0x8314	; 0x8314 <_ZN5Print5printEii>
    486c:	c0 e0       	ldi	r28, 0x00	; 0
    486e:	d0 e0       	ldi	r29, 0x00	; 0
    4870:	0d c0       	rjmp	.+26     	; 0x488c <_ZN8xbeeSRso10sendData16EPhii+0xde>
    4872:	f5 01       	movw	r30, r10
    4874:	ec 0f       	add	r30, r28
    4876:	fd 1f       	adc	r31, r29
    4878:	10 81       	ld	r17, Z
    487a:	8f e7       	ldi	r24, 0x7F	; 127
    487c:	99 e0       	ldi	r25, 0x09	; 9
    487e:	61 2f       	mov	r22, r17
    4880:	40 e0       	ldi	r20, 0x00	; 0
    4882:	50 e0       	ldi	r21, 0x00	; 0
    4884:	0e 94 42 41 	call	0x8284	; 0x8284 <_ZN5Print5printEhi>
    4888:	01 1b       	sub	r16, r17
    488a:	21 96       	adiw	r28, 0x01	; 1
    488c:	cc 15       	cp	r28, r12
    488e:	dd 05       	cpc	r29, r13
    4890:	84 f3       	brlt	.-32     	; 0x4872 <_ZN8xbeeSRso10sendData16EPhii+0xc4>
    4892:	8f e7       	ldi	r24, 0x7F	; 127
    4894:	99 e0       	ldi	r25, 0x09	; 9
    4896:	60 2f       	mov	r22, r16
    4898:	40 e0       	ldi	r20, 0x00	; 0
    489a:	50 e0       	ldi	r21, 0x00	; 0
    489c:	0e 94 42 41 	call	0x8284	; 0x8284 <_ZN5Print5printEhi>
    48a0:	81 e0       	ldi	r24, 0x01	; 1
    48a2:	df 91       	pop	r29
    48a4:	cf 91       	pop	r28
    48a6:	1f 91       	pop	r17
    48a8:	0f 91       	pop	r16
    48aa:	ff 90       	pop	r15
    48ac:	df 90       	pop	r13
    48ae:	cf 90       	pop	r12
    48b0:	bf 90       	pop	r11
    48b2:	af 90       	pop	r10
    48b4:	08 95       	ret

000048b6 <_ZN8xbeeSRso10sendData64EPhiPl>:
    48b6:	8f 92       	push	r8
    48b8:	9f 92       	push	r9
    48ba:	af 92       	push	r10
    48bc:	bf 92       	push	r11
    48be:	cf 92       	push	r12
    48c0:	df 92       	push	r13
    48c2:	ef 92       	push	r14
    48c4:	ff 92       	push	r15
    48c6:	0f 93       	push	r16
    48c8:	1f 93       	push	r17
    48ca:	cf 93       	push	r28
    48cc:	df 93       	push	r29
    48ce:	4b 01       	movw	r8, r22
    48d0:	5a 01       	movw	r10, r20
    48d2:	12 2f       	mov	r17, r18
    48d4:	f3 2e       	mov	r15, r19
    48d6:	80 91 4c 05 	lds	r24, 0x054C
    48da:	8f 5f       	subi	r24, 0xFF	; 255
    48dc:	80 93 4c 05 	sts	0x054C, r24
    48e0:	88 23       	and	r24, r24
    48e2:	19 f4       	brne	.+6      	; 0x48ea <_ZN8xbeeSRso10sendData64EPhiPl+0x34>
    48e4:	81 e0       	ldi	r24, 0x01	; 1
    48e6:	80 93 4c 05 	sts	0x054C, r24
    48ea:	8f e7       	ldi	r24, 0x7F	; 127
    48ec:	99 e0       	ldi	r25, 0x09	; 9
    48ee:	6e e7       	ldi	r22, 0x7E	; 126
    48f0:	70 e0       	ldi	r23, 0x00	; 0
    48f2:	40 e0       	ldi	r20, 0x00	; 0
    48f4:	50 e0       	ldi	r21, 0x00	; 0
    48f6:	0e 94 8a 41 	call	0x8314	; 0x8314 <_ZN5Print5printEii>
    48fa:	8f e7       	ldi	r24, 0x7F	; 127
    48fc:	99 e0       	ldi	r25, 0x09	; 9
    48fe:	60 e0       	ldi	r22, 0x00	; 0
    4900:	70 e0       	ldi	r23, 0x00	; 0
    4902:	40 e0       	ldi	r20, 0x00	; 0
    4904:	50 e0       	ldi	r21, 0x00	; 0
    4906:	0e 94 8a 41 	call	0x8314	; 0x8314 <_ZN5Print5printEii>
    490a:	b5 01       	movw	r22, r10
    490c:	62 5f       	subi	r22, 0xF2	; 242
    490e:	7f 4f       	sbci	r23, 0xFF	; 255
    4910:	8f e7       	ldi	r24, 0x7F	; 127
    4912:	99 e0       	ldi	r25, 0x09	; 9
    4914:	40 e0       	ldi	r20, 0x00	; 0
    4916:	50 e0       	ldi	r21, 0x00	; 0
    4918:	0e 94 8a 41 	call	0x8314	; 0x8314 <_ZN5Print5printEii>
    491c:	8f e7       	ldi	r24, 0x7F	; 127
    491e:	99 e0       	ldi	r25, 0x09	; 9
    4920:	60 e0       	ldi	r22, 0x00	; 0
    4922:	70 e0       	ldi	r23, 0x00	; 0
    4924:	40 e0       	ldi	r20, 0x00	; 0
    4926:	50 e0       	ldi	r21, 0x00	; 0
    4928:	0e 94 8a 41 	call	0x8314	; 0x8314 <_ZN5Print5printEii>
    492c:	8f e7       	ldi	r24, 0x7F	; 127
    492e:	99 e0       	ldi	r25, 0x09	; 9
    4930:	60 91 4c 05 	lds	r22, 0x054C
    4934:	40 e0       	ldi	r20, 0x00	; 0
    4936:	50 e0       	ldi	r21, 0x00	; 0
    4938:	0e 94 42 41 	call	0x8284	; 0x8284 <_ZN5Print5printEhi>
    493c:	00 91 4c 05 	lds	r16, 0x054C
    4940:	00 95       	com	r16
    4942:	21 2f       	mov	r18, r17
    4944:	3f 2d       	mov	r19, r15
    4946:	c9 01       	movw	r24, r18
    4948:	6c 01       	movw	r12, r24
    494a:	ee 24       	eor	r14, r14
    494c:	ff 24       	eor	r15, r15
    494e:	26 c0       	rjmp	.+76     	; 0x499c <_ZN8xbeeSRso10sendData64EPhiPl+0xe6>
    4950:	f6 01       	movw	r30, r12
    4952:	20 81       	ld	r18, Z
    4954:	31 81       	ldd	r19, Z+1	; 0x01
    4956:	42 81       	ldd	r20, Z+2	; 0x02
    4958:	53 81       	ldd	r21, Z+3	; 0x03
    495a:	0c 2e       	mov	r0, r28
    495c:	04 c0       	rjmp	.+8      	; 0x4966 <_ZN8xbeeSRso10sendData64EPhiPl+0xb0>
    495e:	55 95       	asr	r21
    4960:	47 95       	ror	r20
    4962:	37 95       	ror	r19
    4964:	27 95       	ror	r18
    4966:	0a 94       	dec	r0
    4968:	d2 f7       	brpl	.-12     	; 0x495e <_ZN8xbeeSRso10sendData64EPhiPl+0xa8>
    496a:	12 2f       	mov	r17, r18
    496c:	8f e7       	ldi	r24, 0x7F	; 127
    496e:	99 e0       	ldi	r25, 0x09	; 9
    4970:	62 2f       	mov	r22, r18
    4972:	40 e0       	ldi	r20, 0x00	; 0
    4974:	50 e0       	ldi	r21, 0x00	; 0
    4976:	0e 94 42 41 	call	0x8284	; 0x8284 <_ZN5Print5printEhi>
    497a:	01 1b       	sub	r16, r17
    497c:	28 97       	sbiw	r28, 0x08	; 8
    497e:	ff ef       	ldi	r31, 0xFF	; 255
    4980:	c8 3f       	cpi	r28, 0xF8	; 248
    4982:	df 07       	cpc	r29, r31
    4984:	29 f7       	brne	.-54     	; 0x4950 <_ZN8xbeeSRso10sendData64EPhiPl+0x9a>
    4986:	08 94       	sec
    4988:	e1 1c       	adc	r14, r1
    498a:	f1 1c       	adc	r15, r1
    498c:	84 e0       	ldi	r24, 0x04	; 4
    498e:	90 e0       	ldi	r25, 0x00	; 0
    4990:	c8 0e       	add	r12, r24
    4992:	d9 1e       	adc	r13, r25
    4994:	92 e0       	ldi	r25, 0x02	; 2
    4996:	e9 16       	cp	r14, r25
    4998:	f1 04       	cpc	r15, r1
    499a:	19 f0       	breq	.+6      	; 0x49a2 <_ZN8xbeeSRso10sendData64EPhiPl+0xec>
    499c:	c8 e1       	ldi	r28, 0x18	; 24
    499e:	d0 e0       	ldi	r29, 0x00	; 0
    49a0:	d7 cf       	rjmp	.-82     	; 0x4950 <_ZN8xbeeSRso10sendData64EPhiPl+0x9a>
    49a2:	8f e7       	ldi	r24, 0x7F	; 127
    49a4:	99 e0       	ldi	r25, 0x09	; 9
    49a6:	60 e0       	ldi	r22, 0x00	; 0
    49a8:	70 e0       	ldi	r23, 0x00	; 0
    49aa:	40 e0       	ldi	r20, 0x00	; 0
    49ac:	50 e0       	ldi	r21, 0x00	; 0
    49ae:	0e 94 8a 41 	call	0x8314	; 0x8314 <_ZN5Print5printEii>
    49b2:	c0 e0       	ldi	r28, 0x00	; 0
    49b4:	d0 e0       	ldi	r29, 0x00	; 0
    49b6:	0d c0       	rjmp	.+26     	; 0x49d2 <_ZN8xbeeSRso10sendData64EPhiPl+0x11c>
    49b8:	f4 01       	movw	r30, r8
    49ba:	ec 0f       	add	r30, r28
    49bc:	fd 1f       	adc	r31, r29
    49be:	10 81       	ld	r17, Z
    49c0:	8f e7       	ldi	r24, 0x7F	; 127
    49c2:	99 e0       	ldi	r25, 0x09	; 9
    49c4:	61 2f       	mov	r22, r17
    49c6:	40 e0       	ldi	r20, 0x00	; 0
    49c8:	50 e0       	ldi	r21, 0x00	; 0
    49ca:	0e 94 42 41 	call	0x8284	; 0x8284 <_ZN5Print5printEhi>
    49ce:	01 1b       	sub	r16, r17
    49d0:	21 96       	adiw	r28, 0x01	; 1
    49d2:	ca 15       	cp	r28, r10
    49d4:	db 05       	cpc	r29, r11
    49d6:	84 f3       	brlt	.-32     	; 0x49b8 <_ZN8xbeeSRso10sendData64EPhiPl+0x102>
    49d8:	8f e7       	ldi	r24, 0x7F	; 127
    49da:	99 e0       	ldi	r25, 0x09	; 9
    49dc:	60 2f       	mov	r22, r16
    49de:	40 e0       	ldi	r20, 0x00	; 0
    49e0:	50 e0       	ldi	r21, 0x00	; 0
    49e2:	0e 94 42 41 	call	0x8284	; 0x8284 <_ZN5Print5printEhi>
    49e6:	81 e0       	ldi	r24, 0x01	; 1
    49e8:	df 91       	pop	r29
    49ea:	cf 91       	pop	r28
    49ec:	1f 91       	pop	r17
    49ee:	0f 91       	pop	r16
    49f0:	ff 90       	pop	r15
    49f2:	ef 90       	pop	r14
    49f4:	df 90       	pop	r13
    49f6:	cf 90       	pop	r12
    49f8:	bf 90       	pop	r11
    49fa:	af 90       	pop	r10
    49fc:	9f 90       	pop	r9
    49fe:	8f 90       	pop	r8
    4a00:	08 95       	ret

00004a02 <_ZN8xbeeSRso11getDataAutoEi>:
    4a02:	6f 92       	push	r6
    4a04:	7f 92       	push	r7
    4a06:	8f 92       	push	r8
    4a08:	9f 92       	push	r9
    4a0a:	af 92       	push	r10
    4a0c:	bf 92       	push	r11
    4a0e:	cf 92       	push	r12
    4a10:	df 92       	push	r13
    4a12:	ef 92       	push	r14
    4a14:	ff 92       	push	r15
    4a16:	0f 93       	push	r16
    4a18:	1f 93       	push	r17
    4a1a:	cf 93       	push	r28
    4a1c:	df 93       	push	r29
    4a1e:	7c 01       	movw	r14, r24
    4a20:	8b 01       	movw	r16, r22
    4a22:	0e 94 e2 4b 	call	0x97c4	; 0x97c4 <millis>
    4a26:	5b 01       	movw	r10, r22
    4a28:	6c 01       	movw	r12, r24
    4a2a:	38 01       	movw	r6, r16
    4a2c:	88 24       	eor	r8, r8
    4a2e:	99 24       	eor	r9, r9
    4a30:	8f e7       	ldi	r24, 0x7F	; 127
    4a32:	99 e0       	ldi	r25, 0x09	; 9
    4a34:	0e 94 e3 3e 	call	0x7dc6	; 0x7dc6 <_ZN14HardwareSerial9availableEv>
    4a38:	18 16       	cp	r1, r24
    4a3a:	19 06       	cpc	r1, r25
    4a3c:	0c f0       	brlt	.+2      	; 0x4a40 <_ZN8xbeeSRso11getDataAutoEi+0x3e>
    4a3e:	b3 c1       	rjmp	.+870    	; 0x4da6 <_ZN8xbeeSRso11getDataAutoEi+0x3a4>
    4a40:	8f e7       	ldi	r24, 0x7F	; 127
    4a42:	99 e0       	ldi	r25, 0x09	; 9
    4a44:	0e 94 0e 3f 	call	0x7e1c	; 0x7e1c <_ZN14HardwareSerial4readEv>
    4a48:	18 2f       	mov	r17, r24
    4a4a:	0e 94 e2 4b 	call	0x97c4	; 0x97c4 <millis>
    4a4e:	6a 19       	sub	r22, r10
    4a50:	7b 09       	sbc	r23, r11
    4a52:	8c 09       	sbc	r24, r12
    4a54:	9d 09       	sbc	r25, r13
    4a56:	66 16       	cp	r6, r22
    4a58:	77 06       	cpc	r7, r23
    4a5a:	88 06       	cpc	r8, r24
    4a5c:	99 06       	cpc	r9, r25
    4a5e:	08 f4       	brcc	.+2      	; 0x4a62 <_ZN8xbeeSRso11getDataAutoEi+0x60>
    4a60:	a2 c1       	rjmp	.+836    	; 0x4da6 <_ZN8xbeeSRso11getDataAutoEi+0x3a4>
    4a62:	1e 37       	cpi	r17, 0x7E	; 126
    4a64:	29 f7       	brne	.-54     	; 0x4a30 <_ZN8xbeeSRso11getDataAutoEi+0x2e>
    4a66:	0e 94 e2 4b 	call	0x97c4	; 0x97c4 <millis>
    4a6a:	5b 01       	movw	r10, r22
    4a6c:	6c 01       	movw	r12, r24
    4a6e:	0c c0       	rjmp	.+24     	; 0x4a88 <_ZN8xbeeSRso11getDataAutoEi+0x86>
    4a70:	0e 94 e2 4b 	call	0x97c4	; 0x97c4 <millis>
    4a74:	6a 19       	sub	r22, r10
    4a76:	7b 09       	sbc	r23, r11
    4a78:	8c 09       	sbc	r24, r12
    4a7a:	9d 09       	sbc	r25, r13
    4a7c:	66 16       	cp	r6, r22
    4a7e:	77 06       	cpc	r7, r23
    4a80:	88 06       	cpc	r8, r24
    4a82:	99 06       	cpc	r9, r25
    4a84:	08 f4       	brcc	.+2      	; 0x4a88 <_ZN8xbeeSRso11getDataAutoEi+0x86>
    4a86:	8f c1       	rjmp	.+798    	; 0x4da6 <_ZN8xbeeSRso11getDataAutoEi+0x3a4>
    4a88:	8f e7       	ldi	r24, 0x7F	; 127
    4a8a:	99 e0       	ldi	r25, 0x09	; 9
    4a8c:	0e 94 e3 3e 	call	0x7dc6	; 0x7dc6 <_ZN14HardwareSerial9availableEv>
    4a90:	02 97       	sbiw	r24, 0x02	; 2
    4a92:	74 f3       	brlt	.-36     	; 0x4a70 <_ZN8xbeeSRso11getDataAutoEi+0x6e>
    4a94:	8f e7       	ldi	r24, 0x7F	; 127
    4a96:	99 e0       	ldi	r25, 0x09	; 9
    4a98:	0e 94 e3 3e 	call	0x7dc6	; 0x7dc6 <_ZN14HardwareSerial9availableEv>
    4a9c:	02 97       	sbiw	r24, 0x02	; 2
    4a9e:	84 f0       	brlt	.+32     	; 0x4ac0 <_ZN8xbeeSRso11getDataAutoEi+0xbe>
    4aa0:	8f e7       	ldi	r24, 0x7F	; 127
    4aa2:	99 e0       	ldi	r25, 0x09	; 9
    4aa4:	0e 94 0e 3f 	call	0x7e1c	; 0x7e1c <_ZN14HardwareSerial4readEv>
    4aa8:	18 2f       	mov	r17, r24
    4aaa:	8f e7       	ldi	r24, 0x7F	; 127
    4aac:	99 e0       	ldi	r25, 0x09	; 9
    4aae:	0e 94 0e 3f 	call	0x7e1c	; 0x7e1c <_ZN14HardwareSerial4readEv>
    4ab2:	31 2f       	mov	r19, r17
    4ab4:	20 e0       	ldi	r18, 0x00	; 0
    4ab6:	28 0f       	add	r18, r24
    4ab8:	39 1f       	adc	r19, r25
    4aba:	f7 01       	movw	r30, r14
    4abc:	31 83       	std	Z+1, r19	; 0x01
    4abe:	20 83       	st	Z, r18
    4ac0:	f7 01       	movw	r30, r14
    4ac2:	80 81       	ld	r24, Z
    4ac4:	91 81       	ldd	r25, Z+1	; 0x01
    4ac6:	18 16       	cp	r1, r24
    4ac8:	19 06       	cpc	r1, r25
    4aca:	0c f0       	brlt	.+2      	; 0x4ace <_ZN8xbeeSRso11getDataAutoEi+0xcc>
    4acc:	6a c1       	rjmp	.+724    	; 0x4da2 <_ZN8xbeeSRso11getDataAutoEi+0x3a0>
    4ace:	8a e5       	ldi	r24, 0x5A	; 90
    4ad0:	f7 01       	movw	r30, r14
    4ad2:	82 83       	std	Z+2, r24	; 0x02
    4ad4:	0e 94 e2 4b 	call	0x97c4	; 0x97c4 <millis>
    4ad8:	5b 01       	movw	r10, r22
    4ada:	6c 01       	movw	r12, r24
    4adc:	0c c0       	rjmp	.+24     	; 0x4af6 <_ZN8xbeeSRso11getDataAutoEi+0xf4>
    4ade:	0e 94 e2 4b 	call	0x97c4	; 0x97c4 <millis>
    4ae2:	6a 19       	sub	r22, r10
    4ae4:	7b 09       	sbc	r23, r11
    4ae6:	8c 09       	sbc	r24, r12
    4ae8:	9d 09       	sbc	r25, r13
    4aea:	66 16       	cp	r6, r22
    4aec:	77 06       	cpc	r7, r23
    4aee:	88 06       	cpc	r8, r24
    4af0:	99 06       	cpc	r9, r25
    4af2:	08 f4       	brcc	.+2      	; 0x4af6 <_ZN8xbeeSRso11getDataAutoEi+0xf4>
    4af4:	58 c1       	rjmp	.+688    	; 0x4da6 <_ZN8xbeeSRso11getDataAutoEi+0x3a4>
    4af6:	8f e7       	ldi	r24, 0x7F	; 127
    4af8:	99 e0       	ldi	r25, 0x09	; 9
    4afa:	0e 94 e3 3e 	call	0x7dc6	; 0x7dc6 <_ZN14HardwareSerial9availableEv>
    4afe:	18 16       	cp	r1, r24
    4b00:	19 06       	cpc	r1, r25
    4b02:	6c f7       	brge	.-38     	; 0x4ade <_ZN8xbeeSRso11getDataAutoEi+0xdc>
    4b04:	8f e7       	ldi	r24, 0x7F	; 127
    4b06:	99 e0       	ldi	r25, 0x09	; 9
    4b08:	0e 94 e3 3e 	call	0x7dc6	; 0x7dc6 <_ZN14HardwareSerial9availableEv>
    4b0c:	18 16       	cp	r1, r24
    4b0e:	19 06       	cpc	r1, r25
    4b10:	0c f0       	brlt	.+2      	; 0x4b14 <_ZN8xbeeSRso11getDataAutoEi+0x112>
    4b12:	49 c1       	rjmp	.+658    	; 0x4da6 <_ZN8xbeeSRso11getDataAutoEi+0x3a4>
    4b14:	8f e7       	ldi	r24, 0x7F	; 127
    4b16:	99 e0       	ldi	r25, 0x09	; 9
    4b18:	0e 94 0e 3f 	call	0x7e1c	; 0x7e1c <_ZN14HardwareSerial4readEv>
    4b1c:	f7 01       	movw	r30, r14
    4b1e:	82 83       	std	Z+2, r24	; 0x02
    4b20:	80 38       	cpi	r24, 0x80	; 128
    4b22:	09 f0       	breq	.+2      	; 0x4b26 <_ZN8xbeeSRso11getDataAutoEi+0x124>
    4b24:	6c c0       	rjmp	.+216    	; 0x4bfe <_ZN8xbeeSRso11getDataAutoEi+0x1fc>
    4b26:	13 82       	std	Z+3, r1	; 0x03
    4b28:	14 82       	std	Z+4, r1	; 0x04
    4b2a:	15 82       	std	Z+5, r1	; 0x05
    4b2c:	16 82       	std	Z+6, r1	; 0x06
    4b2e:	17 82       	std	Z+7, r1	; 0x07
    4b30:	10 86       	std	Z+8, r1	; 0x08
    4b32:	11 86       	std	Z+9, r1	; 0x09
    4b34:	12 86       	std	Z+10, r1	; 0x0a
    4b36:	0e 94 e2 4b 	call	0x97c4	; 0x97c4 <millis>
    4b3a:	5b 01       	movw	r10, r22
    4b3c:	6c 01       	movw	r12, r24
    4b3e:	0c c0       	rjmp	.+24     	; 0x4b58 <_ZN8xbeeSRso11getDataAutoEi+0x156>
    4b40:	0e 94 e2 4b 	call	0x97c4	; 0x97c4 <millis>
    4b44:	6a 19       	sub	r22, r10
    4b46:	7b 09       	sbc	r23, r11
    4b48:	8c 09       	sbc	r24, r12
    4b4a:	9d 09       	sbc	r25, r13
    4b4c:	66 16       	cp	r6, r22
    4b4e:	77 06       	cpc	r7, r23
    4b50:	88 06       	cpc	r8, r24
    4b52:	99 06       	cpc	r9, r25
    4b54:	08 f4       	brcc	.+2      	; 0x4b58 <_ZN8xbeeSRso11getDataAutoEi+0x156>
    4b56:	27 c1       	rjmp	.+590    	; 0x4da6 <_ZN8xbeeSRso11getDataAutoEi+0x3a4>
    4b58:	8f e7       	ldi	r24, 0x7F	; 127
    4b5a:	99 e0       	ldi	r25, 0x09	; 9
    4b5c:	0e 94 e3 3e 	call	0x7dc6	; 0x7dc6 <_ZN14HardwareSerial9availableEv>
    4b60:	08 97       	sbiw	r24, 0x08	; 8
    4b62:	74 f3       	brlt	.-36     	; 0x4b40 <_ZN8xbeeSRso11getDataAutoEi+0x13e>
    4b64:	8f e7       	ldi	r24, 0x7F	; 127
    4b66:	99 e0       	ldi	r25, 0x09	; 9
    4b68:	0e 94 e3 3e 	call	0x7dc6	; 0x7dc6 <_ZN14HardwareSerial9availableEv>
    4b6c:	08 97       	sbiw	r24, 0x08	; 8
    4b6e:	0c f4       	brge	.+2      	; 0x4b72 <_ZN8xbeeSRso11getDataAutoEi+0x170>
    4b70:	1a c1       	rjmp	.+564    	; 0x4da6 <_ZN8xbeeSRso11getDataAutoEi+0x3a4>
    4b72:	c0 e0       	ldi	r28, 0x00	; 0
    4b74:	d0 e0       	ldi	r29, 0x00	; 0
    4b76:	08 e1       	ldi	r16, 0x18	; 24
    4b78:	10 e0       	ldi	r17, 0x00	; 0
    4b7a:	8f e7       	ldi	r24, 0x7F	; 127
    4b7c:	99 e0       	ldi	r25, 0x09	; 9
    4b7e:	0e 94 0e 3f 	call	0x7e1c	; 0x7e1c <_ZN14HardwareSerial4readEv>
    4b82:	28 2f       	mov	r18, r24
    4b84:	30 e0       	ldi	r19, 0x00	; 0
    4b86:	40 e0       	ldi	r20, 0x00	; 0
    4b88:	50 e0       	ldi	r21, 0x00	; 0
    4b8a:	c4 30       	cpi	r28, 0x04	; 4
    4b8c:	d1 05       	cpc	r29, r1
    4b8e:	b4 f4       	brge	.+44     	; 0x4bbc <_ZN8xbeeSRso11getDataAutoEi+0x1ba>
    4b90:	00 2e       	mov	r0, r16
    4b92:	04 c0       	rjmp	.+8      	; 0x4b9c <_ZN8xbeeSRso11getDataAutoEi+0x19a>
    4b94:	22 0f       	add	r18, r18
    4b96:	33 1f       	adc	r19, r19
    4b98:	44 1f       	adc	r20, r20
    4b9a:	55 1f       	adc	r21, r21
    4b9c:	0a 94       	dec	r0
    4b9e:	d2 f7       	brpl	.-12     	; 0x4b94 <_ZN8xbeeSRso11getDataAutoEi+0x192>
    4ba0:	f7 01       	movw	r30, r14
    4ba2:	83 81       	ldd	r24, Z+3	; 0x03
    4ba4:	94 81       	ldd	r25, Z+4	; 0x04
    4ba6:	a5 81       	ldd	r26, Z+5	; 0x05
    4ba8:	b6 81       	ldd	r27, Z+6	; 0x06
    4baa:	82 0f       	add	r24, r18
    4bac:	93 1f       	adc	r25, r19
    4bae:	a4 1f       	adc	r26, r20
    4bb0:	b5 1f       	adc	r27, r21
    4bb2:	83 83       	std	Z+3, r24	; 0x03
    4bb4:	94 83       	std	Z+4, r25	; 0x04
    4bb6:	a5 83       	std	Z+5, r26	; 0x05
    4bb8:	b6 83       	std	Z+6, r27	; 0x06
    4bba:	19 c0       	rjmp	.+50     	; 0x4bee <_ZN8xbeeSRso11getDataAutoEi+0x1ec>
    4bbc:	00 5e       	subi	r16, 0xE0	; 224
    4bbe:	1f 4f       	sbci	r17, 0xFF	; 255
    4bc0:	00 2e       	mov	r0, r16
    4bc2:	04 c0       	rjmp	.+8      	; 0x4bcc <_ZN8xbeeSRso11getDataAutoEi+0x1ca>
    4bc4:	22 0f       	add	r18, r18
    4bc6:	33 1f       	adc	r19, r19
    4bc8:	44 1f       	adc	r20, r20
    4bca:	55 1f       	adc	r21, r21
    4bcc:	0a 94       	dec	r0
    4bce:	d2 f7       	brpl	.-12     	; 0x4bc4 <_ZN8xbeeSRso11getDataAutoEi+0x1c2>
    4bd0:	00 52       	subi	r16, 0x20	; 32
    4bd2:	10 40       	sbci	r17, 0x00	; 0
    4bd4:	f7 01       	movw	r30, r14
    4bd6:	87 81       	ldd	r24, Z+7	; 0x07
    4bd8:	90 85       	ldd	r25, Z+8	; 0x08
    4bda:	a1 85       	ldd	r26, Z+9	; 0x09
    4bdc:	b2 85       	ldd	r27, Z+10	; 0x0a
    4bde:	82 0f       	add	r24, r18
    4be0:	93 1f       	adc	r25, r19
    4be2:	a4 1f       	adc	r26, r20
    4be4:	b5 1f       	adc	r27, r21
    4be6:	87 83       	std	Z+7, r24	; 0x07
    4be8:	90 87       	std	Z+8, r25	; 0x08
    4bea:	a1 87       	std	Z+9, r26	; 0x09
    4bec:	b2 87       	std	Z+10, r27	; 0x0a
    4bee:	21 96       	adiw	r28, 0x01	; 1
    4bf0:	08 50       	subi	r16, 0x08	; 8
    4bf2:	10 40       	sbci	r17, 0x00	; 0
    4bf4:	c8 30       	cpi	r28, 0x08	; 8
    4bf6:	d1 05       	cpc	r29, r1
    4bf8:	09 f0       	breq	.+2      	; 0x4bfc <_ZN8xbeeSRso11getDataAutoEi+0x1fa>
    4bfa:	bf cf       	rjmp	.-130    	; 0x4b7a <_ZN8xbeeSRso11getDataAutoEi+0x178>
    4bfc:	29 c0       	rjmp	.+82     	; 0x4c50 <_ZN8xbeeSRso11getDataAutoEi+0x24e>
    4bfe:	81 38       	cpi	r24, 0x81	; 129
    4c00:	39 f5       	brne	.+78     	; 0x4c50 <_ZN8xbeeSRso11getDataAutoEi+0x24e>
    4c02:	0e 94 e2 4b 	call	0x97c4	; 0x97c4 <millis>
    4c06:	5b 01       	movw	r10, r22
    4c08:	6c 01       	movw	r12, r24
    4c0a:	0c c0       	rjmp	.+24     	; 0x4c24 <_ZN8xbeeSRso11getDataAutoEi+0x222>
    4c0c:	0e 94 e2 4b 	call	0x97c4	; 0x97c4 <millis>
    4c10:	6a 19       	sub	r22, r10
    4c12:	7b 09       	sbc	r23, r11
    4c14:	8c 09       	sbc	r24, r12
    4c16:	9d 09       	sbc	r25, r13
    4c18:	66 16       	cp	r6, r22
    4c1a:	77 06       	cpc	r7, r23
    4c1c:	88 06       	cpc	r8, r24
    4c1e:	99 06       	cpc	r9, r25
    4c20:	08 f4       	brcc	.+2      	; 0x4c24 <_ZN8xbeeSRso11getDataAutoEi+0x222>
    4c22:	c1 c0       	rjmp	.+386    	; 0x4da6 <_ZN8xbeeSRso11getDataAutoEi+0x3a4>
    4c24:	8f e7       	ldi	r24, 0x7F	; 127
    4c26:	99 e0       	ldi	r25, 0x09	; 9
    4c28:	0e 94 e3 3e 	call	0x7dc6	; 0x7dc6 <_ZN14HardwareSerial9availableEv>
    4c2c:	02 97       	sbiw	r24, 0x02	; 2
    4c2e:	74 f3       	brlt	.-36     	; 0x4c0c <_ZN8xbeeSRso11getDataAutoEi+0x20a>
    4c30:	8f e7       	ldi	r24, 0x7F	; 127
    4c32:	99 e0       	ldi	r25, 0x09	; 9
    4c34:	0e 94 0e 3f 	call	0x7e1c	; 0x7e1c <_ZN14HardwareSerial4readEv>
    4c38:	18 2f       	mov	r17, r24
    4c3a:	8f e7       	ldi	r24, 0x7F	; 127
    4c3c:	99 e0       	ldi	r25, 0x09	; 9
    4c3e:	0e 94 0e 3f 	call	0x7e1c	; 0x7e1c <_ZN14HardwareSerial4readEv>
    4c42:	31 2f       	mov	r19, r17
    4c44:	20 e0       	ldi	r18, 0x00	; 0
    4c46:	28 0f       	add	r18, r24
    4c48:	39 1f       	adc	r19, r25
    4c4a:	f7 01       	movw	r30, r14
    4c4c:	34 87       	std	Z+12, r19	; 0x0c
    4c4e:	23 87       	std	Z+11, r18	; 0x0b
    4c50:	0e 94 e2 4b 	call	0x97c4	; 0x97c4 <millis>
    4c54:	5b 01       	movw	r10, r22
    4c56:	6c 01       	movw	r12, r24
    4c58:	0c c0       	rjmp	.+24     	; 0x4c72 <_ZN8xbeeSRso11getDataAutoEi+0x270>
    4c5a:	0e 94 e2 4b 	call	0x97c4	; 0x97c4 <millis>
    4c5e:	6a 19       	sub	r22, r10
    4c60:	7b 09       	sbc	r23, r11
    4c62:	8c 09       	sbc	r24, r12
    4c64:	9d 09       	sbc	r25, r13
    4c66:	66 16       	cp	r6, r22
    4c68:	77 06       	cpc	r7, r23
    4c6a:	88 06       	cpc	r8, r24
    4c6c:	99 06       	cpc	r9, r25
    4c6e:	08 f4       	brcc	.+2      	; 0x4c72 <_ZN8xbeeSRso11getDataAutoEi+0x270>
    4c70:	9a c0       	rjmp	.+308    	; 0x4da6 <_ZN8xbeeSRso11getDataAutoEi+0x3a4>
    4c72:	8f e7       	ldi	r24, 0x7F	; 127
    4c74:	99 e0       	ldi	r25, 0x09	; 9
    4c76:	0e 94 e3 3e 	call	0x7dc6	; 0x7dc6 <_ZN14HardwareSerial9availableEv>
    4c7a:	18 16       	cp	r1, r24
    4c7c:	19 06       	cpc	r1, r25
    4c7e:	6c f7       	brge	.-38     	; 0x4c5a <_ZN8xbeeSRso11getDataAutoEi+0x258>
    4c80:	8f e7       	ldi	r24, 0x7F	; 127
    4c82:	99 e0       	ldi	r25, 0x09	; 9
    4c84:	0e 94 0e 3f 	call	0x7e1c	; 0x7e1c <_ZN14HardwareSerial4readEv>
    4c88:	f7 01       	movw	r30, r14
    4c8a:	85 87       	std	Z+13, r24	; 0x0d
    4c8c:	0e 94 e2 4b 	call	0x97c4	; 0x97c4 <millis>
    4c90:	5b 01       	movw	r10, r22
    4c92:	6c 01       	movw	r12, r24
    4c94:	0c c0       	rjmp	.+24     	; 0x4cae <_ZN8xbeeSRso11getDataAutoEi+0x2ac>
    4c96:	0e 94 e2 4b 	call	0x97c4	; 0x97c4 <millis>
    4c9a:	6a 19       	sub	r22, r10
    4c9c:	7b 09       	sbc	r23, r11
    4c9e:	8c 09       	sbc	r24, r12
    4ca0:	9d 09       	sbc	r25, r13
    4ca2:	66 16       	cp	r6, r22
    4ca4:	77 06       	cpc	r7, r23
    4ca6:	88 06       	cpc	r8, r24
    4ca8:	99 06       	cpc	r9, r25
    4caa:	08 f4       	brcc	.+2      	; 0x4cae <_ZN8xbeeSRso11getDataAutoEi+0x2ac>
    4cac:	7c c0       	rjmp	.+248    	; 0x4da6 <_ZN8xbeeSRso11getDataAutoEi+0x3a4>
    4cae:	8f e7       	ldi	r24, 0x7F	; 127
    4cb0:	99 e0       	ldi	r25, 0x09	; 9
    4cb2:	0e 94 e3 3e 	call	0x7dc6	; 0x7dc6 <_ZN14HardwareSerial9availableEv>
    4cb6:	18 16       	cp	r1, r24
    4cb8:	19 06       	cpc	r1, r25
    4cba:	6c f7       	brge	.-38     	; 0x4c96 <_ZN8xbeeSRso11getDataAutoEi+0x294>
    4cbc:	8f e7       	ldi	r24, 0x7F	; 127
    4cbe:	99 e0       	ldi	r25, 0x09	; 9
    4cc0:	0e 94 0e 3f 	call	0x7e1c	; 0x7e1c <_ZN14HardwareSerial4readEv>
    4cc4:	f7 01       	movw	r30, r14
    4cc6:	86 87       	std	Z+14, r24	; 0x0e
    4cc8:	0e 94 e2 4b 	call	0x97c4	; 0x97c4 <millis>
    4ccc:	5b 01       	movw	r10, r22
    4cce:	6c 01       	movw	r12, r24
    4cd0:	f7 01       	movw	r30, r14
    4cd2:	80 81       	ld	r24, Z
    4cd4:	91 81       	ldd	r25, Z+1	; 0x01
    4cd6:	0c 97       	sbiw	r24, 0x0c	; 12
    4cd8:	93 8b       	std	Z+19, r25	; 0x13
    4cda:	82 8b       	std	Z+18, r24	; 0x12
    4cdc:	0c c0       	rjmp	.+24     	; 0x4cf6 <_ZN8xbeeSRso11getDataAutoEi+0x2f4>
    4cde:	0e 94 e2 4b 	call	0x97c4	; 0x97c4 <millis>
    4ce2:	6a 19       	sub	r22, r10
    4ce4:	7b 09       	sbc	r23, r11
    4ce6:	8c 09       	sbc	r24, r12
    4ce8:	9d 09       	sbc	r25, r13
    4cea:	66 16       	cp	r6, r22
    4cec:	77 06       	cpc	r7, r23
    4cee:	88 06       	cpc	r8, r24
    4cf0:	99 06       	cpc	r9, r25
    4cf2:	08 f4       	brcc	.+2      	; 0x4cf6 <_ZN8xbeeSRso11getDataAutoEi+0x2f4>
    4cf4:	58 c0       	rjmp	.+176    	; 0x4da6 <_ZN8xbeeSRso11getDataAutoEi+0x3a4>
    4cf6:	8f e7       	ldi	r24, 0x7F	; 127
    4cf8:	99 e0       	ldi	r25, 0x09	; 9
    4cfa:	0e 94 e3 3e 	call	0x7dc6	; 0x7dc6 <_ZN14HardwareSerial9availableEv>
    4cfe:	f7 01       	movw	r30, r14
    4d00:	20 81       	ld	r18, Z
    4d02:	31 81       	ldd	r19, Z+1	; 0x01
    4d04:	2c 50       	subi	r18, 0x0C	; 12
    4d06:	30 40       	sbci	r19, 0x00	; 0
    4d08:	82 17       	cp	r24, r18
    4d0a:	93 07       	cpc	r25, r19
    4d0c:	44 f3       	brlt	.-48     	; 0x4cde <_ZN8xbeeSRso11getDataAutoEi+0x2dc>
    4d0e:	80 91 68 07 	lds	r24, 0x0768
    4d12:	88 23       	and	r24, r24
    4d14:	29 f0       	breq	.+10     	; 0x4d20 <_ZN8xbeeSRso11getDataAutoEi+0x31e>
    4d16:	87 85       	ldd	r24, Z+15	; 0x0f
    4d18:	90 89       	ldd	r25, Z+16	; 0x10
    4d1a:	0e 94 d9 08 	call	0x11b2	; 0x11b2 <free>
    4d1e:	03 c0       	rjmp	.+6      	; 0x4d26 <_ZN8xbeeSRso11getDataAutoEi+0x324>
    4d20:	81 e0       	ldi	r24, 0x01	; 1
    4d22:	80 93 68 07 	sts	0x0768, r24
    4d26:	f7 01       	movw	r30, r14
    4d28:	80 81       	ld	r24, Z
    4d2a:	91 81       	ldd	r25, Z+1	; 0x01
    4d2c:	0c 97       	sbiw	r24, 0x0c	; 12
    4d2e:	0e 94 2f 08 	call	0x105e	; 0x105e <malloc>
    4d32:	f7 01       	movw	r30, r14
    4d34:	90 8b       	std	Z+16, r25	; 0x10
    4d36:	87 87       	std	Z+15, r24	; 0x0f
    4d38:	00 97       	sbiw	r24, 0x00	; 0
    4d3a:	a9 f1       	breq	.+106    	; 0x4da6 <_ZN8xbeeSRso11getDataAutoEi+0x3a4>
    4d3c:	c0 e0       	ldi	r28, 0x00	; 0
    4d3e:	d0 e0       	ldi	r29, 0x00	; 0
    4d40:	0c c0       	rjmp	.+24     	; 0x4d5a <_ZN8xbeeSRso11getDataAutoEi+0x358>
    4d42:	f7 01       	movw	r30, r14
    4d44:	07 85       	ldd	r16, Z+15	; 0x0f
    4d46:	10 89       	ldd	r17, Z+16	; 0x10
    4d48:	0c 0f       	add	r16, r28
    4d4a:	1d 1f       	adc	r17, r29
    4d4c:	8f e7       	ldi	r24, 0x7F	; 127
    4d4e:	99 e0       	ldi	r25, 0x09	; 9
    4d50:	0e 94 0e 3f 	call	0x7e1c	; 0x7e1c <_ZN14HardwareSerial4readEv>
    4d54:	f8 01       	movw	r30, r16
    4d56:	80 83       	st	Z, r24
    4d58:	21 96       	adiw	r28, 0x01	; 1
    4d5a:	f7 01       	movw	r30, r14
    4d5c:	80 81       	ld	r24, Z
    4d5e:	91 81       	ldd	r25, Z+1	; 0x01
    4d60:	0c 97       	sbiw	r24, 0x0c	; 12
    4d62:	c8 17       	cp	r28, r24
    4d64:	d9 07       	cpc	r29, r25
    4d66:	6c f3       	brlt	.-38     	; 0x4d42 <_ZN8xbeeSRso11getDataAutoEi+0x340>
    4d68:	0e 94 e2 4b 	call	0x97c4	; 0x97c4 <millis>
    4d6c:	5b 01       	movw	r10, r22
    4d6e:	6c 01       	movw	r12, r24
    4d70:	0b c0       	rjmp	.+22     	; 0x4d88 <_ZN8xbeeSRso11getDataAutoEi+0x386>
    4d72:	0e 94 e2 4b 	call	0x97c4	; 0x97c4 <millis>
    4d76:	6a 19       	sub	r22, r10
    4d78:	7b 09       	sbc	r23, r11
    4d7a:	8c 09       	sbc	r24, r12
    4d7c:	9d 09       	sbc	r25, r13
    4d7e:	66 16       	cp	r6, r22
    4d80:	77 06       	cpc	r7, r23
    4d82:	88 06       	cpc	r8, r24
    4d84:	99 06       	cpc	r9, r25
    4d86:	78 f0       	brcs	.+30     	; 0x4da6 <_ZN8xbeeSRso11getDataAutoEi+0x3a4>
    4d88:	8f e7       	ldi	r24, 0x7F	; 127
    4d8a:	99 e0       	ldi	r25, 0x09	; 9
    4d8c:	0e 94 e3 3e 	call	0x7dc6	; 0x7dc6 <_ZN14HardwareSerial9availableEv>
    4d90:	18 16       	cp	r1, r24
    4d92:	19 06       	cpc	r1, r25
    4d94:	74 f7       	brge	.-36     	; 0x4d72 <_ZN8xbeeSRso11getDataAutoEi+0x370>
    4d96:	8f e7       	ldi	r24, 0x7F	; 127
    4d98:	99 e0       	ldi	r25, 0x09	; 9
    4d9a:	0e 94 0e 3f 	call	0x7e1c	; 0x7e1c <_ZN14HardwareSerial4readEv>
    4d9e:	f7 01       	movw	r30, r14
    4da0:	81 8b       	std	Z+17, r24	; 0x11
    4da2:	81 e0       	ldi	r24, 0x01	; 1
    4da4:	01 c0       	rjmp	.+2      	; 0x4da8 <_ZN8xbeeSRso11getDataAutoEi+0x3a6>
    4da6:	80 e0       	ldi	r24, 0x00	; 0
    4da8:	df 91       	pop	r29
    4daa:	cf 91       	pop	r28
    4dac:	1f 91       	pop	r17
    4dae:	0f 91       	pop	r16
    4db0:	ff 90       	pop	r15
    4db2:	ef 90       	pop	r14
    4db4:	df 90       	pop	r13
    4db6:	cf 90       	pop	r12
    4db8:	bf 90       	pop	r11
    4dba:	af 90       	pop	r10
    4dbc:	9f 90       	pop	r9
    4dbe:	8f 90       	pop	r8
    4dc0:	7f 90       	pop	r7
    4dc2:	6f 90       	pop	r6
    4dc4:	08 95       	ret

00004dc6 <_ZN6xbeeSTC2Ev>:
    4dc6:	fc 01       	movw	r30, r24
    4dc8:	11 82       	std	Z+1, r1	; 0x01
    4dca:	10 82       	st	Z, r1
    4dcc:	13 82       	std	Z+3, r1	; 0x03
    4dce:	14 82       	std	Z+4, r1	; 0x04
    4dd0:	15 82       	std	Z+5, r1	; 0x05
    4dd2:	16 82       	std	Z+6, r1	; 0x06
    4dd4:	17 82       	std	Z+7, r1	; 0x07
    4dd6:	10 86       	std	Z+8, r1	; 0x08
    4dd8:	11 86       	std	Z+9, r1	; 0x09
    4dda:	12 86       	std	Z+10, r1	; 0x0a
    4ddc:	13 a6       	std	Z+43, r1	; 0x2b
    4dde:	14 a6       	std	Z+44, r1	; 0x2c
    4de0:	15 a6       	std	Z+45, r1	; 0x2d
    4de2:	16 a6       	std	Z+46, r1	; 0x2e
    4de4:	17 a6       	std	Z+47, r1	; 0x2f
    4de6:	10 aa       	std	Z+48, r1	; 0x30
    4de8:	11 aa       	std	Z+49, r1	; 0x31
    4dea:	12 aa       	std	Z+50, r1	; 0x32
    4dec:	13 aa       	std	Z+51, r1	; 0x33
    4dee:	14 aa       	std	Z+52, r1	; 0x34
    4df0:	15 aa       	std	Z+53, r1	; 0x35
    4df2:	16 aa       	std	Z+54, r1	; 0x36
    4df4:	17 aa       	std	Z+55, r1	; 0x37
    4df6:	10 ae       	std	Z+56, r1	; 0x38
    4df8:	11 ae       	std	Z+57, r1	; 0x39
    4dfa:	12 ae       	std	Z+58, r1	; 0x3a
    4dfc:	dc 01       	movw	r26, r24
    4dfe:	80 e0       	ldi	r24, 0x00	; 0
    4e00:	90 e0       	ldi	r25, 0x00	; 0
    4e02:	5b 96       	adiw	r26, 0x1b	; 27
    4e04:	1c 92       	st	X, r1
    4e06:	5b 97       	sbiw	r26, 0x1b	; 27
    4e08:	01 96       	adiw	r24, 0x01	; 1
    4e0a:	11 96       	adiw	r26, 0x01	; 1
    4e0c:	80 31       	cpi	r24, 0x10	; 16
    4e0e:	91 05       	cpc	r25, r1
    4e10:	c1 f7       	brne	.-16     	; 0x4e02 <_ZN6xbeeSTC2Ev+0x3c>
    4e12:	8a e2       	ldi	r24, 0x2A	; 42
    4e14:	84 8b       	std	Z+20, r24	; 0x14
    4e16:	85 8b       	std	Z+21, r24	; 0x15
    4e18:	08 95       	ret

00004e1a <_ZN6xbeeSTC1Ev>:
    4e1a:	fc 01       	movw	r30, r24
    4e1c:	11 82       	std	Z+1, r1	; 0x01
    4e1e:	10 82       	st	Z, r1
    4e20:	13 82       	std	Z+3, r1	; 0x03
    4e22:	14 82       	std	Z+4, r1	; 0x04
    4e24:	15 82       	std	Z+5, r1	; 0x05
    4e26:	16 82       	std	Z+6, r1	; 0x06
    4e28:	17 82       	std	Z+7, r1	; 0x07
    4e2a:	10 86       	std	Z+8, r1	; 0x08
    4e2c:	11 86       	std	Z+9, r1	; 0x09
    4e2e:	12 86       	std	Z+10, r1	; 0x0a
    4e30:	13 a6       	std	Z+43, r1	; 0x2b
    4e32:	14 a6       	std	Z+44, r1	; 0x2c
    4e34:	15 a6       	std	Z+45, r1	; 0x2d
    4e36:	16 a6       	std	Z+46, r1	; 0x2e
    4e38:	17 a6       	std	Z+47, r1	; 0x2f
    4e3a:	10 aa       	std	Z+48, r1	; 0x30
    4e3c:	11 aa       	std	Z+49, r1	; 0x31
    4e3e:	12 aa       	std	Z+50, r1	; 0x32
    4e40:	13 aa       	std	Z+51, r1	; 0x33
    4e42:	14 aa       	std	Z+52, r1	; 0x34
    4e44:	15 aa       	std	Z+53, r1	; 0x35
    4e46:	16 aa       	std	Z+54, r1	; 0x36
    4e48:	17 aa       	std	Z+55, r1	; 0x37
    4e4a:	10 ae       	std	Z+56, r1	; 0x38
    4e4c:	11 ae       	std	Z+57, r1	; 0x39
    4e4e:	12 ae       	std	Z+58, r1	; 0x3a
    4e50:	dc 01       	movw	r26, r24
    4e52:	80 e0       	ldi	r24, 0x00	; 0
    4e54:	90 e0       	ldi	r25, 0x00	; 0
    4e56:	5b 96       	adiw	r26, 0x1b	; 27
    4e58:	1c 92       	st	X, r1
    4e5a:	5b 97       	sbiw	r26, 0x1b	; 27
    4e5c:	01 96       	adiw	r24, 0x01	; 1
    4e5e:	11 96       	adiw	r26, 0x01	; 1
    4e60:	80 31       	cpi	r24, 0x10	; 16
    4e62:	91 05       	cpc	r25, r1
    4e64:	c1 f7       	brne	.-16     	; 0x4e56 <_ZN6xbeeSTC1Ev+0x3c>
    4e66:	8a e2       	ldi	r24, 0x2A	; 42
    4e68:	84 8b       	std	Z+20, r24	; 0x14
    4e6a:	85 8b       	std	Z+21, r24	; 0x15
    4e6c:	08 95       	ret

00004e6e <_ZN6xbeeST17getSensorReadingsEPh>:
    4e6e:	6f 92       	push	r6
    4e70:	7f 92       	push	r7
    4e72:	8f 92       	push	r8
    4e74:	9f 92       	push	r9
    4e76:	af 92       	push	r10
    4e78:	bf 92       	push	r11
    4e7a:	cf 92       	push	r12
    4e7c:	df 92       	push	r13
    4e7e:	ef 92       	push	r14
    4e80:	ff 92       	push	r15
    4e82:	0f 93       	push	r16
    4e84:	1f 93       	push	r17
    4e86:	cf 93       	push	r28
    4e88:	df 93       	push	r29
    4e8a:	6c 01       	movw	r12, r24
    4e8c:	5b 01       	movw	r10, r22
    4e8e:	dc 01       	movw	r26, r24
    4e90:	5a 96       	adiw	r26, 0x1a	; 26
    4e92:	1c 92       	st	X, r1
    4e94:	1e 92       	st	-X, r1
    4e96:	59 97       	sbiw	r26, 0x19	; 25
    4e98:	58 96       	adiw	r26, 0x18	; 24
    4e9a:	1c 92       	st	X, r1
    4e9c:	1e 92       	st	-X, r1
    4e9e:	57 97       	sbiw	r26, 0x17	; 23
    4ea0:	61 e0       	ldi	r22, 0x01	; 1
    4ea2:	70 e0       	ldi	r23, 0x00	; 0
    4ea4:	f5 01       	movw	r30, r10
    4ea6:	e6 0f       	add	r30, r22
    4ea8:	f7 1f       	adc	r31, r23
    4eaa:	e0 81       	ld	r30, Z
    4eac:	d6 01       	movw	r26, r12
    4eae:	59 96       	adiw	r26, 0x19	; 25
    4eb0:	2d 91       	ld	r18, X+
    4eb2:	3c 91       	ld	r19, X
    4eb4:	5a 97       	sbiw	r26, 0x1a	; 26
    4eb6:	80 e0       	ldi	r24, 0x00	; 0
    4eb8:	90 e0       	ldi	r25, 0x00	; 0
    4eba:	40 e0       	ldi	r20, 0x00	; 0
    4ebc:	50 e0       	ldi	r21, 0x00	; 0
    4ebe:	ee 23       	and	r30, r30
    4ec0:	11 f0       	breq	.+4      	; 0x4ec6 <_ZN6xbeeST17getSensorReadingsEPh+0x58>
    4ec2:	41 e0       	ldi	r20, 0x01	; 1
    4ec4:	50 e0       	ldi	r21, 0x00	; 0
    4ec6:	24 0f       	add	r18, r20
    4ec8:	35 1f       	adc	r19, r21
    4eca:	e6 95       	lsr	r30
    4ecc:	01 96       	adiw	r24, 0x01	; 1
    4ece:	88 30       	cpi	r24, 0x08	; 8
    4ed0:	91 05       	cpc	r25, r1
    4ed2:	99 f7       	brne	.-26     	; 0x4eba <_ZN6xbeeST17getSensorReadingsEPh+0x4c>
    4ed4:	f6 01       	movw	r30, r12
    4ed6:	32 8f       	std	Z+26, r19	; 0x1a
    4ed8:	21 8f       	std	Z+25, r18	; 0x19
    4eda:	6f 5f       	subi	r22, 0xFF	; 255
    4edc:	7f 4f       	sbci	r23, 0xFF	; 255
    4ede:	63 30       	cpi	r22, 0x03	; 3
    4ee0:	71 05       	cpc	r23, r1
    4ee2:	01 f7       	brne	.-64     	; 0x4ea4 <_ZN6xbeeST17getSensorReadingsEPh+0x36>
    4ee4:	10 8e       	std	Z+24, r1	; 0x18
    4ee6:	17 8a       	std	Z+23, r1	; 0x17
    4ee8:	d5 01       	movw	r26, r10
    4eea:	13 96       	adiw	r26, 0x03	; 3
    4eec:	8c 91       	ld	r24, X
    4eee:	60 e0       	ldi	r22, 0x00	; 0
    4ef0:	70 e0       	ldi	r23, 0x00	; 0
    4ef2:	40 e0       	ldi	r20, 0x00	; 0
    4ef4:	50 e0       	ldi	r21, 0x00	; 0
    4ef6:	90 e0       	ldi	r25, 0x00	; 0
    4ef8:	9c 01       	movw	r18, r24
    4efa:	21 70       	andi	r18, 0x01	; 1
    4efc:	30 70       	andi	r19, 0x00	; 0
    4efe:	42 0f       	add	r20, r18
    4f00:	53 1f       	adc	r21, r19
    4f02:	95 95       	asr	r25
    4f04:	87 95       	ror	r24
    4f06:	6f 5f       	subi	r22, 0xFF	; 255
    4f08:	7f 4f       	sbci	r23, 0xFF	; 255
    4f0a:	68 30       	cpi	r22, 0x08	; 8
    4f0c:	71 05       	cpc	r23, r1
    4f0e:	99 f7       	brne	.-26     	; 0x4ef6 <_ZN6xbeeST17getSensorReadingsEPh+0x88>
    4f10:	f6 01       	movw	r30, r12
    4f12:	50 8f       	std	Z+24, r21	; 0x18
    4f14:	47 8b       	std	Z+23, r20	; 0x17
    4f16:	81 8d       	ldd	r24, Z+25	; 0x19
    4f18:	92 8d       	ldd	r25, Z+26	; 0x1a
    4f1a:	89 2b       	or	r24, r25
    4f1c:	21 f4       	brne	.+8      	; 0x4f26 <_ZN6xbeeST17getSensorReadingsEPh+0xb8>
    4f1e:	86 01       	movw	r16, r12
    4f20:	c0 e0       	ldi	r28, 0x00	; 0
    4f22:	d0 e0       	ldi	r29, 0x00	; 0
    4f24:	1d c0       	rjmp	.+58     	; 0x4f60 <_ZN6xbeeST17getSensorReadingsEPh+0xf2>
    4f26:	f5 01       	movw	r30, r10
    4f28:	40 e0       	ldi	r20, 0x00	; 0
    4f2a:	50 e0       	ldi	r21, 0x00	; 0
    4f2c:	95 81       	ldd	r25, Z+5	; 0x05
    4f2e:	9a 01       	movw	r18, r20
    4f30:	48 5f       	subi	r20, 0xF8	; 248
    4f32:	5f 4f       	sbci	r21, 0xFF	; 255
    4f34:	25 5e       	subi	r18, 0xE5	; 229
    4f36:	3f 4f       	sbci	r19, 0xFF	; 255
    4f38:	d6 01       	movw	r26, r12
    4f3a:	a2 0f       	add	r26, r18
    4f3c:	b3 1f       	adc	r27, r19
    4f3e:	2b 51       	subi	r18, 0x1B	; 27
    4f40:	30 40       	sbci	r19, 0x00	; 0
    4f42:	06 c0       	rjmp	.+12     	; 0x4f50 <_ZN6xbeeST17getSensorReadingsEPh+0xe2>
    4f44:	89 2f       	mov	r24, r25
    4f46:	81 70       	andi	r24, 0x01	; 1
    4f48:	8d 93       	st	X+, r24
    4f4a:	96 95       	lsr	r25
    4f4c:	2f 5f       	subi	r18, 0xFF	; 255
    4f4e:	3f 4f       	sbci	r19, 0xFF	; 255
    4f50:	24 17       	cp	r18, r20
    4f52:	35 07       	cpc	r19, r21
    4f54:	bc f3       	brlt	.-18     	; 0x4f44 <_ZN6xbeeST17getSensorReadingsEPh+0xd6>
    4f56:	31 97       	sbiw	r30, 0x01	; 1
    4f58:	40 31       	cpi	r20, 0x10	; 16
    4f5a:	51 05       	cpc	r21, r1
    4f5c:	01 f3       	breq	.-64     	; 0x4f1e <_ZN6xbeeST17getSensorReadingsEPh+0xb0>
    4f5e:	e6 cf       	rjmp	.-52     	; 0x4f2c <_ZN6xbeeST17getSensorReadingsEPh+0xbe>
    4f60:	8f e7       	ldi	r24, 0x7F	; 127
    4f62:	99 e0       	ldi	r25, 0x09	; 9
    4f64:	6c ef       	ldi	r22, 0xFC	; 252
    4f66:	73 e0       	ldi	r23, 0x03	; 3
    4f68:	0e 94 04 42 	call	0x8408	; 0x8408 <_ZN5Print7printlnEPKc>
    4f6c:	8f e7       	ldi	r24, 0x7F	; 127
    4f6e:	99 e0       	ldi	r25, 0x09	; 9
    4f70:	d8 01       	movw	r26, r16
    4f72:	5b 96       	adiw	r26, 0x1b	; 27
    4f74:	6c 91       	ld	r22, X
    4f76:	40 e1       	ldi	r20, 0x10	; 16
    4f78:	50 e0       	ldi	r21, 0x00	; 0
    4f7a:	0e 94 ea 41 	call	0x83d4	; 0x83d4 <_ZN5Print7printlnEhi>
    4f7e:	21 96       	adiw	r28, 0x01	; 1
    4f80:	0f 5f       	subi	r16, 0xFF	; 255
    4f82:	1f 4f       	sbci	r17, 0xFF	; 255
    4f84:	c0 31       	cpi	r28, 0x10	; 16
    4f86:	d1 05       	cpc	r29, r1
    4f88:	59 f7       	brne	.-42     	; 0x4f60 <_ZN6xbeeST17getSensorReadingsEPh+0xf2>
    4f8a:	f6 01       	movw	r30, r12
    4f8c:	87 89       	ldd	r24, Z+23	; 0x17
    4f8e:	90 8d       	ldd	r25, Z+24	; 0x18
    4f90:	89 2b       	or	r24, r25
    4f92:	09 f4       	brne	.+2      	; 0x4f96 <_ZN6xbeeST17getSensorReadingsEPh+0x128>
    4f94:	ef c0       	rjmp	.+478    	; 0x5174 <_ZN6xbeeST17getSensorReadingsEPh+0x306>
    4f96:	81 8d       	ldd	r24, Z+25	; 0x19
    4f98:	92 8d       	ldd	r25, Z+26	; 0x1a
    4f9a:	96 01       	movw	r18, r12
    4f9c:	25 5d       	subi	r18, 0xD5	; 213
    4f9e:	3f 4f       	sbci	r19, 0xFF	; 255
    4fa0:	89 2b       	or	r24, r25
    4fa2:	21 f0       	breq	.+8      	; 0x4fac <_ZN6xbeeST17getSensorReadingsEPh+0x13e>
    4fa4:	39 01       	movw	r6, r18
    4fa6:	88 24       	eor	r8, r8
    4fa8:	99 24       	eor	r9, r9
    4faa:	67 c0       	rjmp	.+206    	; 0x507a <_ZN6xbeeST17getSensorReadingsEPh+0x20c>
    4fac:	39 01       	movw	r6, r18
    4fae:	88 24       	eor	r8, r8
    4fb0:	99 24       	eor	r9, r9
    4fb2:	d3 c0       	rjmp	.+422    	; 0x515a <_ZN6xbeeST17getSensorReadingsEPh+0x2ec>
    4fb4:	d5 01       	movw	r26, r10
    4fb6:	14 96       	adiw	r26, 0x04	; 4
    4fb8:	dc 91       	ld	r29, X
    4fba:	c0 e0       	ldi	r28, 0x00	; 0
    4fbc:	7e 01       	movw	r14, r28
    4fbe:	00 27       	eor	r16, r16
    4fc0:	f7 fc       	sbrc	r15, 7
    4fc2:	00 95       	com	r16
    4fc4:	10 2f       	mov	r17, r16
    4fc6:	8f e7       	ldi	r24, 0x7F	; 127
    4fc8:	99 e0       	ldi	r25, 0x09	; 9
    4fca:	67 e0       	ldi	r22, 0x07	; 7
    4fcc:	74 e0       	ldi	r23, 0x04	; 4
    4fce:	0e 94 04 42 	call	0x8408	; 0x8408 <_ZN5Print7printlnEPKc>
    4fd2:	8f e7       	ldi	r24, 0x7F	; 127
    4fd4:	99 e0       	ldi	r25, 0x09	; 9
    4fd6:	b8 01       	movw	r22, r16
    4fd8:	a7 01       	movw	r20, r14
    4fda:	2a e0       	ldi	r18, 0x0A	; 10
    4fdc:	30 e0       	ldi	r19, 0x00	; 0
    4fde:	0e 94 c6 41 	call	0x838c	; 0x838c <_ZN5Print7printlnEmi>
    4fe2:	f5 01       	movw	r30, r10
    4fe4:	85 81       	ldd	r24, Z+5	; 0x05
    4fe6:	e8 0e       	add	r14, r24
    4fe8:	f1 1c       	adc	r15, r1
    4fea:	01 1d       	adc	r16, r1
    4fec:	11 1d       	adc	r17, r1
    4fee:	8f e7       	ldi	r24, 0x7F	; 127
    4ff0:	99 e0       	ldi	r25, 0x09	; 9
    4ff2:	6f e0       	ldi	r22, 0x0F	; 15
    4ff4:	74 e0       	ldi	r23, 0x04	; 4
    4ff6:	0e 94 04 42 	call	0x8408	; 0x8408 <_ZN5Print7printlnEPKc>
    4ffa:	8f e7       	ldi	r24, 0x7F	; 127
    4ffc:	99 e0       	ldi	r25, 0x09	; 9
    4ffe:	b8 01       	movw	r22, r16
    5000:	a7 01       	movw	r20, r14
    5002:	2a e0       	ldi	r18, 0x0A	; 10
    5004:	30 e0       	ldi	r19, 0x00	; 0
    5006:	0e 94 c6 41 	call	0x838c	; 0x838c <_ZN5Print7printlnEmi>
    500a:	c8 01       	movw	r24, r16
    500c:	b7 01       	movw	r22, r14
    500e:	20 eb       	ldi	r18, 0xB0	; 176
    5010:	34 e0       	ldi	r19, 0x04	; 4
    5012:	40 e0       	ldi	r20, 0x00	; 0
    5014:	50 e0       	ldi	r21, 0x00	; 0
    5016:	0e 94 eb 4e 	call	0x9dd6	; 0x9dd6 <__mulsi3>
    501a:	3a e0       	ldi	r19, 0x0A	; 10
    501c:	96 95       	lsr	r25
    501e:	87 95       	ror	r24
    5020:	77 95       	ror	r23
    5022:	67 95       	ror	r22
    5024:	3a 95       	dec	r19
    5026:	d1 f7       	brne	.-12     	; 0x501c <_ZN6xbeeST17getSensorReadingsEPh+0x1ae>
    5028:	d3 01       	movw	r26, r6
    502a:	6d 93       	st	X+, r22
    502c:	7d 93       	st	X+, r23
    502e:	8d 93       	st	X+, r24
    5030:	9c 93       	st	X, r25
    5032:	13 97       	sbiw	r26, 0x03	; 3
    5034:	8f e7       	ldi	r24, 0x7F	; 127
    5036:	99 e0       	ldi	r25, 0x09	; 9
    5038:	67 e1       	ldi	r22, 0x17	; 23
    503a:	74 e0       	ldi	r23, 0x04	; 4
    503c:	0e 94 04 42 	call	0x8408	; 0x8408 <_ZN5Print7printlnEPKc>
    5040:	8f e7       	ldi	r24, 0x7F	; 127
    5042:	99 e0       	ldi	r25, 0x09	; 9
    5044:	b8 01       	movw	r22, r16
    5046:	a7 01       	movw	r20, r14
    5048:	2a e0       	ldi	r18, 0x0A	; 10
    504a:	30 e0       	ldi	r19, 0x00	; 0
    504c:	0e 94 c6 41 	call	0x838c	; 0x838c <_ZN5Print7printlnEmi>
    5050:	8f e7       	ldi	r24, 0x7F	; 127
    5052:	99 e0       	ldi	r25, 0x09	; 9
    5054:	6f e1       	ldi	r22, 0x1F	; 31
    5056:	74 e0       	ldi	r23, 0x04	; 4
    5058:	0e 94 04 42 	call	0x8408	; 0x8408 <_ZN5Print7printlnEPKc>
    505c:	f3 01       	movw	r30, r6
    505e:	41 91       	ld	r20, Z+
    5060:	51 91       	ld	r21, Z+
    5062:	61 91       	ld	r22, Z+
    5064:	71 91       	ld	r23, Z+
    5066:	3f 01       	movw	r6, r30
    5068:	8f e7       	ldi	r24, 0x7F	; 127
    506a:	99 e0       	ldi	r25, 0x09	; 9
    506c:	2a e0       	ldi	r18, 0x0A	; 10
    506e:	30 e0       	ldi	r19, 0x00	; 0
    5070:	0e 94 1a 42 	call	0x8434	; 0x8434 <_ZN5Print7printlnEli>
    5074:	08 94       	sec
    5076:	81 1c       	adc	r8, r1
    5078:	91 1c       	adc	r9, r1
    507a:	82 e0       	ldi	r24, 0x02	; 2
    507c:	90 e0       	ldi	r25, 0x00	; 0
    507e:	a8 0e       	add	r10, r24
    5080:	b9 1e       	adc	r11, r25
    5082:	d6 01       	movw	r26, r12
    5084:	57 96       	adiw	r26, 0x17	; 23
    5086:	8d 91       	ld	r24, X+
    5088:	9c 91       	ld	r25, X
    508a:	58 97       	sbiw	r26, 0x18	; 24
    508c:	88 16       	cp	r8, r24
    508e:	99 06       	cpc	r9, r25
    5090:	0c f4       	brge	.+2      	; 0x5094 <_ZN6xbeeST17getSensorReadingsEPh+0x226>
    5092:	90 cf       	rjmp	.-224    	; 0x4fb4 <_ZN6xbeeST17getSensorReadingsEPh+0x146>
    5094:	6f c0       	rjmp	.+222    	; 0x5174 <_ZN6xbeeST17getSensorReadingsEPh+0x306>
    5096:	f5 01       	movw	r30, r10
    5098:	d2 81       	ldd	r29, Z+2	; 0x02
    509a:	c0 e0       	ldi	r28, 0x00	; 0
    509c:	7e 01       	movw	r14, r28
    509e:	00 27       	eor	r16, r16
    50a0:	f7 fc       	sbrc	r15, 7
    50a2:	00 95       	com	r16
    50a4:	10 2f       	mov	r17, r16
    50a6:	8f e7       	ldi	r24, 0x7F	; 127
    50a8:	99 e0       	ldi	r25, 0x09	; 9
    50aa:	67 e0       	ldi	r22, 0x07	; 7
    50ac:	74 e0       	ldi	r23, 0x04	; 4
    50ae:	0e 94 04 42 	call	0x8408	; 0x8408 <_ZN5Print7printlnEPKc>
    50b2:	8f e7       	ldi	r24, 0x7F	; 127
    50b4:	99 e0       	ldi	r25, 0x09	; 9
    50b6:	b8 01       	movw	r22, r16
    50b8:	a7 01       	movw	r20, r14
    50ba:	2a e0       	ldi	r18, 0x0A	; 10
    50bc:	30 e0       	ldi	r19, 0x00	; 0
    50be:	0e 94 c6 41 	call	0x838c	; 0x838c <_ZN5Print7printlnEmi>
    50c2:	d5 01       	movw	r26, r10
    50c4:	13 96       	adiw	r26, 0x03	; 3
    50c6:	8c 91       	ld	r24, X
    50c8:	e8 0e       	add	r14, r24
    50ca:	f1 1c       	adc	r15, r1
    50cc:	01 1d       	adc	r16, r1
    50ce:	11 1d       	adc	r17, r1
    50d0:	8f e7       	ldi	r24, 0x7F	; 127
    50d2:	99 e0       	ldi	r25, 0x09	; 9
    50d4:	6f e0       	ldi	r22, 0x0F	; 15
    50d6:	74 e0       	ldi	r23, 0x04	; 4
    50d8:	0e 94 04 42 	call	0x8408	; 0x8408 <_ZN5Print7printlnEPKc>
    50dc:	8f e7       	ldi	r24, 0x7F	; 127
    50de:	99 e0       	ldi	r25, 0x09	; 9
    50e0:	b8 01       	movw	r22, r16
    50e2:	a7 01       	movw	r20, r14
    50e4:	2a e0       	ldi	r18, 0x0A	; 10
    50e6:	30 e0       	ldi	r19, 0x00	; 0
    50e8:	0e 94 c6 41 	call	0x838c	; 0x838c <_ZN5Print7printlnEmi>
    50ec:	c8 01       	movw	r24, r16
    50ee:	b7 01       	movw	r22, r14
    50f0:	20 eb       	ldi	r18, 0xB0	; 176
    50f2:	34 e0       	ldi	r19, 0x04	; 4
    50f4:	40 e0       	ldi	r20, 0x00	; 0
    50f6:	50 e0       	ldi	r21, 0x00	; 0
    50f8:	0e 94 eb 4e 	call	0x9dd6	; 0x9dd6 <__mulsi3>
    50fc:	2a e0       	ldi	r18, 0x0A	; 10
    50fe:	96 95       	lsr	r25
    5100:	87 95       	ror	r24
    5102:	77 95       	ror	r23
    5104:	67 95       	ror	r22
    5106:	2a 95       	dec	r18
    5108:	d1 f7       	brne	.-12     	; 0x50fe <_ZN6xbeeST17getSensorReadingsEPh+0x290>
    510a:	f3 01       	movw	r30, r6
    510c:	60 83       	st	Z, r22
    510e:	71 83       	std	Z+1, r23	; 0x01
    5110:	82 83       	std	Z+2, r24	; 0x02
    5112:	93 83       	std	Z+3, r25	; 0x03
    5114:	8f e7       	ldi	r24, 0x7F	; 127
    5116:	99 e0       	ldi	r25, 0x09	; 9
    5118:	67 e1       	ldi	r22, 0x17	; 23
    511a:	74 e0       	ldi	r23, 0x04	; 4
    511c:	0e 94 04 42 	call	0x8408	; 0x8408 <_ZN5Print7printlnEPKc>
    5120:	8f e7       	ldi	r24, 0x7F	; 127
    5122:	99 e0       	ldi	r25, 0x09	; 9
    5124:	b8 01       	movw	r22, r16
    5126:	a7 01       	movw	r20, r14
    5128:	2a e0       	ldi	r18, 0x0A	; 10
    512a:	30 e0       	ldi	r19, 0x00	; 0
    512c:	0e 94 c6 41 	call	0x838c	; 0x838c <_ZN5Print7printlnEmi>
    5130:	8f e7       	ldi	r24, 0x7F	; 127
    5132:	99 e0       	ldi	r25, 0x09	; 9
    5134:	6f e1       	ldi	r22, 0x1F	; 31
    5136:	74 e0       	ldi	r23, 0x04	; 4
    5138:	0e 94 04 42 	call	0x8408	; 0x8408 <_ZN5Print7printlnEPKc>
    513c:	d3 01       	movw	r26, r6
    513e:	4d 91       	ld	r20, X+
    5140:	5d 91       	ld	r21, X+
    5142:	6d 91       	ld	r22, X+
    5144:	7d 91       	ld	r23, X+
    5146:	3d 01       	movw	r6, r26
    5148:	8f e7       	ldi	r24, 0x7F	; 127
    514a:	99 e0       	ldi	r25, 0x09	; 9
    514c:	2a e0       	ldi	r18, 0x0A	; 10
    514e:	30 e0       	ldi	r19, 0x00	; 0
    5150:	0e 94 1a 42 	call	0x8434	; 0x8434 <_ZN5Print7printlnEli>
    5154:	08 94       	sec
    5156:	81 1c       	adc	r8, r1
    5158:	91 1c       	adc	r9, r1
    515a:	e2 e0       	ldi	r30, 0x02	; 2
    515c:	f0 e0       	ldi	r31, 0x00	; 0
    515e:	ae 0e       	add	r10, r30
    5160:	bf 1e       	adc	r11, r31
    5162:	d6 01       	movw	r26, r12
    5164:	57 96       	adiw	r26, 0x17	; 23
    5166:	8d 91       	ld	r24, X+
    5168:	9c 91       	ld	r25, X
    516a:	58 97       	sbiw	r26, 0x18	; 24
    516c:	88 16       	cp	r8, r24
    516e:	99 06       	cpc	r9, r25
    5170:	0c f4       	brge	.+2      	; 0x5174 <_ZN6xbeeST17getSensorReadingsEPh+0x306>
    5172:	91 cf       	rjmp	.-222    	; 0x5096 <_ZN6xbeeST17getSensorReadingsEPh+0x228>
    5174:	df 91       	pop	r29
    5176:	cf 91       	pop	r28
    5178:	1f 91       	pop	r17
    517a:	0f 91       	pop	r16
    517c:	ff 90       	pop	r15
    517e:	ef 90       	pop	r14
    5180:	df 90       	pop	r13
    5182:	cf 90       	pop	r12
    5184:	bf 90       	pop	r11
    5186:	af 90       	pop	r10
    5188:	9f 90       	pop	r9
    518a:	8f 90       	pop	r8
    518c:	7f 90       	pop	r7
    518e:	6f 90       	pop	r6
    5190:	08 95       	ret

00005192 <_ZN6xbeeST7getDataEPhi>:
    5192:	2f 92       	push	r2
    5194:	3f 92       	push	r3
    5196:	4f 92       	push	r4
    5198:	5f 92       	push	r5
    519a:	6f 92       	push	r6
    519c:	7f 92       	push	r7
    519e:	8f 92       	push	r8
    51a0:	9f 92       	push	r9
    51a2:	af 92       	push	r10
    51a4:	bf 92       	push	r11
    51a6:	cf 92       	push	r12
    51a8:	df 92       	push	r13
    51aa:	ef 92       	push	r14
    51ac:	ff 92       	push	r15
    51ae:	0f 93       	push	r16
    51b0:	1f 93       	push	r17
    51b2:	cf 93       	push	r28
    51b4:	df 93       	push	r29
    51b6:	6c 01       	movw	r12, r24
    51b8:	1b 01       	movw	r2, r22
    51ba:	8a 01       	movw	r16, r20
    51bc:	0e 94 e2 4b 	call	0x97c4	; 0x97c4 <millis>
    51c0:	2b 01       	movw	r4, r22
    51c2:	3c 01       	movw	r6, r24
    51c4:	48 01       	movw	r8, r16
    51c6:	aa 24       	eor	r10, r10
    51c8:	bb 24       	eor	r11, r11
    51ca:	8f e7       	ldi	r24, 0x7F	; 127
    51cc:	99 e0       	ldi	r25, 0x09	; 9
    51ce:	0e 94 e3 3e 	call	0x7dc6	; 0x7dc6 <_ZN14HardwareSerial9availableEv>
    51d2:	18 16       	cp	r1, r24
    51d4:	19 06       	cpc	r1, r25
    51d6:	0c f0       	brlt	.+2      	; 0x51da <_ZN6xbeeST7getDataEPhi+0x48>
    51d8:	70 c1       	rjmp	.+736    	; 0x54ba <_ZN6xbeeST7getDataEPhi+0x328>
    51da:	8f e7       	ldi	r24, 0x7F	; 127
    51dc:	99 e0       	ldi	r25, 0x09	; 9
    51de:	0e 94 0e 3f 	call	0x7e1c	; 0x7e1c <_ZN14HardwareSerial4readEv>
    51e2:	18 2f       	mov	r17, r24
    51e4:	0e 94 e2 4b 	call	0x97c4	; 0x97c4 <millis>
    51e8:	64 19       	sub	r22, r4
    51ea:	75 09       	sbc	r23, r5
    51ec:	86 09       	sbc	r24, r6
    51ee:	97 09       	sbc	r25, r7
    51f0:	86 16       	cp	r8, r22
    51f2:	97 06       	cpc	r9, r23
    51f4:	a8 06       	cpc	r10, r24
    51f6:	b9 06       	cpc	r11, r25
    51f8:	08 f4       	brcc	.+2      	; 0x51fc <_ZN6xbeeST7getDataEPhi+0x6a>
    51fa:	5f c1       	rjmp	.+702    	; 0x54ba <_ZN6xbeeST7getDataEPhi+0x328>
    51fc:	1e 37       	cpi	r17, 0x7E	; 126
    51fe:	29 f7       	brne	.-54     	; 0x51ca <_ZN6xbeeST7getDataEPhi+0x38>
    5200:	0e 94 e2 4b 	call	0x97c4	; 0x97c4 <millis>
    5204:	7b 01       	movw	r14, r22
    5206:	8c 01       	movw	r16, r24
    5208:	0c c0       	rjmp	.+24     	; 0x5222 <_ZN6xbeeST7getDataEPhi+0x90>
    520a:	0e 94 e2 4b 	call	0x97c4	; 0x97c4 <millis>
    520e:	6e 19       	sub	r22, r14
    5210:	7f 09       	sbc	r23, r15
    5212:	80 0b       	sbc	r24, r16
    5214:	91 0b       	sbc	r25, r17
    5216:	86 16       	cp	r8, r22
    5218:	97 06       	cpc	r9, r23
    521a:	a8 06       	cpc	r10, r24
    521c:	b9 06       	cpc	r11, r25
    521e:	08 f4       	brcc	.+2      	; 0x5222 <_ZN6xbeeST7getDataEPhi+0x90>
    5220:	4c c1       	rjmp	.+664    	; 0x54ba <_ZN6xbeeST7getDataEPhi+0x328>
    5222:	8f e7       	ldi	r24, 0x7F	; 127
    5224:	99 e0       	ldi	r25, 0x09	; 9
    5226:	0e 94 e3 3e 	call	0x7dc6	; 0x7dc6 <_ZN14HardwareSerial9availableEv>
    522a:	02 97       	sbiw	r24, 0x02	; 2
    522c:	74 f3       	brlt	.-36     	; 0x520a <_ZN6xbeeST7getDataEPhi+0x78>
    522e:	8f e7       	ldi	r24, 0x7F	; 127
    5230:	99 e0       	ldi	r25, 0x09	; 9
    5232:	0e 94 e3 3e 	call	0x7dc6	; 0x7dc6 <_ZN14HardwareSerial9availableEv>
    5236:	02 97       	sbiw	r24, 0x02	; 2
    5238:	84 f0       	brlt	.+32     	; 0x525a <_ZN6xbeeST7getDataEPhi+0xc8>
    523a:	8f e7       	ldi	r24, 0x7F	; 127
    523c:	99 e0       	ldi	r25, 0x09	; 9
    523e:	0e 94 0e 3f 	call	0x7e1c	; 0x7e1c <_ZN14HardwareSerial4readEv>
    5242:	18 2f       	mov	r17, r24
    5244:	8f e7       	ldi	r24, 0x7F	; 127
    5246:	99 e0       	ldi	r25, 0x09	; 9
    5248:	0e 94 0e 3f 	call	0x7e1c	; 0x7e1c <_ZN14HardwareSerial4readEv>
    524c:	31 2f       	mov	r19, r17
    524e:	20 e0       	ldi	r18, 0x00	; 0
    5250:	28 0f       	add	r18, r24
    5252:	39 1f       	adc	r19, r25
    5254:	f6 01       	movw	r30, r12
    5256:	31 83       	std	Z+1, r19	; 0x01
    5258:	20 83       	st	Z, r18
    525a:	f6 01       	movw	r30, r12
    525c:	80 81       	ld	r24, Z
    525e:	91 81       	ldd	r25, Z+1	; 0x01
    5260:	18 16       	cp	r1, r24
    5262:	19 06       	cpc	r1, r25
    5264:	0c f0       	brlt	.+2      	; 0x5268 <_ZN6xbeeST7getDataEPhi+0xd6>
    5266:	27 c1       	rjmp	.+590    	; 0x54b6 <_ZN6xbeeST7getDataEPhi+0x324>
    5268:	8a e5       	ldi	r24, 0x5A	; 90
    526a:	f6 01       	movw	r30, r12
    526c:	82 83       	std	Z+2, r24	; 0x02
    526e:	0e 94 e2 4b 	call	0x97c4	; 0x97c4 <millis>
    5272:	7b 01       	movw	r14, r22
    5274:	8c 01       	movw	r16, r24
    5276:	0c c0       	rjmp	.+24     	; 0x5290 <_ZN6xbeeST7getDataEPhi+0xfe>
    5278:	0e 94 e2 4b 	call	0x97c4	; 0x97c4 <millis>
    527c:	6e 19       	sub	r22, r14
    527e:	7f 09       	sbc	r23, r15
    5280:	80 0b       	sbc	r24, r16
    5282:	91 0b       	sbc	r25, r17
    5284:	86 16       	cp	r8, r22
    5286:	97 06       	cpc	r9, r23
    5288:	a8 06       	cpc	r10, r24
    528a:	b9 06       	cpc	r11, r25
    528c:	08 f4       	brcc	.+2      	; 0x5290 <_ZN6xbeeST7getDataEPhi+0xfe>
    528e:	15 c1       	rjmp	.+554    	; 0x54ba <_ZN6xbeeST7getDataEPhi+0x328>
    5290:	8f e7       	ldi	r24, 0x7F	; 127
    5292:	99 e0       	ldi	r25, 0x09	; 9
    5294:	0e 94 e3 3e 	call	0x7dc6	; 0x7dc6 <_ZN14HardwareSerial9availableEv>
    5298:	18 16       	cp	r1, r24
    529a:	19 06       	cpc	r1, r25
    529c:	6c f7       	brge	.-38     	; 0x5278 <_ZN6xbeeST7getDataEPhi+0xe6>
    529e:	8f e7       	ldi	r24, 0x7F	; 127
    52a0:	99 e0       	ldi	r25, 0x09	; 9
    52a2:	0e 94 e3 3e 	call	0x7dc6	; 0x7dc6 <_ZN14HardwareSerial9availableEv>
    52a6:	18 16       	cp	r1, r24
    52a8:	19 06       	cpc	r1, r25
    52aa:	0c f0       	brlt	.+2      	; 0x52ae <_ZN6xbeeST7getDataEPhi+0x11c>
    52ac:	06 c1       	rjmp	.+524    	; 0x54ba <_ZN6xbeeST7getDataEPhi+0x328>
    52ae:	8f e7       	ldi	r24, 0x7F	; 127
    52b0:	99 e0       	ldi	r25, 0x09	; 9
    52b2:	0e 94 0e 3f 	call	0x7e1c	; 0x7e1c <_ZN14HardwareSerial4readEv>
    52b6:	f6 01       	movw	r30, r12
    52b8:	82 83       	std	Z+2, r24	; 0x02
    52ba:	13 82       	std	Z+3, r1	; 0x03
    52bc:	14 82       	std	Z+4, r1	; 0x04
    52be:	15 82       	std	Z+5, r1	; 0x05
    52c0:	16 82       	std	Z+6, r1	; 0x06
    52c2:	17 82       	std	Z+7, r1	; 0x07
    52c4:	10 86       	std	Z+8, r1	; 0x08
    52c6:	11 86       	std	Z+9, r1	; 0x09
    52c8:	12 86       	std	Z+10, r1	; 0x0a
    52ca:	0e 94 e2 4b 	call	0x97c4	; 0x97c4 <millis>
    52ce:	7b 01       	movw	r14, r22
    52d0:	8c 01       	movw	r16, r24
    52d2:	0c c0       	rjmp	.+24     	; 0x52ec <_ZN6xbeeST7getDataEPhi+0x15a>
    52d4:	0e 94 e2 4b 	call	0x97c4	; 0x97c4 <millis>
    52d8:	6e 19       	sub	r22, r14
    52da:	7f 09       	sbc	r23, r15
    52dc:	80 0b       	sbc	r24, r16
    52de:	91 0b       	sbc	r25, r17
    52e0:	86 16       	cp	r8, r22
    52e2:	97 06       	cpc	r9, r23
    52e4:	a8 06       	cpc	r10, r24
    52e6:	b9 06       	cpc	r11, r25
    52e8:	08 f4       	brcc	.+2      	; 0x52ec <_ZN6xbeeST7getDataEPhi+0x15a>
    52ea:	e7 c0       	rjmp	.+462    	; 0x54ba <_ZN6xbeeST7getDataEPhi+0x328>
    52ec:	8f e7       	ldi	r24, 0x7F	; 127
    52ee:	99 e0       	ldi	r25, 0x09	; 9
    52f0:	0e 94 e3 3e 	call	0x7dc6	; 0x7dc6 <_ZN14HardwareSerial9availableEv>
    52f4:	08 97       	sbiw	r24, 0x08	; 8
    52f6:	74 f3       	brlt	.-36     	; 0x52d4 <_ZN6xbeeST7getDataEPhi+0x142>
    52f8:	8f e7       	ldi	r24, 0x7F	; 127
    52fa:	99 e0       	ldi	r25, 0x09	; 9
    52fc:	0e 94 e3 3e 	call	0x7dc6	; 0x7dc6 <_ZN14HardwareSerial9availableEv>
    5300:	08 97       	sbiw	r24, 0x08	; 8
    5302:	0c f4       	brge	.+2      	; 0x5306 <_ZN6xbeeST7getDataEPhi+0x174>
    5304:	da c0       	rjmp	.+436    	; 0x54ba <_ZN6xbeeST7getDataEPhi+0x328>
    5306:	00 e0       	ldi	r16, 0x00	; 0
    5308:	10 e0       	ldi	r17, 0x00	; 0
    530a:	c8 e1       	ldi	r28, 0x18	; 24
    530c:	d0 e0       	ldi	r29, 0x00	; 0
    530e:	8f e7       	ldi	r24, 0x7F	; 127
    5310:	99 e0       	ldi	r25, 0x09	; 9
    5312:	0e 94 0e 3f 	call	0x7e1c	; 0x7e1c <_ZN14HardwareSerial4readEv>
    5316:	28 2f       	mov	r18, r24
    5318:	30 e0       	ldi	r19, 0x00	; 0
    531a:	40 e0       	ldi	r20, 0x00	; 0
    531c:	50 e0       	ldi	r21, 0x00	; 0
    531e:	04 30       	cpi	r16, 0x04	; 4
    5320:	11 05       	cpc	r17, r1
    5322:	b4 f4       	brge	.+44     	; 0x5350 <_ZN6xbeeST7getDataEPhi+0x1be>
    5324:	0c 2e       	mov	r0, r28
    5326:	04 c0       	rjmp	.+8      	; 0x5330 <_ZN6xbeeST7getDataEPhi+0x19e>
    5328:	22 0f       	add	r18, r18
    532a:	33 1f       	adc	r19, r19
    532c:	44 1f       	adc	r20, r20
    532e:	55 1f       	adc	r21, r21
    5330:	0a 94       	dec	r0
    5332:	d2 f7       	brpl	.-12     	; 0x5328 <_ZN6xbeeST7getDataEPhi+0x196>
    5334:	f6 01       	movw	r30, r12
    5336:	83 81       	ldd	r24, Z+3	; 0x03
    5338:	94 81       	ldd	r25, Z+4	; 0x04
    533a:	a5 81       	ldd	r26, Z+5	; 0x05
    533c:	b6 81       	ldd	r27, Z+6	; 0x06
    533e:	82 0f       	add	r24, r18
    5340:	93 1f       	adc	r25, r19
    5342:	a4 1f       	adc	r26, r20
    5344:	b5 1f       	adc	r27, r21
    5346:	83 83       	std	Z+3, r24	; 0x03
    5348:	94 83       	std	Z+4, r25	; 0x04
    534a:	a5 83       	std	Z+5, r26	; 0x05
    534c:	b6 83       	std	Z+6, r27	; 0x06
    534e:	17 c0       	rjmp	.+46     	; 0x537e <_ZN6xbeeST7getDataEPhi+0x1ec>
    5350:	a0 96       	adiw	r28, 0x20	; 32
    5352:	0c 2e       	mov	r0, r28
    5354:	04 c0       	rjmp	.+8      	; 0x535e <_ZN6xbeeST7getDataEPhi+0x1cc>
    5356:	22 0f       	add	r18, r18
    5358:	33 1f       	adc	r19, r19
    535a:	44 1f       	adc	r20, r20
    535c:	55 1f       	adc	r21, r21
    535e:	0a 94       	dec	r0
    5360:	d2 f7       	brpl	.-12     	; 0x5356 <_ZN6xbeeST7getDataEPhi+0x1c4>
    5362:	a0 97       	sbiw	r28, 0x20	; 32
    5364:	f6 01       	movw	r30, r12
    5366:	87 81       	ldd	r24, Z+7	; 0x07
    5368:	90 85       	ldd	r25, Z+8	; 0x08
    536a:	a1 85       	ldd	r26, Z+9	; 0x09
    536c:	b2 85       	ldd	r27, Z+10	; 0x0a
    536e:	82 0f       	add	r24, r18
    5370:	93 1f       	adc	r25, r19
    5372:	a4 1f       	adc	r26, r20
    5374:	b5 1f       	adc	r27, r21
    5376:	87 83       	std	Z+7, r24	; 0x07
    5378:	90 87       	std	Z+8, r25	; 0x08
    537a:	a1 87       	std	Z+9, r26	; 0x09
    537c:	b2 87       	std	Z+10, r27	; 0x0a
    537e:	0f 5f       	subi	r16, 0xFF	; 255
    5380:	1f 4f       	sbci	r17, 0xFF	; 255
    5382:	28 97       	sbiw	r28, 0x08	; 8
    5384:	08 30       	cpi	r16, 0x08	; 8
    5386:	11 05       	cpc	r17, r1
    5388:	11 f6       	brne	.-124    	; 0x530e <_ZN6xbeeST7getDataEPhi+0x17c>
    538a:	0e 94 e2 4b 	call	0x97c4	; 0x97c4 <millis>
    538e:	7b 01       	movw	r14, r22
    5390:	8c 01       	movw	r16, r24
    5392:	8f e7       	ldi	r24, 0x7F	; 127
    5394:	99 e0       	ldi	r25, 0x09	; 9
    5396:	0e 94 e3 3e 	call	0x7dc6	; 0x7dc6 <_ZN14HardwareSerial9availableEv>
    539a:	02 97       	sbiw	r24, 0x02	; 2
    539c:	d4 f3       	brlt	.-12     	; 0x5392 <_ZN6xbeeST7getDataEPhi+0x200>
    539e:	0e 94 e2 4b 	call	0x97c4	; 0x97c4 <millis>
    53a2:	6e 19       	sub	r22, r14
    53a4:	7f 09       	sbc	r23, r15
    53a6:	80 0b       	sbc	r24, r16
    53a8:	91 0b       	sbc	r25, r17
    53aa:	86 16       	cp	r8, r22
    53ac:	97 06       	cpc	r9, r23
    53ae:	a8 06       	cpc	r10, r24
    53b0:	b9 06       	cpc	r11, r25
    53b2:	08 f4       	brcc	.+2      	; 0x53b6 <_ZN6xbeeST7getDataEPhi+0x224>
    53b4:	82 c0       	rjmp	.+260    	; 0x54ba <_ZN6xbeeST7getDataEPhi+0x328>
    53b6:	8f e7       	ldi	r24, 0x7F	; 127
    53b8:	99 e0       	ldi	r25, 0x09	; 9
    53ba:	0e 94 0e 3f 	call	0x7e1c	; 0x7e1c <_ZN14HardwareSerial4readEv>
    53be:	18 2f       	mov	r17, r24
    53c0:	8f e7       	ldi	r24, 0x7F	; 127
    53c2:	99 e0       	ldi	r25, 0x09	; 9
    53c4:	0e 94 0e 3f 	call	0x7e1c	; 0x7e1c <_ZN14HardwareSerial4readEv>
    53c8:	31 2f       	mov	r19, r17
    53ca:	20 e0       	ldi	r18, 0x00	; 0
    53cc:	28 0f       	add	r18, r24
    53ce:	39 1f       	adc	r19, r25
    53d0:	f6 01       	movw	r30, r12
    53d2:	34 87       	std	Z+12, r19	; 0x0c
    53d4:	23 87       	std	Z+11, r18	; 0x0b
    53d6:	0e 94 e2 4b 	call	0x97c4	; 0x97c4 <millis>
    53da:	7b 01       	movw	r14, r22
    53dc:	8c 01       	movw	r16, r24
    53de:	0c c0       	rjmp	.+24     	; 0x53f8 <_ZN6xbeeST7getDataEPhi+0x266>
    53e0:	0e 94 e2 4b 	call	0x97c4	; 0x97c4 <millis>
    53e4:	6e 19       	sub	r22, r14
    53e6:	7f 09       	sbc	r23, r15
    53e8:	80 0b       	sbc	r24, r16
    53ea:	91 0b       	sbc	r25, r17
    53ec:	86 16       	cp	r8, r22
    53ee:	97 06       	cpc	r9, r23
    53f0:	a8 06       	cpc	r10, r24
    53f2:	b9 06       	cpc	r11, r25
    53f4:	08 f4       	brcc	.+2      	; 0x53f8 <_ZN6xbeeST7getDataEPhi+0x266>
    53f6:	61 c0       	rjmp	.+194    	; 0x54ba <_ZN6xbeeST7getDataEPhi+0x328>
    53f8:	8f e7       	ldi	r24, 0x7F	; 127
    53fa:	99 e0       	ldi	r25, 0x09	; 9
    53fc:	0e 94 e3 3e 	call	0x7dc6	; 0x7dc6 <_ZN14HardwareSerial9availableEv>
    5400:	18 16       	cp	r1, r24
    5402:	19 06       	cpc	r1, r25
    5404:	6c f7       	brge	.-38     	; 0x53e0 <_ZN6xbeeST7getDataEPhi+0x24e>
    5406:	8f e7       	ldi	r24, 0x7F	; 127
    5408:	99 e0       	ldi	r25, 0x09	; 9
    540a:	0e 94 0e 3f 	call	0x7e1c	; 0x7e1c <_ZN14HardwareSerial4readEv>
    540e:	f6 01       	movw	r30, r12
    5410:	85 87       	std	Z+13, r24	; 0x0d
    5412:	0e 94 e2 4b 	call	0x97c4	; 0x97c4 <millis>
    5416:	7b 01       	movw	r14, r22
    5418:	8c 01       	movw	r16, r24
    541a:	f6 01       	movw	r30, r12
    541c:	80 81       	ld	r24, Z
    541e:	91 81       	ldd	r25, Z+1	; 0x01
    5420:	0c 97       	sbiw	r24, 0x0c	; 12
    5422:	92 8b       	std	Z+18, r25	; 0x12
    5424:	81 8b       	std	Z+17, r24	; 0x11
    5426:	0b c0       	rjmp	.+22     	; 0x543e <_ZN6xbeeST7getDataEPhi+0x2ac>
    5428:	0e 94 e2 4b 	call	0x97c4	; 0x97c4 <millis>
    542c:	6e 19       	sub	r22, r14
    542e:	7f 09       	sbc	r23, r15
    5430:	80 0b       	sbc	r24, r16
    5432:	91 0b       	sbc	r25, r17
    5434:	86 16       	cp	r8, r22
    5436:	97 06       	cpc	r9, r23
    5438:	a8 06       	cpc	r10, r24
    543a:	b9 06       	cpc	r11, r25
    543c:	f0 f1       	brcs	.+124    	; 0x54ba <_ZN6xbeeST7getDataEPhi+0x328>
    543e:	8f e7       	ldi	r24, 0x7F	; 127
    5440:	99 e0       	ldi	r25, 0x09	; 9
    5442:	0e 94 e3 3e 	call	0x7dc6	; 0x7dc6 <_ZN14HardwareSerial9availableEv>
    5446:	f6 01       	movw	r30, r12
    5448:	20 81       	ld	r18, Z
    544a:	31 81       	ldd	r19, Z+1	; 0x01
    544c:	2c 50       	subi	r18, 0x0C	; 12
    544e:	30 40       	sbci	r19, 0x00	; 0
    5450:	82 17       	cp	r24, r18
    5452:	93 07       	cpc	r25, r19
    5454:	4c f3       	brlt	.-46     	; 0x5428 <_ZN6xbeeST7getDataEPhi+0x296>
    5456:	c0 e0       	ldi	r28, 0x00	; 0
    5458:	d0 e0       	ldi	r29, 0x00	; 0
    545a:	09 c0       	rjmp	.+18     	; 0x546e <_ZN6xbeeST7getDataEPhi+0x2dc>
    545c:	8f e7       	ldi	r24, 0x7F	; 127
    545e:	99 e0       	ldi	r25, 0x09	; 9
    5460:	0e 94 0e 3f 	call	0x7e1c	; 0x7e1c <_ZN14HardwareSerial4readEv>
    5464:	f1 01       	movw	r30, r2
    5466:	ec 0f       	add	r30, r28
    5468:	fd 1f       	adc	r31, r29
    546a:	80 83       	st	Z, r24
    546c:	21 96       	adiw	r28, 0x01	; 1
    546e:	f6 01       	movw	r30, r12
    5470:	80 81       	ld	r24, Z
    5472:	91 81       	ldd	r25, Z+1	; 0x01
    5474:	0c 97       	sbiw	r24, 0x0c	; 12
    5476:	c8 17       	cp	r28, r24
    5478:	d9 07       	cpc	r29, r25
    547a:	84 f3       	brlt	.-32     	; 0x545c <_ZN6xbeeST7getDataEPhi+0x2ca>
    547c:	0e 94 e2 4b 	call	0x97c4	; 0x97c4 <millis>
    5480:	7b 01       	movw	r14, r22
    5482:	8c 01       	movw	r16, r24
    5484:	0b c0       	rjmp	.+22     	; 0x549c <_ZN6xbeeST7getDataEPhi+0x30a>
    5486:	0e 94 e2 4b 	call	0x97c4	; 0x97c4 <millis>
    548a:	6e 19       	sub	r22, r14
    548c:	7f 09       	sbc	r23, r15
    548e:	80 0b       	sbc	r24, r16
    5490:	91 0b       	sbc	r25, r17
    5492:	86 16       	cp	r8, r22
    5494:	97 06       	cpc	r9, r23
    5496:	a8 06       	cpc	r10, r24
    5498:	b9 06       	cpc	r11, r25
    549a:	78 f0       	brcs	.+30     	; 0x54ba <_ZN6xbeeST7getDataEPhi+0x328>
    549c:	8f e7       	ldi	r24, 0x7F	; 127
    549e:	99 e0       	ldi	r25, 0x09	; 9
    54a0:	0e 94 e3 3e 	call	0x7dc6	; 0x7dc6 <_ZN14HardwareSerial9availableEv>
    54a4:	18 16       	cp	r1, r24
    54a6:	19 06       	cpc	r1, r25
    54a8:	74 f7       	brge	.-36     	; 0x5486 <_ZN6xbeeST7getDataEPhi+0x2f4>
    54aa:	8f e7       	ldi	r24, 0x7F	; 127
    54ac:	99 e0       	ldi	r25, 0x09	; 9
    54ae:	0e 94 0e 3f 	call	0x7e1c	; 0x7e1c <_ZN14HardwareSerial4readEv>
    54b2:	f6 01       	movw	r30, r12
    54b4:	80 8b       	std	Z+16, r24	; 0x10
    54b6:	81 e0       	ldi	r24, 0x01	; 1
    54b8:	01 c0       	rjmp	.+2      	; 0x54bc <_ZN6xbeeST7getDataEPhi+0x32a>
    54ba:	80 e0       	ldi	r24, 0x00	; 0
    54bc:	df 91       	pop	r29
    54be:	cf 91       	pop	r28
    54c0:	1f 91       	pop	r17
    54c2:	0f 91       	pop	r16
    54c4:	ff 90       	pop	r15
    54c6:	ef 90       	pop	r14
    54c8:	df 90       	pop	r13
    54ca:	cf 90       	pop	r12
    54cc:	bf 90       	pop	r11
    54ce:	af 90       	pop	r10
    54d0:	9f 90       	pop	r9
    54d2:	8f 90       	pop	r8
    54d4:	7f 90       	pop	r7
    54d6:	6f 90       	pop	r6
    54d8:	5f 90       	pop	r5
    54da:	4f 90       	pop	r4
    54dc:	3f 90       	pop	r3
    54de:	2f 90       	pop	r2
    54e0:	08 95       	ret

000054e2 <_ZN6xbeeST16getATCommandDataEi>:
    54e2:	4f 92       	push	r4
    54e4:	5f 92       	push	r5
    54e6:	6f 92       	push	r6
    54e8:	7f 92       	push	r7
    54ea:	8f 92       	push	r8
    54ec:	9f 92       	push	r9
    54ee:	af 92       	push	r10
    54f0:	bf 92       	push	r11
    54f2:	cf 92       	push	r12
    54f4:	df 92       	push	r13
    54f6:	ef 92       	push	r14
    54f8:	ff 92       	push	r15
    54fa:	0f 93       	push	r16
    54fc:	1f 93       	push	r17
    54fe:	cf 93       	push	r28
    5500:	df 93       	push	r29
    5502:	6c 01       	movw	r12, r24
    5504:	8b 01       	movw	r16, r22
    5506:	0e 94 e2 4b 	call	0x97c4	; 0x97c4 <millis>
    550a:	2b 01       	movw	r4, r22
    550c:	3c 01       	movw	r6, r24
    550e:	48 01       	movw	r8, r16
    5510:	aa 24       	eor	r10, r10
    5512:	bb 24       	eor	r11, r11
    5514:	8f e7       	ldi	r24, 0x7F	; 127
    5516:	99 e0       	ldi	r25, 0x09	; 9
    5518:	0e 94 e3 3e 	call	0x7dc6	; 0x7dc6 <_ZN14HardwareSerial9availableEv>
    551c:	18 16       	cp	r1, r24
    551e:	19 06       	cpc	r1, r25
    5520:	0c f0       	brlt	.+2      	; 0x5524 <_ZN6xbeeST16getATCommandDataEi+0x42>
    5522:	dd c1       	rjmp	.+954    	; 0x58de <_ZN6xbeeST16getATCommandDataEi+0x3fc>
    5524:	8f e7       	ldi	r24, 0x7F	; 127
    5526:	99 e0       	ldi	r25, 0x09	; 9
    5528:	0e 94 0e 3f 	call	0x7e1c	; 0x7e1c <_ZN14HardwareSerial4readEv>
    552c:	18 2f       	mov	r17, r24
    552e:	0e 94 e2 4b 	call	0x97c4	; 0x97c4 <millis>
    5532:	64 19       	sub	r22, r4
    5534:	75 09       	sbc	r23, r5
    5536:	86 09       	sbc	r24, r6
    5538:	97 09       	sbc	r25, r7
    553a:	86 16       	cp	r8, r22
    553c:	97 06       	cpc	r9, r23
    553e:	a8 06       	cpc	r10, r24
    5540:	b9 06       	cpc	r11, r25
    5542:	08 f4       	brcc	.+2      	; 0x5546 <_ZN6xbeeST16getATCommandDataEi+0x64>
    5544:	cc c1       	rjmp	.+920    	; 0x58de <_ZN6xbeeST16getATCommandDataEi+0x3fc>
    5546:	1e 37       	cpi	r17, 0x7E	; 126
    5548:	29 f7       	brne	.-54     	; 0x5514 <_ZN6xbeeST16getATCommandDataEi+0x32>
    554a:	0e 94 e2 4b 	call	0x97c4	; 0x97c4 <millis>
    554e:	7b 01       	movw	r14, r22
    5550:	8c 01       	movw	r16, r24
    5552:	0c c0       	rjmp	.+24     	; 0x556c <_ZN6xbeeST16getATCommandDataEi+0x8a>
    5554:	0e 94 e2 4b 	call	0x97c4	; 0x97c4 <millis>
    5558:	6e 19       	sub	r22, r14
    555a:	7f 09       	sbc	r23, r15
    555c:	80 0b       	sbc	r24, r16
    555e:	91 0b       	sbc	r25, r17
    5560:	86 16       	cp	r8, r22
    5562:	97 06       	cpc	r9, r23
    5564:	a8 06       	cpc	r10, r24
    5566:	b9 06       	cpc	r11, r25
    5568:	08 f4       	brcc	.+2      	; 0x556c <_ZN6xbeeST16getATCommandDataEi+0x8a>
    556a:	b9 c1       	rjmp	.+882    	; 0x58de <_ZN6xbeeST16getATCommandDataEi+0x3fc>
    556c:	8f e7       	ldi	r24, 0x7F	; 127
    556e:	99 e0       	ldi	r25, 0x09	; 9
    5570:	0e 94 e3 3e 	call	0x7dc6	; 0x7dc6 <_ZN14HardwareSerial9availableEv>
    5574:	02 97       	sbiw	r24, 0x02	; 2
    5576:	74 f3       	brlt	.-36     	; 0x5554 <_ZN6xbeeST16getATCommandDataEi+0x72>
    5578:	8f e7       	ldi	r24, 0x7F	; 127
    557a:	99 e0       	ldi	r25, 0x09	; 9
    557c:	0e 94 e3 3e 	call	0x7dc6	; 0x7dc6 <_ZN14HardwareSerial9availableEv>
    5580:	02 97       	sbiw	r24, 0x02	; 2
    5582:	84 f0       	brlt	.+32     	; 0x55a4 <_ZN6xbeeST16getATCommandDataEi+0xc2>
    5584:	8f e7       	ldi	r24, 0x7F	; 127
    5586:	99 e0       	ldi	r25, 0x09	; 9
    5588:	0e 94 0e 3f 	call	0x7e1c	; 0x7e1c <_ZN14HardwareSerial4readEv>
    558c:	18 2f       	mov	r17, r24
    558e:	8f e7       	ldi	r24, 0x7F	; 127
    5590:	99 e0       	ldi	r25, 0x09	; 9
    5592:	0e 94 0e 3f 	call	0x7e1c	; 0x7e1c <_ZN14HardwareSerial4readEv>
    5596:	31 2f       	mov	r19, r17
    5598:	20 e0       	ldi	r18, 0x00	; 0
    559a:	28 0f       	add	r18, r24
    559c:	39 1f       	adc	r19, r25
    559e:	f6 01       	movw	r30, r12
    55a0:	31 83       	std	Z+1, r19	; 0x01
    55a2:	20 83       	st	Z, r18
    55a4:	f6 01       	movw	r30, r12
    55a6:	80 81       	ld	r24, Z
    55a8:	91 81       	ldd	r25, Z+1	; 0x01
    55aa:	18 16       	cp	r1, r24
    55ac:	19 06       	cpc	r1, r25
    55ae:	0c f0       	brlt	.+2      	; 0x55b2 <_ZN6xbeeST16getATCommandDataEi+0xd0>
    55b0:	96 c1       	rjmp	.+812    	; 0x58de <_ZN6xbeeST16getATCommandDataEi+0x3fc>
    55b2:	8a e5       	ldi	r24, 0x5A	; 90
    55b4:	82 83       	std	Z+2, r24	; 0x02
    55b6:	0e 94 e2 4b 	call	0x97c4	; 0x97c4 <millis>
    55ba:	7b 01       	movw	r14, r22
    55bc:	8c 01       	movw	r16, r24
    55be:	0c c0       	rjmp	.+24     	; 0x55d8 <_ZN6xbeeST16getATCommandDataEi+0xf6>
    55c0:	0e 94 e2 4b 	call	0x97c4	; 0x97c4 <millis>
    55c4:	6e 19       	sub	r22, r14
    55c6:	7f 09       	sbc	r23, r15
    55c8:	80 0b       	sbc	r24, r16
    55ca:	91 0b       	sbc	r25, r17
    55cc:	86 16       	cp	r8, r22
    55ce:	97 06       	cpc	r9, r23
    55d0:	a8 06       	cpc	r10, r24
    55d2:	b9 06       	cpc	r11, r25
    55d4:	08 f4       	brcc	.+2      	; 0x55d8 <_ZN6xbeeST16getATCommandDataEi+0xf6>
    55d6:	83 c1       	rjmp	.+774    	; 0x58de <_ZN6xbeeST16getATCommandDataEi+0x3fc>
    55d8:	8f e7       	ldi	r24, 0x7F	; 127
    55da:	99 e0       	ldi	r25, 0x09	; 9
    55dc:	0e 94 e3 3e 	call	0x7dc6	; 0x7dc6 <_ZN14HardwareSerial9availableEv>
    55e0:	18 16       	cp	r1, r24
    55e2:	19 06       	cpc	r1, r25
    55e4:	6c f7       	brge	.-38     	; 0x55c0 <_ZN6xbeeST16getATCommandDataEi+0xde>
    55e6:	8f e7       	ldi	r24, 0x7F	; 127
    55e8:	99 e0       	ldi	r25, 0x09	; 9
    55ea:	0e 94 e3 3e 	call	0x7dc6	; 0x7dc6 <_ZN14HardwareSerial9availableEv>
    55ee:	18 16       	cp	r1, r24
    55f0:	19 06       	cpc	r1, r25
    55f2:	0c f0       	brlt	.+2      	; 0x55f6 <_ZN6xbeeST16getATCommandDataEi+0x114>
    55f4:	74 c1       	rjmp	.+744    	; 0x58de <_ZN6xbeeST16getATCommandDataEi+0x3fc>
    55f6:	8f e7       	ldi	r24, 0x7F	; 127
    55f8:	99 e0       	ldi	r25, 0x09	; 9
    55fa:	0e 94 0e 3f 	call	0x7e1c	; 0x7e1c <_ZN14HardwareSerial4readEv>
    55fe:	f6 01       	movw	r30, r12
    5600:	82 83       	std	Z+2, r24	; 0x02
    5602:	0e 94 e2 4b 	call	0x97c4	; 0x97c4 <millis>
    5606:	7b 01       	movw	r14, r22
    5608:	8c 01       	movw	r16, r24
    560a:	0c c0       	rjmp	.+24     	; 0x5624 <_ZN6xbeeST16getATCommandDataEi+0x142>
    560c:	0e 94 e2 4b 	call	0x97c4	; 0x97c4 <millis>
    5610:	6e 19       	sub	r22, r14
    5612:	7f 09       	sbc	r23, r15
    5614:	80 0b       	sbc	r24, r16
    5616:	91 0b       	sbc	r25, r17
    5618:	86 16       	cp	r8, r22
    561a:	97 06       	cpc	r9, r23
    561c:	a8 06       	cpc	r10, r24
    561e:	b9 06       	cpc	r11, r25
    5620:	08 f4       	brcc	.+2      	; 0x5624 <_ZN6xbeeST16getATCommandDataEi+0x142>
    5622:	5d c1       	rjmp	.+698    	; 0x58de <_ZN6xbeeST16getATCommandDataEi+0x3fc>
    5624:	8f e7       	ldi	r24, 0x7F	; 127
    5626:	99 e0       	ldi	r25, 0x09	; 9
    5628:	0e 94 e3 3e 	call	0x7dc6	; 0x7dc6 <_ZN14HardwareSerial9availableEv>
    562c:	18 16       	cp	r1, r24
    562e:	19 06       	cpc	r1, r25
    5630:	6c f7       	brge	.-38     	; 0x560c <_ZN6xbeeST16getATCommandDataEi+0x12a>
    5632:	8f e7       	ldi	r24, 0x7F	; 127
    5634:	99 e0       	ldi	r25, 0x09	; 9
    5636:	0e 94 e3 3e 	call	0x7dc6	; 0x7dc6 <_ZN14HardwareSerial9availableEv>
    563a:	18 16       	cp	r1, r24
    563c:	19 06       	cpc	r1, r25
    563e:	0c f0       	brlt	.+2      	; 0x5642 <_ZN6xbeeST16getATCommandDataEi+0x160>
    5640:	4e c1       	rjmp	.+668    	; 0x58de <_ZN6xbeeST16getATCommandDataEi+0x3fc>
    5642:	8f e7       	ldi	r24, 0x7F	; 127
    5644:	99 e0       	ldi	r25, 0x09	; 9
    5646:	0e 94 0e 3f 	call	0x7e1c	; 0x7e1c <_ZN14HardwareSerial4readEv>
    564a:	f6 01       	movw	r30, r12
    564c:	83 8b       	std	Z+19, r24	; 0x13
    564e:	13 82       	std	Z+3, r1	; 0x03
    5650:	14 82       	std	Z+4, r1	; 0x04
    5652:	15 82       	std	Z+5, r1	; 0x05
    5654:	16 82       	std	Z+6, r1	; 0x06
    5656:	17 82       	std	Z+7, r1	; 0x07
    5658:	10 86       	std	Z+8, r1	; 0x08
    565a:	11 86       	std	Z+9, r1	; 0x09
    565c:	12 86       	std	Z+10, r1	; 0x0a
    565e:	0e 94 e2 4b 	call	0x97c4	; 0x97c4 <millis>
    5662:	7b 01       	movw	r14, r22
    5664:	8c 01       	movw	r16, r24
    5666:	0c c0       	rjmp	.+24     	; 0x5680 <_ZN6xbeeST16getATCommandDataEi+0x19e>
    5668:	0e 94 e2 4b 	call	0x97c4	; 0x97c4 <millis>
    566c:	6e 19       	sub	r22, r14
    566e:	7f 09       	sbc	r23, r15
    5670:	80 0b       	sbc	r24, r16
    5672:	91 0b       	sbc	r25, r17
    5674:	86 16       	cp	r8, r22
    5676:	97 06       	cpc	r9, r23
    5678:	a8 06       	cpc	r10, r24
    567a:	b9 06       	cpc	r11, r25
    567c:	08 f4       	brcc	.+2      	; 0x5680 <_ZN6xbeeST16getATCommandDataEi+0x19e>
    567e:	2f c1       	rjmp	.+606    	; 0x58de <_ZN6xbeeST16getATCommandDataEi+0x3fc>
    5680:	8f e7       	ldi	r24, 0x7F	; 127
    5682:	99 e0       	ldi	r25, 0x09	; 9
    5684:	0e 94 e3 3e 	call	0x7dc6	; 0x7dc6 <_ZN14HardwareSerial9availableEv>
    5688:	08 97       	sbiw	r24, 0x08	; 8
    568a:	74 f3       	brlt	.-36     	; 0x5668 <_ZN6xbeeST16getATCommandDataEi+0x186>
    568c:	8f e7       	ldi	r24, 0x7F	; 127
    568e:	99 e0       	ldi	r25, 0x09	; 9
    5690:	0e 94 e3 3e 	call	0x7dc6	; 0x7dc6 <_ZN14HardwareSerial9availableEv>
    5694:	08 97       	sbiw	r24, 0x08	; 8
    5696:	0c f4       	brge	.+2      	; 0x569a <_ZN6xbeeST16getATCommandDataEi+0x1b8>
    5698:	22 c1       	rjmp	.+580    	; 0x58de <_ZN6xbeeST16getATCommandDataEi+0x3fc>
    569a:	c0 e0       	ldi	r28, 0x00	; 0
    569c:	d0 e0       	ldi	r29, 0x00	; 0
    569e:	08 e1       	ldi	r16, 0x18	; 24
    56a0:	10 e0       	ldi	r17, 0x00	; 0
    56a2:	8f e7       	ldi	r24, 0x7F	; 127
    56a4:	99 e0       	ldi	r25, 0x09	; 9
    56a6:	0e 94 0e 3f 	call	0x7e1c	; 0x7e1c <_ZN14HardwareSerial4readEv>
    56aa:	28 2f       	mov	r18, r24
    56ac:	30 e0       	ldi	r19, 0x00	; 0
    56ae:	40 e0       	ldi	r20, 0x00	; 0
    56b0:	50 e0       	ldi	r21, 0x00	; 0
    56b2:	c4 30       	cpi	r28, 0x04	; 4
    56b4:	d1 05       	cpc	r29, r1
    56b6:	b4 f4       	brge	.+44     	; 0x56e4 <_ZN6xbeeST16getATCommandDataEi+0x202>
    56b8:	00 2e       	mov	r0, r16
    56ba:	04 c0       	rjmp	.+8      	; 0x56c4 <_ZN6xbeeST16getATCommandDataEi+0x1e2>
    56bc:	22 0f       	add	r18, r18
    56be:	33 1f       	adc	r19, r19
    56c0:	44 1f       	adc	r20, r20
    56c2:	55 1f       	adc	r21, r21
    56c4:	0a 94       	dec	r0
    56c6:	d2 f7       	brpl	.-12     	; 0x56bc <_ZN6xbeeST16getATCommandDataEi+0x1da>
    56c8:	f6 01       	movw	r30, r12
    56ca:	83 81       	ldd	r24, Z+3	; 0x03
    56cc:	94 81       	ldd	r25, Z+4	; 0x04
    56ce:	a5 81       	ldd	r26, Z+5	; 0x05
    56d0:	b6 81       	ldd	r27, Z+6	; 0x06
    56d2:	82 0f       	add	r24, r18
    56d4:	93 1f       	adc	r25, r19
    56d6:	a4 1f       	adc	r26, r20
    56d8:	b5 1f       	adc	r27, r21
    56da:	83 83       	std	Z+3, r24	; 0x03
    56dc:	94 83       	std	Z+4, r25	; 0x04
    56de:	a5 83       	std	Z+5, r26	; 0x05
    56e0:	b6 83       	std	Z+6, r27	; 0x06
    56e2:	19 c0       	rjmp	.+50     	; 0x5716 <_ZN6xbeeST16getATCommandDataEi+0x234>
    56e4:	00 5e       	subi	r16, 0xE0	; 224
    56e6:	1f 4f       	sbci	r17, 0xFF	; 255
    56e8:	00 2e       	mov	r0, r16
    56ea:	04 c0       	rjmp	.+8      	; 0x56f4 <_ZN6xbeeST16getATCommandDataEi+0x212>
    56ec:	22 0f       	add	r18, r18
    56ee:	33 1f       	adc	r19, r19
    56f0:	44 1f       	adc	r20, r20
    56f2:	55 1f       	adc	r21, r21
    56f4:	0a 94       	dec	r0
    56f6:	d2 f7       	brpl	.-12     	; 0x56ec <_ZN6xbeeST16getATCommandDataEi+0x20a>
    56f8:	00 52       	subi	r16, 0x20	; 32
    56fa:	10 40       	sbci	r17, 0x00	; 0
    56fc:	f6 01       	movw	r30, r12
    56fe:	87 81       	ldd	r24, Z+7	; 0x07
    5700:	90 85       	ldd	r25, Z+8	; 0x08
    5702:	a1 85       	ldd	r26, Z+9	; 0x09
    5704:	b2 85       	ldd	r27, Z+10	; 0x0a
    5706:	82 0f       	add	r24, r18
    5708:	93 1f       	adc	r25, r19
    570a:	a4 1f       	adc	r26, r20
    570c:	b5 1f       	adc	r27, r21
    570e:	87 83       	std	Z+7, r24	; 0x07
    5710:	90 87       	std	Z+8, r25	; 0x08
    5712:	a1 87       	std	Z+9, r26	; 0x09
    5714:	b2 87       	std	Z+10, r27	; 0x0a
    5716:	21 96       	adiw	r28, 0x01	; 1
    5718:	08 50       	subi	r16, 0x08	; 8
    571a:	10 40       	sbci	r17, 0x00	; 0
    571c:	c8 30       	cpi	r28, 0x08	; 8
    571e:	d1 05       	cpc	r29, r1
    5720:	09 f0       	breq	.+2      	; 0x5724 <_ZN6xbeeST16getATCommandDataEi+0x242>
    5722:	bf cf       	rjmp	.-130    	; 0x56a2 <_ZN6xbeeST16getATCommandDataEi+0x1c0>
    5724:	0e 94 e2 4b 	call	0x97c4	; 0x97c4 <millis>
    5728:	7b 01       	movw	r14, r22
    572a:	8c 01       	movw	r16, r24
    572c:	8f e7       	ldi	r24, 0x7F	; 127
    572e:	99 e0       	ldi	r25, 0x09	; 9
    5730:	0e 94 e3 3e 	call	0x7dc6	; 0x7dc6 <_ZN14HardwareSerial9availableEv>
    5734:	02 97       	sbiw	r24, 0x02	; 2
    5736:	d4 f3       	brlt	.-12     	; 0x572c <_ZN6xbeeST16getATCommandDataEi+0x24a>
    5738:	0e 94 e2 4b 	call	0x97c4	; 0x97c4 <millis>
    573c:	6e 19       	sub	r22, r14
    573e:	7f 09       	sbc	r23, r15
    5740:	80 0b       	sbc	r24, r16
    5742:	91 0b       	sbc	r25, r17
    5744:	86 16       	cp	r8, r22
    5746:	97 06       	cpc	r9, r23
    5748:	a8 06       	cpc	r10, r24
    574a:	b9 06       	cpc	r11, r25
    574c:	08 f4       	brcc	.+2      	; 0x5750 <_ZN6xbeeST16getATCommandDataEi+0x26e>
    574e:	c7 c0       	rjmp	.+398    	; 0x58de <_ZN6xbeeST16getATCommandDataEi+0x3fc>
    5750:	8f e7       	ldi	r24, 0x7F	; 127
    5752:	99 e0       	ldi	r25, 0x09	; 9
    5754:	0e 94 0e 3f 	call	0x7e1c	; 0x7e1c <_ZN14HardwareSerial4readEv>
    5758:	18 2f       	mov	r17, r24
    575a:	8f e7       	ldi	r24, 0x7F	; 127
    575c:	99 e0       	ldi	r25, 0x09	; 9
    575e:	0e 94 0e 3f 	call	0x7e1c	; 0x7e1c <_ZN14HardwareSerial4readEv>
    5762:	31 2f       	mov	r19, r17
    5764:	20 e0       	ldi	r18, 0x00	; 0
    5766:	28 0f       	add	r18, r24
    5768:	39 1f       	adc	r19, r25
    576a:	f6 01       	movw	r30, r12
    576c:	34 87       	std	Z+12, r19	; 0x0c
    576e:	23 87       	std	Z+11, r18	; 0x0b
    5770:	0e 94 e2 4b 	call	0x97c4	; 0x97c4 <millis>
    5774:	7b 01       	movw	r14, r22
    5776:	8c 01       	movw	r16, r24
    5778:	0c c0       	rjmp	.+24     	; 0x5792 <_ZN6xbeeST16getATCommandDataEi+0x2b0>
    577a:	0e 94 e2 4b 	call	0x97c4	; 0x97c4 <millis>
    577e:	6e 19       	sub	r22, r14
    5780:	7f 09       	sbc	r23, r15
    5782:	80 0b       	sbc	r24, r16
    5784:	91 0b       	sbc	r25, r17
    5786:	86 16       	cp	r8, r22
    5788:	97 06       	cpc	r9, r23
    578a:	a8 06       	cpc	r10, r24
    578c:	b9 06       	cpc	r11, r25
    578e:	08 f4       	brcc	.+2      	; 0x5792 <_ZN6xbeeST16getATCommandDataEi+0x2b0>
    5790:	a6 c0       	rjmp	.+332    	; 0x58de <_ZN6xbeeST16getATCommandDataEi+0x3fc>
    5792:	8f e7       	ldi	r24, 0x7F	; 127
    5794:	99 e0       	ldi	r25, 0x09	; 9
    5796:	0e 94 e3 3e 	call	0x7dc6	; 0x7dc6 <_ZN14HardwareSerial9availableEv>
    579a:	03 97       	sbiw	r24, 0x03	; 3
    579c:	74 f3       	brlt	.-36     	; 0x577a <_ZN6xbeeST16getATCommandDataEi+0x298>
    579e:	8f e7       	ldi	r24, 0x7F	; 127
    57a0:	99 e0       	ldi	r25, 0x09	; 9
    57a2:	0e 94 e3 3e 	call	0x7dc6	; 0x7dc6 <_ZN14HardwareSerial9availableEv>
    57a6:	02 97       	sbiw	r24, 0x02	; 2
    57a8:	0c f4       	brge	.+2      	; 0x57ac <_ZN6xbeeST16getATCommandDataEi+0x2ca>
    57aa:	99 c0       	rjmp	.+306    	; 0x58de <_ZN6xbeeST16getATCommandDataEi+0x3fc>
    57ac:	8f e7       	ldi	r24, 0x7F	; 127
    57ae:	99 e0       	ldi	r25, 0x09	; 9
    57b0:	0e 94 0e 3f 	call	0x7e1c	; 0x7e1c <_ZN14HardwareSerial4readEv>
    57b4:	f6 01       	movw	r30, r12
    57b6:	84 8b       	std	Z+20, r24	; 0x14
    57b8:	8f e7       	ldi	r24, 0x7F	; 127
    57ba:	99 e0       	ldi	r25, 0x09	; 9
    57bc:	0e 94 0e 3f 	call	0x7e1c	; 0x7e1c <_ZN14HardwareSerial4readEv>
    57c0:	f6 01       	movw	r30, r12
    57c2:	85 8b       	std	Z+21, r24	; 0x15
    57c4:	0e 94 e2 4b 	call	0x97c4	; 0x97c4 <millis>
    57c8:	7b 01       	movw	r14, r22
    57ca:	8c 01       	movw	r16, r24
    57cc:	0c c0       	rjmp	.+24     	; 0x57e6 <_ZN6xbeeST16getATCommandDataEi+0x304>
    57ce:	0e 94 e2 4b 	call	0x97c4	; 0x97c4 <millis>
    57d2:	6e 19       	sub	r22, r14
    57d4:	7f 09       	sbc	r23, r15
    57d6:	80 0b       	sbc	r24, r16
    57d8:	91 0b       	sbc	r25, r17
    57da:	86 16       	cp	r8, r22
    57dc:	97 06       	cpc	r9, r23
    57de:	a8 06       	cpc	r10, r24
    57e0:	b9 06       	cpc	r11, r25
    57e2:	08 f4       	brcc	.+2      	; 0x57e6 <_ZN6xbeeST16getATCommandDataEi+0x304>
    57e4:	7c c0       	rjmp	.+248    	; 0x58de <_ZN6xbeeST16getATCommandDataEi+0x3fc>
    57e6:	8f e7       	ldi	r24, 0x7F	; 127
    57e8:	99 e0       	ldi	r25, 0x09	; 9
    57ea:	0e 94 e3 3e 	call	0x7dc6	; 0x7dc6 <_ZN14HardwareSerial9availableEv>
    57ee:	18 16       	cp	r1, r24
    57f0:	19 06       	cpc	r1, r25
    57f2:	6c f7       	brge	.-38     	; 0x57ce <_ZN6xbeeST16getATCommandDataEi+0x2ec>
    57f4:	8f e7       	ldi	r24, 0x7F	; 127
    57f6:	99 e0       	ldi	r25, 0x09	; 9
    57f8:	0e 94 0e 3f 	call	0x7e1c	; 0x7e1c <_ZN14HardwareSerial4readEv>
    57fc:	f6 01       	movw	r30, r12
    57fe:	86 8b       	std	Z+22, r24	; 0x16
    5800:	0e 94 e2 4b 	call	0x97c4	; 0x97c4 <millis>
    5804:	7b 01       	movw	r14, r22
    5806:	8c 01       	movw	r16, r24
    5808:	f6 01       	movw	r30, r12
    580a:	80 81       	ld	r24, Z
    580c:	91 81       	ldd	r25, Z+1	; 0x01
    580e:	0f 97       	sbiw	r24, 0x0f	; 15
    5810:	92 8b       	std	Z+18, r25	; 0x12
    5812:	81 8b       	std	Z+17, r24	; 0x11
    5814:	0c c0       	rjmp	.+24     	; 0x582e <_ZN6xbeeST16getATCommandDataEi+0x34c>
    5816:	0e 94 e2 4b 	call	0x97c4	; 0x97c4 <millis>
    581a:	6e 19       	sub	r22, r14
    581c:	7f 09       	sbc	r23, r15
    581e:	80 0b       	sbc	r24, r16
    5820:	91 0b       	sbc	r25, r17
    5822:	86 16       	cp	r8, r22
    5824:	97 06       	cpc	r9, r23
    5826:	a8 06       	cpc	r10, r24
    5828:	b9 06       	cpc	r11, r25
    582a:	08 f4       	brcc	.+2      	; 0x582e <_ZN6xbeeST16getATCommandDataEi+0x34c>
    582c:	58 c0       	rjmp	.+176    	; 0x58de <_ZN6xbeeST16getATCommandDataEi+0x3fc>
    582e:	8f e7       	ldi	r24, 0x7F	; 127
    5830:	99 e0       	ldi	r25, 0x09	; 9
    5832:	0e 94 e3 3e 	call	0x7dc6	; 0x7dc6 <_ZN14HardwareSerial9availableEv>
    5836:	f6 01       	movw	r30, r12
    5838:	20 81       	ld	r18, Z
    583a:	31 81       	ldd	r19, Z+1	; 0x01
    583c:	2f 50       	subi	r18, 0x0F	; 15
    583e:	30 40       	sbci	r19, 0x00	; 0
    5840:	82 17       	cp	r24, r18
    5842:	93 07       	cpc	r25, r19
    5844:	44 f3       	brlt	.-48     	; 0x5816 <_ZN6xbeeST16getATCommandDataEi+0x334>
    5846:	80 91 69 07 	lds	r24, 0x0769
    584a:	88 23       	and	r24, r24
    584c:	29 f0       	breq	.+10     	; 0x5858 <_ZN6xbeeST16getATCommandDataEi+0x376>
    584e:	86 85       	ldd	r24, Z+14	; 0x0e
    5850:	97 85       	ldd	r25, Z+15	; 0x0f
    5852:	0e 94 d9 08 	call	0x11b2	; 0x11b2 <free>
    5856:	03 c0       	rjmp	.+6      	; 0x585e <_ZN6xbeeST16getATCommandDataEi+0x37c>
    5858:	81 e0       	ldi	r24, 0x01	; 1
    585a:	80 93 69 07 	sts	0x0769, r24
    585e:	f6 01       	movw	r30, r12
    5860:	80 81       	ld	r24, Z
    5862:	91 81       	ldd	r25, Z+1	; 0x01
    5864:	0f 97       	sbiw	r24, 0x0f	; 15
    5866:	0e 94 2f 08 	call	0x105e	; 0x105e <malloc>
    586a:	f6 01       	movw	r30, r12
    586c:	97 87       	std	Z+15, r25	; 0x0f
    586e:	86 87       	std	Z+14, r24	; 0x0e
    5870:	00 97       	sbiw	r24, 0x00	; 0
    5872:	a9 f1       	breq	.+106    	; 0x58de <_ZN6xbeeST16getATCommandDataEi+0x3fc>
    5874:	c0 e0       	ldi	r28, 0x00	; 0
    5876:	d0 e0       	ldi	r29, 0x00	; 0
    5878:	0c c0       	rjmp	.+24     	; 0x5892 <_ZN6xbeeST16getATCommandDataEi+0x3b0>
    587a:	f6 01       	movw	r30, r12
    587c:	06 85       	ldd	r16, Z+14	; 0x0e
    587e:	17 85       	ldd	r17, Z+15	; 0x0f
    5880:	0c 0f       	add	r16, r28
    5882:	1d 1f       	adc	r17, r29
    5884:	8f e7       	ldi	r24, 0x7F	; 127
    5886:	99 e0       	ldi	r25, 0x09	; 9
    5888:	0e 94 0e 3f 	call	0x7e1c	; 0x7e1c <_ZN14HardwareSerial4readEv>
    588c:	f8 01       	movw	r30, r16
    588e:	80 83       	st	Z, r24
    5890:	21 96       	adiw	r28, 0x01	; 1
    5892:	f6 01       	movw	r30, r12
    5894:	80 81       	ld	r24, Z
    5896:	91 81       	ldd	r25, Z+1	; 0x01
    5898:	0f 97       	sbiw	r24, 0x0f	; 15
    589a:	c8 17       	cp	r28, r24
    589c:	d9 07       	cpc	r29, r25
    589e:	6c f3       	brlt	.-38     	; 0x587a <_ZN6xbeeST16getATCommandDataEi+0x398>
    58a0:	0e 94 e2 4b 	call	0x97c4	; 0x97c4 <millis>
    58a4:	7b 01       	movw	r14, r22
    58a6:	8c 01       	movw	r16, r24
    58a8:	0b c0       	rjmp	.+22     	; 0x58c0 <_ZN6xbeeST16getATCommandDataEi+0x3de>
    58aa:	0e 94 e2 4b 	call	0x97c4	; 0x97c4 <millis>
    58ae:	6e 19       	sub	r22, r14
    58b0:	7f 09       	sbc	r23, r15
    58b2:	80 0b       	sbc	r24, r16
    58b4:	91 0b       	sbc	r25, r17
    58b6:	86 16       	cp	r8, r22
    58b8:	97 06       	cpc	r9, r23
    58ba:	a8 06       	cpc	r10, r24
    58bc:	b9 06       	cpc	r11, r25
    58be:	78 f0       	brcs	.+30     	; 0x58de <_ZN6xbeeST16getATCommandDataEi+0x3fc>
    58c0:	8f e7       	ldi	r24, 0x7F	; 127
    58c2:	99 e0       	ldi	r25, 0x09	; 9
    58c4:	0e 94 e3 3e 	call	0x7dc6	; 0x7dc6 <_ZN14HardwareSerial9availableEv>
    58c8:	18 16       	cp	r1, r24
    58ca:	19 06       	cpc	r1, r25
    58cc:	74 f7       	brge	.-36     	; 0x58aa <_ZN6xbeeST16getATCommandDataEi+0x3c8>
    58ce:	8f e7       	ldi	r24, 0x7F	; 127
    58d0:	99 e0       	ldi	r25, 0x09	; 9
    58d2:	0e 94 0e 3f 	call	0x7e1c	; 0x7e1c <_ZN14HardwareSerial4readEv>
    58d6:	f6 01       	movw	r30, r12
    58d8:	80 8b       	std	Z+16, r24	; 0x10
    58da:	81 e0       	ldi	r24, 0x01	; 1
    58dc:	01 c0       	rjmp	.+2      	; 0x58e0 <_ZN6xbeeST16getATCommandDataEi+0x3fe>
    58de:	80 e0       	ldi	r24, 0x00	; 0
    58e0:	df 91       	pop	r29
    58e2:	cf 91       	pop	r28
    58e4:	1f 91       	pop	r17
    58e6:	0f 91       	pop	r16
    58e8:	ff 90       	pop	r15
    58ea:	ef 90       	pop	r14
    58ec:	df 90       	pop	r13
    58ee:	cf 90       	pop	r12
    58f0:	bf 90       	pop	r11
    58f2:	af 90       	pop	r10
    58f4:	9f 90       	pop	r9
    58f6:	8f 90       	pop	r8
    58f8:	7f 90       	pop	r7
    58fa:	6f 90       	pop	r6
    58fc:	5f 90       	pop	r5
    58fe:	4f 90       	pop	r4
    5900:	08 95       	ret

00005902 <_ZN6xbeeST21getLocalATCommandDataEi>:
    5902:	6f 92       	push	r6
    5904:	7f 92       	push	r7
    5906:	8f 92       	push	r8
    5908:	9f 92       	push	r9
    590a:	af 92       	push	r10
    590c:	bf 92       	push	r11
    590e:	cf 92       	push	r12
    5910:	df 92       	push	r13
    5912:	ef 92       	push	r14
    5914:	ff 92       	push	r15
    5916:	0f 93       	push	r16
    5918:	1f 93       	push	r17
    591a:	cf 93       	push	r28
    591c:	df 93       	push	r29
    591e:	7c 01       	movw	r14, r24
    5920:	8b 01       	movw	r16, r22
    5922:	0e 94 e2 4b 	call	0x97c4	; 0x97c4 <millis>
    5926:	5b 01       	movw	r10, r22
    5928:	6c 01       	movw	r12, r24
    592a:	38 01       	movw	r6, r16
    592c:	88 24       	eor	r8, r8
    592e:	99 24       	eor	r9, r9
    5930:	8f e7       	ldi	r24, 0x7F	; 127
    5932:	99 e0       	ldi	r25, 0x09	; 9
    5934:	0e 94 e3 3e 	call	0x7dc6	; 0x7dc6 <_ZN14HardwareSerial9availableEv>
    5938:	18 16       	cp	r1, r24
    593a:	19 06       	cpc	r1, r25
    593c:	0c f0       	brlt	.+2      	; 0x5940 <_ZN6xbeeST21getLocalATCommandDataEi+0x3e>
    593e:	4c c1       	rjmp	.+664    	; 0x5bd8 <_ZN6xbeeST21getLocalATCommandDataEi+0x2d6>
    5940:	8f e7       	ldi	r24, 0x7F	; 127
    5942:	99 e0       	ldi	r25, 0x09	; 9
    5944:	0e 94 0e 3f 	call	0x7e1c	; 0x7e1c <_ZN14HardwareSerial4readEv>
    5948:	18 2f       	mov	r17, r24
    594a:	0e 94 e2 4b 	call	0x97c4	; 0x97c4 <millis>
    594e:	6a 19       	sub	r22, r10
    5950:	7b 09       	sbc	r23, r11
    5952:	8c 09       	sbc	r24, r12
    5954:	9d 09       	sbc	r25, r13
    5956:	66 16       	cp	r6, r22
    5958:	77 06       	cpc	r7, r23
    595a:	88 06       	cpc	r8, r24
    595c:	99 06       	cpc	r9, r25
    595e:	08 f4       	brcc	.+2      	; 0x5962 <_ZN6xbeeST21getLocalATCommandDataEi+0x60>
    5960:	3b c1       	rjmp	.+630    	; 0x5bd8 <_ZN6xbeeST21getLocalATCommandDataEi+0x2d6>
    5962:	1e 37       	cpi	r17, 0x7E	; 126
    5964:	29 f7       	brne	.-54     	; 0x5930 <_ZN6xbeeST21getLocalATCommandDataEi+0x2e>
    5966:	0e 94 e2 4b 	call	0x97c4	; 0x97c4 <millis>
    596a:	5b 01       	movw	r10, r22
    596c:	6c 01       	movw	r12, r24
    596e:	0c c0       	rjmp	.+24     	; 0x5988 <_ZN6xbeeST21getLocalATCommandDataEi+0x86>
    5970:	0e 94 e2 4b 	call	0x97c4	; 0x97c4 <millis>
    5974:	6a 19       	sub	r22, r10
    5976:	7b 09       	sbc	r23, r11
    5978:	8c 09       	sbc	r24, r12
    597a:	9d 09       	sbc	r25, r13
    597c:	66 16       	cp	r6, r22
    597e:	77 06       	cpc	r7, r23
    5980:	88 06       	cpc	r8, r24
    5982:	99 06       	cpc	r9, r25
    5984:	08 f4       	brcc	.+2      	; 0x5988 <_ZN6xbeeST21getLocalATCommandDataEi+0x86>
    5986:	28 c1       	rjmp	.+592    	; 0x5bd8 <_ZN6xbeeST21getLocalATCommandDataEi+0x2d6>
    5988:	8f e7       	ldi	r24, 0x7F	; 127
    598a:	99 e0       	ldi	r25, 0x09	; 9
    598c:	0e 94 e3 3e 	call	0x7dc6	; 0x7dc6 <_ZN14HardwareSerial9availableEv>
    5990:	02 97       	sbiw	r24, 0x02	; 2
    5992:	74 f3       	brlt	.-36     	; 0x5970 <_ZN6xbeeST21getLocalATCommandDataEi+0x6e>
    5994:	8f e7       	ldi	r24, 0x7F	; 127
    5996:	99 e0       	ldi	r25, 0x09	; 9
    5998:	0e 94 e3 3e 	call	0x7dc6	; 0x7dc6 <_ZN14HardwareSerial9availableEv>
    599c:	02 97       	sbiw	r24, 0x02	; 2
    599e:	84 f0       	brlt	.+32     	; 0x59c0 <_ZN6xbeeST21getLocalATCommandDataEi+0xbe>
    59a0:	8f e7       	ldi	r24, 0x7F	; 127
    59a2:	99 e0       	ldi	r25, 0x09	; 9
    59a4:	0e 94 0e 3f 	call	0x7e1c	; 0x7e1c <_ZN14HardwareSerial4readEv>
    59a8:	18 2f       	mov	r17, r24
    59aa:	8f e7       	ldi	r24, 0x7F	; 127
    59ac:	99 e0       	ldi	r25, 0x09	; 9
    59ae:	0e 94 0e 3f 	call	0x7e1c	; 0x7e1c <_ZN14HardwareSerial4readEv>
    59b2:	31 2f       	mov	r19, r17
    59b4:	20 e0       	ldi	r18, 0x00	; 0
    59b6:	28 0f       	add	r18, r24
    59b8:	39 1f       	adc	r19, r25
    59ba:	f7 01       	movw	r30, r14
    59bc:	31 83       	std	Z+1, r19	; 0x01
    59be:	20 83       	st	Z, r18
    59c0:	f7 01       	movw	r30, r14
    59c2:	80 81       	ld	r24, Z
    59c4:	91 81       	ldd	r25, Z+1	; 0x01
    59c6:	18 16       	cp	r1, r24
    59c8:	19 06       	cpc	r1, r25
    59ca:	0c f0       	brlt	.+2      	; 0x59ce <_ZN6xbeeST21getLocalATCommandDataEi+0xcc>
    59cc:	05 c1       	rjmp	.+522    	; 0x5bd8 <_ZN6xbeeST21getLocalATCommandDataEi+0x2d6>
    59ce:	8a e5       	ldi	r24, 0x5A	; 90
    59d0:	82 83       	std	Z+2, r24	; 0x02
    59d2:	0e 94 e2 4b 	call	0x97c4	; 0x97c4 <millis>
    59d6:	5b 01       	movw	r10, r22
    59d8:	6c 01       	movw	r12, r24
    59da:	0c c0       	rjmp	.+24     	; 0x59f4 <_ZN6xbeeST21getLocalATCommandDataEi+0xf2>
    59dc:	0e 94 e2 4b 	call	0x97c4	; 0x97c4 <millis>
    59e0:	6a 19       	sub	r22, r10
    59e2:	7b 09       	sbc	r23, r11
    59e4:	8c 09       	sbc	r24, r12
    59e6:	9d 09       	sbc	r25, r13
    59e8:	66 16       	cp	r6, r22
    59ea:	77 06       	cpc	r7, r23
    59ec:	88 06       	cpc	r8, r24
    59ee:	99 06       	cpc	r9, r25
    59f0:	08 f4       	brcc	.+2      	; 0x59f4 <_ZN6xbeeST21getLocalATCommandDataEi+0xf2>
    59f2:	f2 c0       	rjmp	.+484    	; 0x5bd8 <_ZN6xbeeST21getLocalATCommandDataEi+0x2d6>
    59f4:	8f e7       	ldi	r24, 0x7F	; 127
    59f6:	99 e0       	ldi	r25, 0x09	; 9
    59f8:	0e 94 e3 3e 	call	0x7dc6	; 0x7dc6 <_ZN14HardwareSerial9availableEv>
    59fc:	18 16       	cp	r1, r24
    59fe:	19 06       	cpc	r1, r25
    5a00:	6c f7       	brge	.-38     	; 0x59dc <_ZN6xbeeST21getLocalATCommandDataEi+0xda>
    5a02:	8f e7       	ldi	r24, 0x7F	; 127
    5a04:	99 e0       	ldi	r25, 0x09	; 9
    5a06:	0e 94 e3 3e 	call	0x7dc6	; 0x7dc6 <_ZN14HardwareSerial9availableEv>
    5a0a:	18 16       	cp	r1, r24
    5a0c:	19 06       	cpc	r1, r25
    5a0e:	0c f0       	brlt	.+2      	; 0x5a12 <_ZN6xbeeST21getLocalATCommandDataEi+0x110>
    5a10:	e3 c0       	rjmp	.+454    	; 0x5bd8 <_ZN6xbeeST21getLocalATCommandDataEi+0x2d6>
    5a12:	8f e7       	ldi	r24, 0x7F	; 127
    5a14:	99 e0       	ldi	r25, 0x09	; 9
    5a16:	0e 94 0e 3f 	call	0x7e1c	; 0x7e1c <_ZN14HardwareSerial4readEv>
    5a1a:	f7 01       	movw	r30, r14
    5a1c:	82 83       	std	Z+2, r24	; 0x02
    5a1e:	0e 94 e2 4b 	call	0x97c4	; 0x97c4 <millis>
    5a22:	5b 01       	movw	r10, r22
    5a24:	6c 01       	movw	r12, r24
    5a26:	0c c0       	rjmp	.+24     	; 0x5a40 <_ZN6xbeeST21getLocalATCommandDataEi+0x13e>
    5a28:	0e 94 e2 4b 	call	0x97c4	; 0x97c4 <millis>
    5a2c:	6a 19       	sub	r22, r10
    5a2e:	7b 09       	sbc	r23, r11
    5a30:	8c 09       	sbc	r24, r12
    5a32:	9d 09       	sbc	r25, r13
    5a34:	66 16       	cp	r6, r22
    5a36:	77 06       	cpc	r7, r23
    5a38:	88 06       	cpc	r8, r24
    5a3a:	99 06       	cpc	r9, r25
    5a3c:	08 f4       	brcc	.+2      	; 0x5a40 <_ZN6xbeeST21getLocalATCommandDataEi+0x13e>
    5a3e:	cc c0       	rjmp	.+408    	; 0x5bd8 <_ZN6xbeeST21getLocalATCommandDataEi+0x2d6>
    5a40:	8f e7       	ldi	r24, 0x7F	; 127
    5a42:	99 e0       	ldi	r25, 0x09	; 9
    5a44:	0e 94 e3 3e 	call	0x7dc6	; 0x7dc6 <_ZN14HardwareSerial9availableEv>
    5a48:	18 16       	cp	r1, r24
    5a4a:	19 06       	cpc	r1, r25
    5a4c:	6c f7       	brge	.-38     	; 0x5a28 <_ZN6xbeeST21getLocalATCommandDataEi+0x126>
    5a4e:	8f e7       	ldi	r24, 0x7F	; 127
    5a50:	99 e0       	ldi	r25, 0x09	; 9
    5a52:	0e 94 e3 3e 	call	0x7dc6	; 0x7dc6 <_ZN14HardwareSerial9availableEv>
    5a56:	18 16       	cp	r1, r24
    5a58:	19 06       	cpc	r1, r25
    5a5a:	0c f0       	brlt	.+2      	; 0x5a5e <_ZN6xbeeST21getLocalATCommandDataEi+0x15c>
    5a5c:	bd c0       	rjmp	.+378    	; 0x5bd8 <_ZN6xbeeST21getLocalATCommandDataEi+0x2d6>
    5a5e:	8f e7       	ldi	r24, 0x7F	; 127
    5a60:	99 e0       	ldi	r25, 0x09	; 9
    5a62:	0e 94 0e 3f 	call	0x7e1c	; 0x7e1c <_ZN14HardwareSerial4readEv>
    5a66:	f7 01       	movw	r30, r14
    5a68:	83 8b       	std	Z+19, r24	; 0x13
    5a6a:	0e 94 e2 4b 	call	0x97c4	; 0x97c4 <millis>
    5a6e:	5b 01       	movw	r10, r22
    5a70:	6c 01       	movw	r12, r24
    5a72:	0c c0       	rjmp	.+24     	; 0x5a8c <_ZN6xbeeST21getLocalATCommandDataEi+0x18a>
    5a74:	0e 94 e2 4b 	call	0x97c4	; 0x97c4 <millis>
    5a78:	6a 19       	sub	r22, r10
    5a7a:	7b 09       	sbc	r23, r11
    5a7c:	8c 09       	sbc	r24, r12
    5a7e:	9d 09       	sbc	r25, r13
    5a80:	66 16       	cp	r6, r22
    5a82:	77 06       	cpc	r7, r23
    5a84:	88 06       	cpc	r8, r24
    5a86:	99 06       	cpc	r9, r25
    5a88:	08 f4       	brcc	.+2      	; 0x5a8c <_ZN6xbeeST21getLocalATCommandDataEi+0x18a>
    5a8a:	a6 c0       	rjmp	.+332    	; 0x5bd8 <_ZN6xbeeST21getLocalATCommandDataEi+0x2d6>
    5a8c:	8f e7       	ldi	r24, 0x7F	; 127
    5a8e:	99 e0       	ldi	r25, 0x09	; 9
    5a90:	0e 94 e3 3e 	call	0x7dc6	; 0x7dc6 <_ZN14HardwareSerial9availableEv>
    5a94:	03 97       	sbiw	r24, 0x03	; 3
    5a96:	74 f3       	brlt	.-36     	; 0x5a74 <_ZN6xbeeST21getLocalATCommandDataEi+0x172>
    5a98:	8f e7       	ldi	r24, 0x7F	; 127
    5a9a:	99 e0       	ldi	r25, 0x09	; 9
    5a9c:	0e 94 e3 3e 	call	0x7dc6	; 0x7dc6 <_ZN14HardwareSerial9availableEv>
    5aa0:	02 97       	sbiw	r24, 0x02	; 2
    5aa2:	0c f4       	brge	.+2      	; 0x5aa6 <_ZN6xbeeST21getLocalATCommandDataEi+0x1a4>
    5aa4:	99 c0       	rjmp	.+306    	; 0x5bd8 <_ZN6xbeeST21getLocalATCommandDataEi+0x2d6>
    5aa6:	8f e7       	ldi	r24, 0x7F	; 127
    5aa8:	99 e0       	ldi	r25, 0x09	; 9
    5aaa:	0e 94 0e 3f 	call	0x7e1c	; 0x7e1c <_ZN14HardwareSerial4readEv>
    5aae:	f7 01       	movw	r30, r14
    5ab0:	84 8b       	std	Z+20, r24	; 0x14
    5ab2:	8f e7       	ldi	r24, 0x7F	; 127
    5ab4:	99 e0       	ldi	r25, 0x09	; 9
    5ab6:	0e 94 0e 3f 	call	0x7e1c	; 0x7e1c <_ZN14HardwareSerial4readEv>
    5aba:	f7 01       	movw	r30, r14
    5abc:	85 8b       	std	Z+21, r24	; 0x15
    5abe:	0e 94 e2 4b 	call	0x97c4	; 0x97c4 <millis>
    5ac2:	5b 01       	movw	r10, r22
    5ac4:	6c 01       	movw	r12, r24
    5ac6:	0c c0       	rjmp	.+24     	; 0x5ae0 <_ZN6xbeeST21getLocalATCommandDataEi+0x1de>
    5ac8:	0e 94 e2 4b 	call	0x97c4	; 0x97c4 <millis>
    5acc:	6a 19       	sub	r22, r10
    5ace:	7b 09       	sbc	r23, r11
    5ad0:	8c 09       	sbc	r24, r12
    5ad2:	9d 09       	sbc	r25, r13
    5ad4:	66 16       	cp	r6, r22
    5ad6:	77 06       	cpc	r7, r23
    5ad8:	88 06       	cpc	r8, r24
    5ada:	99 06       	cpc	r9, r25
    5adc:	08 f4       	brcc	.+2      	; 0x5ae0 <_ZN6xbeeST21getLocalATCommandDataEi+0x1de>
    5ade:	7c c0       	rjmp	.+248    	; 0x5bd8 <_ZN6xbeeST21getLocalATCommandDataEi+0x2d6>
    5ae0:	8f e7       	ldi	r24, 0x7F	; 127
    5ae2:	99 e0       	ldi	r25, 0x09	; 9
    5ae4:	0e 94 e3 3e 	call	0x7dc6	; 0x7dc6 <_ZN14HardwareSerial9availableEv>
    5ae8:	18 16       	cp	r1, r24
    5aea:	19 06       	cpc	r1, r25
    5aec:	6c f7       	brge	.-38     	; 0x5ac8 <_ZN6xbeeST21getLocalATCommandDataEi+0x1c6>
    5aee:	8f e7       	ldi	r24, 0x7F	; 127
    5af0:	99 e0       	ldi	r25, 0x09	; 9
    5af2:	0e 94 0e 3f 	call	0x7e1c	; 0x7e1c <_ZN14HardwareSerial4readEv>
    5af6:	f7 01       	movw	r30, r14
    5af8:	86 8b       	std	Z+22, r24	; 0x16
    5afa:	0e 94 e2 4b 	call	0x97c4	; 0x97c4 <millis>
    5afe:	5b 01       	movw	r10, r22
    5b00:	6c 01       	movw	r12, r24
    5b02:	f7 01       	movw	r30, r14
    5b04:	80 81       	ld	r24, Z
    5b06:	91 81       	ldd	r25, Z+1	; 0x01
    5b08:	05 97       	sbiw	r24, 0x05	; 5
    5b0a:	92 8b       	std	Z+18, r25	; 0x12
    5b0c:	81 8b       	std	Z+17, r24	; 0x11
    5b0e:	0c c0       	rjmp	.+24     	; 0x5b28 <_ZN6xbeeST21getLocalATCommandDataEi+0x226>
    5b10:	0e 94 e2 4b 	call	0x97c4	; 0x97c4 <millis>
    5b14:	6a 19       	sub	r22, r10
    5b16:	7b 09       	sbc	r23, r11
    5b18:	8c 09       	sbc	r24, r12
    5b1a:	9d 09       	sbc	r25, r13
    5b1c:	66 16       	cp	r6, r22
    5b1e:	77 06       	cpc	r7, r23
    5b20:	88 06       	cpc	r8, r24
    5b22:	99 06       	cpc	r9, r25
    5b24:	08 f4       	brcc	.+2      	; 0x5b28 <_ZN6xbeeST21getLocalATCommandDataEi+0x226>
    5b26:	58 c0       	rjmp	.+176    	; 0x5bd8 <_ZN6xbeeST21getLocalATCommandDataEi+0x2d6>
    5b28:	8f e7       	ldi	r24, 0x7F	; 127
    5b2a:	99 e0       	ldi	r25, 0x09	; 9
    5b2c:	0e 94 e3 3e 	call	0x7dc6	; 0x7dc6 <_ZN14HardwareSerial9availableEv>
    5b30:	f7 01       	movw	r30, r14
    5b32:	20 81       	ld	r18, Z
    5b34:	31 81       	ldd	r19, Z+1	; 0x01
    5b36:	25 50       	subi	r18, 0x05	; 5
    5b38:	30 40       	sbci	r19, 0x00	; 0
    5b3a:	82 17       	cp	r24, r18
    5b3c:	93 07       	cpc	r25, r19
    5b3e:	44 f3       	brlt	.-48     	; 0x5b10 <_ZN6xbeeST21getLocalATCommandDataEi+0x20e>
    5b40:	80 91 6a 07 	lds	r24, 0x076A
    5b44:	88 23       	and	r24, r24
    5b46:	29 f0       	breq	.+10     	; 0x5b52 <_ZN6xbeeST21getLocalATCommandDataEi+0x250>
    5b48:	86 85       	ldd	r24, Z+14	; 0x0e
    5b4a:	97 85       	ldd	r25, Z+15	; 0x0f
    5b4c:	0e 94 d9 08 	call	0x11b2	; 0x11b2 <free>
    5b50:	03 c0       	rjmp	.+6      	; 0x5b58 <_ZN6xbeeST21getLocalATCommandDataEi+0x256>
    5b52:	81 e0       	ldi	r24, 0x01	; 1
    5b54:	80 93 6a 07 	sts	0x076A, r24
    5b58:	f7 01       	movw	r30, r14
    5b5a:	80 81       	ld	r24, Z
    5b5c:	91 81       	ldd	r25, Z+1	; 0x01
    5b5e:	05 97       	sbiw	r24, 0x05	; 5
    5b60:	0e 94 2f 08 	call	0x105e	; 0x105e <malloc>
    5b64:	f7 01       	movw	r30, r14
    5b66:	97 87       	std	Z+15, r25	; 0x0f
    5b68:	86 87       	std	Z+14, r24	; 0x0e
    5b6a:	00 97       	sbiw	r24, 0x00	; 0
    5b6c:	a9 f1       	breq	.+106    	; 0x5bd8 <_ZN6xbeeST21getLocalATCommandDataEi+0x2d6>
    5b6e:	c0 e0       	ldi	r28, 0x00	; 0
    5b70:	d0 e0       	ldi	r29, 0x00	; 0
    5b72:	0c c0       	rjmp	.+24     	; 0x5b8c <_ZN6xbeeST21getLocalATCommandDataEi+0x28a>
    5b74:	f7 01       	movw	r30, r14
    5b76:	06 85       	ldd	r16, Z+14	; 0x0e
    5b78:	17 85       	ldd	r17, Z+15	; 0x0f
    5b7a:	0c 0f       	add	r16, r28
    5b7c:	1d 1f       	adc	r17, r29
    5b7e:	8f e7       	ldi	r24, 0x7F	; 127
    5b80:	99 e0       	ldi	r25, 0x09	; 9
    5b82:	0e 94 0e 3f 	call	0x7e1c	; 0x7e1c <_ZN14HardwareSerial4readEv>
    5b86:	f8 01       	movw	r30, r16
    5b88:	80 83       	st	Z, r24
    5b8a:	21 96       	adiw	r28, 0x01	; 1
    5b8c:	f7 01       	movw	r30, r14
    5b8e:	80 81       	ld	r24, Z
    5b90:	91 81       	ldd	r25, Z+1	; 0x01
    5b92:	05 97       	sbiw	r24, 0x05	; 5
    5b94:	c8 17       	cp	r28, r24
    5b96:	d9 07       	cpc	r29, r25
    5b98:	6c f3       	brlt	.-38     	; 0x5b74 <_ZN6xbeeST21getLocalATCommandDataEi+0x272>
    5b9a:	0e 94 e2 4b 	call	0x97c4	; 0x97c4 <millis>
    5b9e:	5b 01       	movw	r10, r22
    5ba0:	6c 01       	movw	r12, r24
    5ba2:	0b c0       	rjmp	.+22     	; 0x5bba <_ZN6xbeeST21getLocalATCommandDataEi+0x2b8>
    5ba4:	0e 94 e2 4b 	call	0x97c4	; 0x97c4 <millis>
    5ba8:	6a 19       	sub	r22, r10
    5baa:	7b 09       	sbc	r23, r11
    5bac:	8c 09       	sbc	r24, r12
    5bae:	9d 09       	sbc	r25, r13
    5bb0:	66 16       	cp	r6, r22
    5bb2:	77 06       	cpc	r7, r23
    5bb4:	88 06       	cpc	r8, r24
    5bb6:	99 06       	cpc	r9, r25
    5bb8:	78 f0       	brcs	.+30     	; 0x5bd8 <_ZN6xbeeST21getLocalATCommandDataEi+0x2d6>
    5bba:	8f e7       	ldi	r24, 0x7F	; 127
    5bbc:	99 e0       	ldi	r25, 0x09	; 9
    5bbe:	0e 94 e3 3e 	call	0x7dc6	; 0x7dc6 <_ZN14HardwareSerial9availableEv>
    5bc2:	18 16       	cp	r1, r24
    5bc4:	19 06       	cpc	r1, r25
    5bc6:	74 f7       	brge	.-36     	; 0x5ba4 <_ZN6xbeeST21getLocalATCommandDataEi+0x2a2>
    5bc8:	8f e7       	ldi	r24, 0x7F	; 127
    5bca:	99 e0       	ldi	r25, 0x09	; 9
    5bcc:	0e 94 0e 3f 	call	0x7e1c	; 0x7e1c <_ZN14HardwareSerial4readEv>
    5bd0:	f7 01       	movw	r30, r14
    5bd2:	80 8b       	std	Z+16, r24	; 0x10
    5bd4:	81 e0       	ldi	r24, 0x01	; 1
    5bd6:	01 c0       	rjmp	.+2      	; 0x5bda <_ZN6xbeeST21getLocalATCommandDataEi+0x2d8>
    5bd8:	80 e0       	ldi	r24, 0x00	; 0
    5bda:	df 91       	pop	r29
    5bdc:	cf 91       	pop	r28
    5bde:	1f 91       	pop	r17
    5be0:	0f 91       	pop	r16
    5be2:	ff 90       	pop	r15
    5be4:	ef 90       	pop	r14
    5be6:	df 90       	pop	r13
    5be8:	cf 90       	pop	r12
    5bea:	bf 90       	pop	r11
    5bec:	af 90       	pop	r10
    5bee:	9f 90       	pop	r9
    5bf0:	8f 90       	pop	r8
    5bf2:	7f 90       	pop	r7
    5bf4:	6f 90       	pop	r6
    5bf6:	08 95       	ret

00005bf8 <_ZN6xbeeST11getDataAutoEi>:
    5bf8:	4f 92       	push	r4
    5bfa:	5f 92       	push	r5
    5bfc:	6f 92       	push	r6
    5bfe:	7f 92       	push	r7
    5c00:	8f 92       	push	r8
    5c02:	9f 92       	push	r9
    5c04:	af 92       	push	r10
    5c06:	bf 92       	push	r11
    5c08:	cf 92       	push	r12
    5c0a:	df 92       	push	r13
    5c0c:	ef 92       	push	r14
    5c0e:	ff 92       	push	r15
    5c10:	0f 93       	push	r16
    5c12:	1f 93       	push	r17
    5c14:	cf 93       	push	r28
    5c16:	df 93       	push	r29
    5c18:	6c 01       	movw	r12, r24
    5c1a:	8b 01       	movw	r16, r22
    5c1c:	0e 94 e2 4b 	call	0x97c4	; 0x97c4 <millis>
    5c20:	2b 01       	movw	r4, r22
    5c22:	3c 01       	movw	r6, r24
    5c24:	48 01       	movw	r8, r16
    5c26:	aa 24       	eor	r10, r10
    5c28:	bb 24       	eor	r11, r11
    5c2a:	8f e7       	ldi	r24, 0x7F	; 127
    5c2c:	99 e0       	ldi	r25, 0x09	; 9
    5c2e:	0e 94 e3 3e 	call	0x7dc6	; 0x7dc6 <_ZN14HardwareSerial9availableEv>
    5c32:	18 16       	cp	r1, r24
    5c34:	19 06       	cpc	r1, r25
    5c36:	0c f0       	brlt	.+2      	; 0x5c3a <_ZN6xbeeST11getDataAutoEi+0x42>
    5c38:	8e c1       	rjmp	.+796    	; 0x5f56 <_ZN6xbeeST11getDataAutoEi+0x35e>
    5c3a:	8f e7       	ldi	r24, 0x7F	; 127
    5c3c:	99 e0       	ldi	r25, 0x09	; 9
    5c3e:	0e 94 0e 3f 	call	0x7e1c	; 0x7e1c <_ZN14HardwareSerial4readEv>
    5c42:	18 2f       	mov	r17, r24
    5c44:	0e 94 e2 4b 	call	0x97c4	; 0x97c4 <millis>
    5c48:	64 19       	sub	r22, r4
    5c4a:	75 09       	sbc	r23, r5
    5c4c:	86 09       	sbc	r24, r6
    5c4e:	97 09       	sbc	r25, r7
    5c50:	86 16       	cp	r8, r22
    5c52:	97 06       	cpc	r9, r23
    5c54:	a8 06       	cpc	r10, r24
    5c56:	b9 06       	cpc	r11, r25
    5c58:	08 f4       	brcc	.+2      	; 0x5c5c <_ZN6xbeeST11getDataAutoEi+0x64>
    5c5a:	7d c1       	rjmp	.+762    	; 0x5f56 <_ZN6xbeeST11getDataAutoEi+0x35e>
    5c5c:	1e 37       	cpi	r17, 0x7E	; 126
    5c5e:	29 f7       	brne	.-54     	; 0x5c2a <_ZN6xbeeST11getDataAutoEi+0x32>
    5c60:	0e 94 e2 4b 	call	0x97c4	; 0x97c4 <millis>
    5c64:	7b 01       	movw	r14, r22
    5c66:	8c 01       	movw	r16, r24
    5c68:	0c c0       	rjmp	.+24     	; 0x5c82 <_ZN6xbeeST11getDataAutoEi+0x8a>
    5c6a:	0e 94 e2 4b 	call	0x97c4	; 0x97c4 <millis>
    5c6e:	6e 19       	sub	r22, r14
    5c70:	7f 09       	sbc	r23, r15
    5c72:	80 0b       	sbc	r24, r16
    5c74:	91 0b       	sbc	r25, r17
    5c76:	86 16       	cp	r8, r22
    5c78:	97 06       	cpc	r9, r23
    5c7a:	a8 06       	cpc	r10, r24
    5c7c:	b9 06       	cpc	r11, r25
    5c7e:	08 f4       	brcc	.+2      	; 0x5c82 <_ZN6xbeeST11getDataAutoEi+0x8a>
    5c80:	6a c1       	rjmp	.+724    	; 0x5f56 <_ZN6xbeeST11getDataAutoEi+0x35e>
    5c82:	8f e7       	ldi	r24, 0x7F	; 127
    5c84:	99 e0       	ldi	r25, 0x09	; 9
    5c86:	0e 94 e3 3e 	call	0x7dc6	; 0x7dc6 <_ZN14HardwareSerial9availableEv>
    5c8a:	02 97       	sbiw	r24, 0x02	; 2
    5c8c:	74 f3       	brlt	.-36     	; 0x5c6a <_ZN6xbeeST11getDataAutoEi+0x72>
    5c8e:	8f e7       	ldi	r24, 0x7F	; 127
    5c90:	99 e0       	ldi	r25, 0x09	; 9
    5c92:	0e 94 e3 3e 	call	0x7dc6	; 0x7dc6 <_ZN14HardwareSerial9availableEv>
    5c96:	02 97       	sbiw	r24, 0x02	; 2
    5c98:	84 f0       	brlt	.+32     	; 0x5cba <_ZN6xbeeST11getDataAutoEi+0xc2>
    5c9a:	8f e7       	ldi	r24, 0x7F	; 127
    5c9c:	99 e0       	ldi	r25, 0x09	; 9
    5c9e:	0e 94 0e 3f 	call	0x7e1c	; 0x7e1c <_ZN14HardwareSerial4readEv>
    5ca2:	18 2f       	mov	r17, r24
    5ca4:	8f e7       	ldi	r24, 0x7F	; 127
    5ca6:	99 e0       	ldi	r25, 0x09	; 9
    5ca8:	0e 94 0e 3f 	call	0x7e1c	; 0x7e1c <_ZN14HardwareSerial4readEv>
    5cac:	31 2f       	mov	r19, r17
    5cae:	20 e0       	ldi	r18, 0x00	; 0
    5cb0:	28 0f       	add	r18, r24
    5cb2:	39 1f       	adc	r19, r25
    5cb4:	f6 01       	movw	r30, r12
    5cb6:	31 83       	std	Z+1, r19	; 0x01
    5cb8:	20 83       	st	Z, r18
    5cba:	f6 01       	movw	r30, r12
    5cbc:	80 81       	ld	r24, Z
    5cbe:	91 81       	ldd	r25, Z+1	; 0x01
    5cc0:	18 16       	cp	r1, r24
    5cc2:	19 06       	cpc	r1, r25
    5cc4:	0c f0       	brlt	.+2      	; 0x5cc8 <_ZN6xbeeST11getDataAutoEi+0xd0>
    5cc6:	45 c1       	rjmp	.+650    	; 0x5f52 <_ZN6xbeeST11getDataAutoEi+0x35a>
    5cc8:	8a e5       	ldi	r24, 0x5A	; 90
    5cca:	f6 01       	movw	r30, r12
    5ccc:	82 83       	std	Z+2, r24	; 0x02
    5cce:	0e 94 e2 4b 	call	0x97c4	; 0x97c4 <millis>
    5cd2:	7b 01       	movw	r14, r22
    5cd4:	8c 01       	movw	r16, r24
    5cd6:	0c c0       	rjmp	.+24     	; 0x5cf0 <_ZN6xbeeST11getDataAutoEi+0xf8>
    5cd8:	0e 94 e2 4b 	call	0x97c4	; 0x97c4 <millis>
    5cdc:	6e 19       	sub	r22, r14
    5cde:	7f 09       	sbc	r23, r15
    5ce0:	80 0b       	sbc	r24, r16
    5ce2:	91 0b       	sbc	r25, r17
    5ce4:	86 16       	cp	r8, r22
    5ce6:	97 06       	cpc	r9, r23
    5ce8:	a8 06       	cpc	r10, r24
    5cea:	b9 06       	cpc	r11, r25
    5cec:	08 f4       	brcc	.+2      	; 0x5cf0 <_ZN6xbeeST11getDataAutoEi+0xf8>
    5cee:	33 c1       	rjmp	.+614    	; 0x5f56 <_ZN6xbeeST11getDataAutoEi+0x35e>
    5cf0:	8f e7       	ldi	r24, 0x7F	; 127
    5cf2:	99 e0       	ldi	r25, 0x09	; 9
    5cf4:	0e 94 e3 3e 	call	0x7dc6	; 0x7dc6 <_ZN14HardwareSerial9availableEv>
    5cf8:	18 16       	cp	r1, r24
    5cfa:	19 06       	cpc	r1, r25
    5cfc:	6c f7       	brge	.-38     	; 0x5cd8 <_ZN6xbeeST11getDataAutoEi+0xe0>
    5cfe:	8f e7       	ldi	r24, 0x7F	; 127
    5d00:	99 e0       	ldi	r25, 0x09	; 9
    5d02:	0e 94 e3 3e 	call	0x7dc6	; 0x7dc6 <_ZN14HardwareSerial9availableEv>
    5d06:	18 16       	cp	r1, r24
    5d08:	19 06       	cpc	r1, r25
    5d0a:	0c f0       	brlt	.+2      	; 0x5d0e <_ZN6xbeeST11getDataAutoEi+0x116>
    5d0c:	24 c1       	rjmp	.+584    	; 0x5f56 <_ZN6xbeeST11getDataAutoEi+0x35e>
    5d0e:	8f e7       	ldi	r24, 0x7F	; 127
    5d10:	99 e0       	ldi	r25, 0x09	; 9
    5d12:	0e 94 0e 3f 	call	0x7e1c	; 0x7e1c <_ZN14HardwareSerial4readEv>
    5d16:	f6 01       	movw	r30, r12
    5d18:	82 83       	std	Z+2, r24	; 0x02
    5d1a:	13 82       	std	Z+3, r1	; 0x03
    5d1c:	14 82       	std	Z+4, r1	; 0x04
    5d1e:	15 82       	std	Z+5, r1	; 0x05
    5d20:	16 82       	std	Z+6, r1	; 0x06
    5d22:	17 82       	std	Z+7, r1	; 0x07
    5d24:	10 86       	std	Z+8, r1	; 0x08
    5d26:	11 86       	std	Z+9, r1	; 0x09
    5d28:	12 86       	std	Z+10, r1	; 0x0a
    5d2a:	0e 94 e2 4b 	call	0x97c4	; 0x97c4 <millis>
    5d2e:	7b 01       	movw	r14, r22
    5d30:	8c 01       	movw	r16, r24
    5d32:	0c c0       	rjmp	.+24     	; 0x5d4c <_ZN6xbeeST11getDataAutoEi+0x154>
    5d34:	0e 94 e2 4b 	call	0x97c4	; 0x97c4 <millis>
    5d38:	6e 19       	sub	r22, r14
    5d3a:	7f 09       	sbc	r23, r15
    5d3c:	80 0b       	sbc	r24, r16
    5d3e:	91 0b       	sbc	r25, r17
    5d40:	86 16       	cp	r8, r22
    5d42:	97 06       	cpc	r9, r23
    5d44:	a8 06       	cpc	r10, r24
    5d46:	b9 06       	cpc	r11, r25
    5d48:	08 f4       	brcc	.+2      	; 0x5d4c <_ZN6xbeeST11getDataAutoEi+0x154>
    5d4a:	05 c1       	rjmp	.+522    	; 0x5f56 <_ZN6xbeeST11getDataAutoEi+0x35e>
    5d4c:	8f e7       	ldi	r24, 0x7F	; 127
    5d4e:	99 e0       	ldi	r25, 0x09	; 9
    5d50:	0e 94 e3 3e 	call	0x7dc6	; 0x7dc6 <_ZN14HardwareSerial9availableEv>
    5d54:	08 97       	sbiw	r24, 0x08	; 8
    5d56:	74 f3       	brlt	.-36     	; 0x5d34 <_ZN6xbeeST11getDataAutoEi+0x13c>
    5d58:	8f e7       	ldi	r24, 0x7F	; 127
    5d5a:	99 e0       	ldi	r25, 0x09	; 9
    5d5c:	0e 94 e3 3e 	call	0x7dc6	; 0x7dc6 <_ZN14HardwareSerial9availableEv>
    5d60:	08 97       	sbiw	r24, 0x08	; 8
    5d62:	0c f4       	brge	.+2      	; 0x5d66 <_ZN6xbeeST11getDataAutoEi+0x16e>
    5d64:	f8 c0       	rjmp	.+496    	; 0x5f56 <_ZN6xbeeST11getDataAutoEi+0x35e>
    5d66:	c0 e0       	ldi	r28, 0x00	; 0
    5d68:	d0 e0       	ldi	r29, 0x00	; 0
    5d6a:	08 e1       	ldi	r16, 0x18	; 24
    5d6c:	10 e0       	ldi	r17, 0x00	; 0
    5d6e:	8f e7       	ldi	r24, 0x7F	; 127
    5d70:	99 e0       	ldi	r25, 0x09	; 9
    5d72:	0e 94 0e 3f 	call	0x7e1c	; 0x7e1c <_ZN14HardwareSerial4readEv>
    5d76:	28 2f       	mov	r18, r24
    5d78:	30 e0       	ldi	r19, 0x00	; 0
    5d7a:	40 e0       	ldi	r20, 0x00	; 0
    5d7c:	50 e0       	ldi	r21, 0x00	; 0
    5d7e:	c4 30       	cpi	r28, 0x04	; 4
    5d80:	d1 05       	cpc	r29, r1
    5d82:	b4 f4       	brge	.+44     	; 0x5db0 <_ZN6xbeeST11getDataAutoEi+0x1b8>
    5d84:	00 2e       	mov	r0, r16
    5d86:	04 c0       	rjmp	.+8      	; 0x5d90 <_ZN6xbeeST11getDataAutoEi+0x198>
    5d88:	22 0f       	add	r18, r18
    5d8a:	33 1f       	adc	r19, r19
    5d8c:	44 1f       	adc	r20, r20
    5d8e:	55 1f       	adc	r21, r21
    5d90:	0a 94       	dec	r0
    5d92:	d2 f7       	brpl	.-12     	; 0x5d88 <_ZN6xbeeST11getDataAutoEi+0x190>
    5d94:	f6 01       	movw	r30, r12
    5d96:	83 81       	ldd	r24, Z+3	; 0x03
    5d98:	94 81       	ldd	r25, Z+4	; 0x04
    5d9a:	a5 81       	ldd	r26, Z+5	; 0x05
    5d9c:	b6 81       	ldd	r27, Z+6	; 0x06
    5d9e:	82 0f       	add	r24, r18
    5da0:	93 1f       	adc	r25, r19
    5da2:	a4 1f       	adc	r26, r20
    5da4:	b5 1f       	adc	r27, r21
    5da6:	83 83       	std	Z+3, r24	; 0x03
    5da8:	94 83       	std	Z+4, r25	; 0x04
    5daa:	a5 83       	std	Z+5, r26	; 0x05
    5dac:	b6 83       	std	Z+6, r27	; 0x06
    5dae:	19 c0       	rjmp	.+50     	; 0x5de2 <_ZN6xbeeST11getDataAutoEi+0x1ea>
    5db0:	00 5e       	subi	r16, 0xE0	; 224
    5db2:	1f 4f       	sbci	r17, 0xFF	; 255
    5db4:	00 2e       	mov	r0, r16
    5db6:	04 c0       	rjmp	.+8      	; 0x5dc0 <_ZN6xbeeST11getDataAutoEi+0x1c8>
    5db8:	22 0f       	add	r18, r18
    5dba:	33 1f       	adc	r19, r19
    5dbc:	44 1f       	adc	r20, r20
    5dbe:	55 1f       	adc	r21, r21
    5dc0:	0a 94       	dec	r0
    5dc2:	d2 f7       	brpl	.-12     	; 0x5db8 <_ZN6xbeeST11getDataAutoEi+0x1c0>
    5dc4:	00 52       	subi	r16, 0x20	; 32
    5dc6:	10 40       	sbci	r17, 0x00	; 0
    5dc8:	f6 01       	movw	r30, r12
    5dca:	87 81       	ldd	r24, Z+7	; 0x07
    5dcc:	90 85       	ldd	r25, Z+8	; 0x08
    5dce:	a1 85       	ldd	r26, Z+9	; 0x09
    5dd0:	b2 85       	ldd	r27, Z+10	; 0x0a
    5dd2:	82 0f       	add	r24, r18
    5dd4:	93 1f       	adc	r25, r19
    5dd6:	a4 1f       	adc	r26, r20
    5dd8:	b5 1f       	adc	r27, r21
    5dda:	87 83       	std	Z+7, r24	; 0x07
    5ddc:	90 87       	std	Z+8, r25	; 0x08
    5dde:	a1 87       	std	Z+9, r26	; 0x09
    5de0:	b2 87       	std	Z+10, r27	; 0x0a
    5de2:	21 96       	adiw	r28, 0x01	; 1
    5de4:	08 50       	subi	r16, 0x08	; 8
    5de6:	10 40       	sbci	r17, 0x00	; 0
    5de8:	c8 30       	cpi	r28, 0x08	; 8
    5dea:	d1 05       	cpc	r29, r1
    5dec:	09 f0       	breq	.+2      	; 0x5df0 <_ZN6xbeeST11getDataAutoEi+0x1f8>
    5dee:	bf cf       	rjmp	.-130    	; 0x5d6e <_ZN6xbeeST11getDataAutoEi+0x176>
    5df0:	0e 94 e2 4b 	call	0x97c4	; 0x97c4 <millis>
    5df4:	7b 01       	movw	r14, r22
    5df6:	8c 01       	movw	r16, r24
    5df8:	8f e7       	ldi	r24, 0x7F	; 127
    5dfa:	99 e0       	ldi	r25, 0x09	; 9
    5dfc:	0e 94 e3 3e 	call	0x7dc6	; 0x7dc6 <_ZN14HardwareSerial9availableEv>
    5e00:	02 97       	sbiw	r24, 0x02	; 2
    5e02:	d4 f3       	brlt	.-12     	; 0x5df8 <_ZN6xbeeST11getDataAutoEi+0x200>
    5e04:	0e 94 e2 4b 	call	0x97c4	; 0x97c4 <millis>
    5e08:	6e 19       	sub	r22, r14
    5e0a:	7f 09       	sbc	r23, r15
    5e0c:	80 0b       	sbc	r24, r16
    5e0e:	91 0b       	sbc	r25, r17
    5e10:	86 16       	cp	r8, r22
    5e12:	97 06       	cpc	r9, r23
    5e14:	a8 06       	cpc	r10, r24
    5e16:	b9 06       	cpc	r11, r25
    5e18:	08 f4       	brcc	.+2      	; 0x5e1c <_ZN6xbeeST11getDataAutoEi+0x224>
    5e1a:	9d c0       	rjmp	.+314    	; 0x5f56 <_ZN6xbeeST11getDataAutoEi+0x35e>
    5e1c:	8f e7       	ldi	r24, 0x7F	; 127
    5e1e:	99 e0       	ldi	r25, 0x09	; 9
    5e20:	0e 94 0e 3f 	call	0x7e1c	; 0x7e1c <_ZN14HardwareSerial4readEv>
    5e24:	18 2f       	mov	r17, r24
    5e26:	8f e7       	ldi	r24, 0x7F	; 127
    5e28:	99 e0       	ldi	r25, 0x09	; 9
    5e2a:	0e 94 0e 3f 	call	0x7e1c	; 0x7e1c <_ZN14HardwareSerial4readEv>
    5e2e:	31 2f       	mov	r19, r17
    5e30:	20 e0       	ldi	r18, 0x00	; 0
    5e32:	28 0f       	add	r18, r24
    5e34:	39 1f       	adc	r19, r25
    5e36:	f6 01       	movw	r30, r12
    5e38:	34 87       	std	Z+12, r19	; 0x0c
    5e3a:	23 87       	std	Z+11, r18	; 0x0b
    5e3c:	0e 94 e2 4b 	call	0x97c4	; 0x97c4 <millis>
    5e40:	7b 01       	movw	r14, r22
    5e42:	8c 01       	movw	r16, r24
    5e44:	0c c0       	rjmp	.+24     	; 0x5e5e <_ZN6xbeeST11getDataAutoEi+0x266>
    5e46:	0e 94 e2 4b 	call	0x97c4	; 0x97c4 <millis>
    5e4a:	6e 19       	sub	r22, r14
    5e4c:	7f 09       	sbc	r23, r15
    5e4e:	80 0b       	sbc	r24, r16
    5e50:	91 0b       	sbc	r25, r17
    5e52:	86 16       	cp	r8, r22
    5e54:	97 06       	cpc	r9, r23
    5e56:	a8 06       	cpc	r10, r24
    5e58:	b9 06       	cpc	r11, r25
    5e5a:	08 f4       	brcc	.+2      	; 0x5e5e <_ZN6xbeeST11getDataAutoEi+0x266>
    5e5c:	7c c0       	rjmp	.+248    	; 0x5f56 <_ZN6xbeeST11getDataAutoEi+0x35e>
    5e5e:	8f e7       	ldi	r24, 0x7F	; 127
    5e60:	99 e0       	ldi	r25, 0x09	; 9
    5e62:	0e 94 e3 3e 	call	0x7dc6	; 0x7dc6 <_ZN14HardwareSerial9availableEv>
    5e66:	18 16       	cp	r1, r24
    5e68:	19 06       	cpc	r1, r25
    5e6a:	6c f7       	brge	.-38     	; 0x5e46 <_ZN6xbeeST11getDataAutoEi+0x24e>
    5e6c:	8f e7       	ldi	r24, 0x7F	; 127
    5e6e:	99 e0       	ldi	r25, 0x09	; 9
    5e70:	0e 94 0e 3f 	call	0x7e1c	; 0x7e1c <_ZN14HardwareSerial4readEv>
    5e74:	f6 01       	movw	r30, r12
    5e76:	85 87       	std	Z+13, r24	; 0x0d
    5e78:	0e 94 e2 4b 	call	0x97c4	; 0x97c4 <millis>
    5e7c:	7b 01       	movw	r14, r22
    5e7e:	8c 01       	movw	r16, r24
    5e80:	f6 01       	movw	r30, r12
    5e82:	80 81       	ld	r24, Z
    5e84:	91 81       	ldd	r25, Z+1	; 0x01
    5e86:	0c 97       	sbiw	r24, 0x0c	; 12
    5e88:	92 8b       	std	Z+18, r25	; 0x12
    5e8a:	81 8b       	std	Z+17, r24	; 0x11
    5e8c:	0c c0       	rjmp	.+24     	; 0x5ea6 <_ZN6xbeeST11getDataAutoEi+0x2ae>
    5e8e:	0e 94 e2 4b 	call	0x97c4	; 0x97c4 <millis>
    5e92:	6e 19       	sub	r22, r14
    5e94:	7f 09       	sbc	r23, r15
    5e96:	80 0b       	sbc	r24, r16
    5e98:	91 0b       	sbc	r25, r17
    5e9a:	86 16       	cp	r8, r22
    5e9c:	97 06       	cpc	r9, r23
    5e9e:	a8 06       	cpc	r10, r24
    5ea0:	b9 06       	cpc	r11, r25
    5ea2:	08 f4       	brcc	.+2      	; 0x5ea6 <_ZN6xbeeST11getDataAutoEi+0x2ae>
    5ea4:	58 c0       	rjmp	.+176    	; 0x5f56 <_ZN6xbeeST11getDataAutoEi+0x35e>
    5ea6:	8f e7       	ldi	r24, 0x7F	; 127
    5ea8:	99 e0       	ldi	r25, 0x09	; 9
    5eaa:	0e 94 e3 3e 	call	0x7dc6	; 0x7dc6 <_ZN14HardwareSerial9availableEv>
    5eae:	f6 01       	movw	r30, r12
    5eb0:	20 81       	ld	r18, Z
    5eb2:	31 81       	ldd	r19, Z+1	; 0x01
    5eb4:	2c 50       	subi	r18, 0x0C	; 12
    5eb6:	30 40       	sbci	r19, 0x00	; 0
    5eb8:	82 17       	cp	r24, r18
    5eba:	93 07       	cpc	r25, r19
    5ebc:	44 f3       	brlt	.-48     	; 0x5e8e <_ZN6xbeeST11getDataAutoEi+0x296>
    5ebe:	80 91 6b 07 	lds	r24, 0x076B
    5ec2:	88 23       	and	r24, r24
    5ec4:	29 f0       	breq	.+10     	; 0x5ed0 <_ZN6xbeeST11getDataAutoEi+0x2d8>
    5ec6:	86 85       	ldd	r24, Z+14	; 0x0e
    5ec8:	97 85       	ldd	r25, Z+15	; 0x0f
    5eca:	0e 94 d9 08 	call	0x11b2	; 0x11b2 <free>
    5ece:	03 c0       	rjmp	.+6      	; 0x5ed6 <_ZN6xbeeST11getDataAutoEi+0x2de>
    5ed0:	81 e0       	ldi	r24, 0x01	; 1
    5ed2:	80 93 6b 07 	sts	0x076B, r24
    5ed6:	f6 01       	movw	r30, r12
    5ed8:	80 81       	ld	r24, Z
    5eda:	91 81       	ldd	r25, Z+1	; 0x01
    5edc:	0c 97       	sbiw	r24, 0x0c	; 12
    5ede:	0e 94 2f 08 	call	0x105e	; 0x105e <malloc>
    5ee2:	f6 01       	movw	r30, r12
    5ee4:	97 87       	std	Z+15, r25	; 0x0f
    5ee6:	86 87       	std	Z+14, r24	; 0x0e
    5ee8:	00 97       	sbiw	r24, 0x00	; 0
    5eea:	a9 f1       	breq	.+106    	; 0x5f56 <_ZN6xbeeST11getDataAutoEi+0x35e>
    5eec:	c0 e0       	ldi	r28, 0x00	; 0
    5eee:	d0 e0       	ldi	r29, 0x00	; 0
    5ef0:	0c c0       	rjmp	.+24     	; 0x5f0a <_ZN6xbeeST11getDataAutoEi+0x312>
    5ef2:	f6 01       	movw	r30, r12
    5ef4:	06 85       	ldd	r16, Z+14	; 0x0e
    5ef6:	17 85       	ldd	r17, Z+15	; 0x0f
    5ef8:	0c 0f       	add	r16, r28
    5efa:	1d 1f       	adc	r17, r29
    5efc:	8f e7       	ldi	r24, 0x7F	; 127
    5efe:	99 e0       	ldi	r25, 0x09	; 9
    5f00:	0e 94 0e 3f 	call	0x7e1c	; 0x7e1c <_ZN14HardwareSerial4readEv>
    5f04:	f8 01       	movw	r30, r16
    5f06:	80 83       	st	Z, r24
    5f08:	21 96       	adiw	r28, 0x01	; 1
    5f0a:	f6 01       	movw	r30, r12
    5f0c:	80 81       	ld	r24, Z
    5f0e:	91 81       	ldd	r25, Z+1	; 0x01
    5f10:	0c 97       	sbiw	r24, 0x0c	; 12
    5f12:	c8 17       	cp	r28, r24
    5f14:	d9 07       	cpc	r29, r25
    5f16:	6c f3       	brlt	.-38     	; 0x5ef2 <_ZN6xbeeST11getDataAutoEi+0x2fa>
    5f18:	0e 94 e2 4b 	call	0x97c4	; 0x97c4 <millis>
    5f1c:	7b 01       	movw	r14, r22
    5f1e:	8c 01       	movw	r16, r24
    5f20:	0b c0       	rjmp	.+22     	; 0x5f38 <_ZN6xbeeST11getDataAutoEi+0x340>
    5f22:	0e 94 e2 4b 	call	0x97c4	; 0x97c4 <millis>
    5f26:	6e 19       	sub	r22, r14
    5f28:	7f 09       	sbc	r23, r15
    5f2a:	80 0b       	sbc	r24, r16
    5f2c:	91 0b       	sbc	r25, r17
    5f2e:	86 16       	cp	r8, r22
    5f30:	97 06       	cpc	r9, r23
    5f32:	a8 06       	cpc	r10, r24
    5f34:	b9 06       	cpc	r11, r25
    5f36:	78 f0       	brcs	.+30     	; 0x5f56 <_ZN6xbeeST11getDataAutoEi+0x35e>
    5f38:	8f e7       	ldi	r24, 0x7F	; 127
    5f3a:	99 e0       	ldi	r25, 0x09	; 9
    5f3c:	0e 94 e3 3e 	call	0x7dc6	; 0x7dc6 <_ZN14HardwareSerial9availableEv>
    5f40:	18 16       	cp	r1, r24
    5f42:	19 06       	cpc	r1, r25
    5f44:	74 f7       	brge	.-36     	; 0x5f22 <_ZN6xbeeST11getDataAutoEi+0x32a>
    5f46:	8f e7       	ldi	r24, 0x7F	; 127
    5f48:	99 e0       	ldi	r25, 0x09	; 9
    5f4a:	0e 94 0e 3f 	call	0x7e1c	; 0x7e1c <_ZN14HardwareSerial4readEv>
    5f4e:	f6 01       	movw	r30, r12
    5f50:	80 8b       	std	Z+16, r24	; 0x10
    5f52:	81 e0       	ldi	r24, 0x01	; 1
    5f54:	01 c0       	rjmp	.+2      	; 0x5f58 <_ZN6xbeeST11getDataAutoEi+0x360>
    5f56:	80 e0       	ldi	r24, 0x00	; 0
    5f58:	df 91       	pop	r29
    5f5a:	cf 91       	pop	r28
    5f5c:	1f 91       	pop	r17
    5f5e:	0f 91       	pop	r16
    5f60:	ff 90       	pop	r15
    5f62:	ef 90       	pop	r14
    5f64:	df 90       	pop	r13
    5f66:	cf 90       	pop	r12
    5f68:	bf 90       	pop	r11
    5f6a:	af 90       	pop	r10
    5f6c:	9f 90       	pop	r9
    5f6e:	8f 90       	pop	r8
    5f70:	7f 90       	pop	r7
    5f72:	6f 90       	pop	r6
    5f74:	5f 90       	pop	r5
    5f76:	4f 90       	pop	r4
    5f78:	08 95       	ret

00005f7a <_ZN6xbeeST8sendDataEPhiPli>:
    5f7a:	4f 92       	push	r4
    5f7c:	5f 92       	push	r5
    5f7e:	6f 92       	push	r6
    5f80:	7f 92       	push	r7
    5f82:	8f 92       	push	r8
    5f84:	9f 92       	push	r9
    5f86:	bf 92       	push	r11
    5f88:	cf 92       	push	r12
    5f8a:	df 92       	push	r13
    5f8c:	ef 92       	push	r14
    5f8e:	ff 92       	push	r15
    5f90:	0f 93       	push	r16
    5f92:	1f 93       	push	r17
    5f94:	cf 93       	push	r28
    5f96:	df 93       	push	r29
    5f98:	2b 01       	movw	r4, r22
    5f9a:	3a 01       	movw	r6, r20
    5f9c:	f2 2e       	mov	r15, r18
    5f9e:	e3 2e       	mov	r14, r19
    5fa0:	48 01       	movw	r8, r16
    5fa2:	80 91 51 05 	lds	r24, 0x0551
    5fa6:	8f 5f       	subi	r24, 0xFF	; 255
    5fa8:	80 93 51 05 	sts	0x0551, r24
    5fac:	88 23       	and	r24, r24
    5fae:	19 f4       	brne	.+6      	; 0x5fb6 <_ZN6xbeeST8sendDataEPhiPli+0x3c>
    5fb0:	81 e0       	ldi	r24, 0x01	; 1
    5fb2:	80 93 51 05 	sts	0x0551, r24
    5fb6:	8f e7       	ldi	r24, 0x7F	; 127
    5fb8:	99 e0       	ldi	r25, 0x09	; 9
    5fba:	6e e7       	ldi	r22, 0x7E	; 126
    5fbc:	70 e0       	ldi	r23, 0x00	; 0
    5fbe:	40 e0       	ldi	r20, 0x00	; 0
    5fc0:	50 e0       	ldi	r21, 0x00	; 0
    5fc2:	0e 94 8a 41 	call	0x8314	; 0x8314 <_ZN5Print5printEii>
    5fc6:	8f e7       	ldi	r24, 0x7F	; 127
    5fc8:	99 e0       	ldi	r25, 0x09	; 9
    5fca:	60 e0       	ldi	r22, 0x00	; 0
    5fcc:	70 e0       	ldi	r23, 0x00	; 0
    5fce:	40 e0       	ldi	r20, 0x00	; 0
    5fd0:	50 e0       	ldi	r21, 0x00	; 0
    5fd2:	0e 94 8a 41 	call	0x8314	; 0x8314 <_ZN5Print5printEii>
    5fd6:	b3 01       	movw	r22, r6
    5fd8:	62 5f       	subi	r22, 0xF2	; 242
    5fda:	7f 4f       	sbci	r23, 0xFF	; 255
    5fdc:	8f e7       	ldi	r24, 0x7F	; 127
    5fde:	99 e0       	ldi	r25, 0x09	; 9
    5fe0:	40 e0       	ldi	r20, 0x00	; 0
    5fe2:	50 e0       	ldi	r21, 0x00	; 0
    5fe4:	0e 94 8a 41 	call	0x8314	; 0x8314 <_ZN5Print5printEii>
    5fe8:	8f e7       	ldi	r24, 0x7F	; 127
    5fea:	99 e0       	ldi	r25, 0x09	; 9
    5fec:	60 e1       	ldi	r22, 0x10	; 16
    5fee:	70 e0       	ldi	r23, 0x00	; 0
    5ff0:	40 e0       	ldi	r20, 0x00	; 0
    5ff2:	50 e0       	ldi	r21, 0x00	; 0
    5ff4:	0e 94 8a 41 	call	0x8314	; 0x8314 <_ZN5Print5printEii>
    5ff8:	8f e7       	ldi	r24, 0x7F	; 127
    5ffa:	99 e0       	ldi	r25, 0x09	; 9
    5ffc:	60 91 51 05 	lds	r22, 0x0551
    6000:	40 e0       	ldi	r20, 0x00	; 0
    6002:	50 e0       	ldi	r21, 0x00	; 0
    6004:	0e 94 42 41 	call	0x8284	; 0x8284 <_ZN5Print5printEhi>
    6008:	af ee       	ldi	r26, 0xEF	; 239
    600a:	ba 2e       	mov	r11, r26
    600c:	80 91 51 05 	lds	r24, 0x0551
    6010:	b8 1a       	sub	r11, r24
    6012:	2f 2d       	mov	r18, r15
    6014:	3e 2d       	mov	r19, r14
    6016:	c9 01       	movw	r24, r18
    6018:	6c 01       	movw	r12, r24
    601a:	ee 24       	eor	r14, r14
    601c:	ff 24       	eor	r15, r15
    601e:	26 c0       	rjmp	.+76     	; 0x606c <_ZN6xbeeST8sendDataEPhiPli+0xf2>
    6020:	f6 01       	movw	r30, r12
    6022:	20 81       	ld	r18, Z
    6024:	31 81       	ldd	r19, Z+1	; 0x01
    6026:	42 81       	ldd	r20, Z+2	; 0x02
    6028:	53 81       	ldd	r21, Z+3	; 0x03
    602a:	0c 2e       	mov	r0, r28
    602c:	04 c0       	rjmp	.+8      	; 0x6036 <_ZN6xbeeST8sendDataEPhiPli+0xbc>
    602e:	55 95       	asr	r21
    6030:	47 95       	ror	r20
    6032:	37 95       	ror	r19
    6034:	27 95       	ror	r18
    6036:	0a 94       	dec	r0
    6038:	d2 f7       	brpl	.-12     	; 0x602e <_ZN6xbeeST8sendDataEPhiPli+0xb4>
    603a:	12 2f       	mov	r17, r18
    603c:	8f e7       	ldi	r24, 0x7F	; 127
    603e:	99 e0       	ldi	r25, 0x09	; 9
    6040:	62 2f       	mov	r22, r18
    6042:	40 e0       	ldi	r20, 0x00	; 0
    6044:	50 e0       	ldi	r21, 0x00	; 0
    6046:	0e 94 42 41 	call	0x8284	; 0x8284 <_ZN5Print5printEhi>
    604a:	b1 1a       	sub	r11, r17
    604c:	28 97       	sbiw	r28, 0x08	; 8
    604e:	ff ef       	ldi	r31, 0xFF	; 255
    6050:	c8 3f       	cpi	r28, 0xF8	; 248
    6052:	df 07       	cpc	r29, r31
    6054:	29 f7       	brne	.-54     	; 0x6020 <_ZN6xbeeST8sendDataEPhiPli+0xa6>
    6056:	08 94       	sec
    6058:	e1 1c       	adc	r14, r1
    605a:	f1 1c       	adc	r15, r1
    605c:	84 e0       	ldi	r24, 0x04	; 4
    605e:	90 e0       	ldi	r25, 0x00	; 0
    6060:	c8 0e       	add	r12, r24
    6062:	d9 1e       	adc	r13, r25
    6064:	92 e0       	ldi	r25, 0x02	; 2
    6066:	e9 16       	cp	r14, r25
    6068:	f1 04       	cpc	r15, r1
    606a:	19 f0       	breq	.+6      	; 0x6072 <_ZN6xbeeST8sendDataEPhiPli+0xf8>
    606c:	c8 e1       	ldi	r28, 0x18	; 24
    606e:	d0 e0       	ldi	r29, 0x00	; 0
    6070:	d7 cf       	rjmp	.-82     	; 0x6020 <_ZN6xbeeST8sendDataEPhiPli+0xa6>
    6072:	69 2d       	mov	r22, r9
    6074:	77 27       	eor	r23, r23
    6076:	67 fd       	sbrc	r22, 7
    6078:	7a 95       	dec	r23
    607a:	06 2f       	mov	r16, r22
    607c:	8f e7       	ldi	r24, 0x7F	; 127
    607e:	99 e0       	ldi	r25, 0x09	; 9
    6080:	40 e0       	ldi	r20, 0x00	; 0
    6082:	50 e0       	ldi	r21, 0x00	; 0
    6084:	0e 94 42 41 	call	0x8284	; 0x8284 <_ZN5Print5printEhi>
    6088:	b0 1a       	sub	r11, r16
    608a:	0b 2d       	mov	r16, r11
    608c:	8f e7       	ldi	r24, 0x7F	; 127
    608e:	99 e0       	ldi	r25, 0x09	; 9
    6090:	68 2d       	mov	r22, r8
    6092:	40 e0       	ldi	r20, 0x00	; 0
    6094:	50 e0       	ldi	r21, 0x00	; 0
    6096:	0e 94 42 41 	call	0x8284	; 0x8284 <_ZN5Print5printEhi>
    609a:	08 19       	sub	r16, r8
    609c:	8f e7       	ldi	r24, 0x7F	; 127
    609e:	99 e0       	ldi	r25, 0x09	; 9
    60a0:	60 e0       	ldi	r22, 0x00	; 0
    60a2:	70 e0       	ldi	r23, 0x00	; 0
    60a4:	40 e0       	ldi	r20, 0x00	; 0
    60a6:	50 e0       	ldi	r21, 0x00	; 0
    60a8:	0e 94 8a 41 	call	0x8314	; 0x8314 <_ZN5Print5printEii>
    60ac:	8f e7       	ldi	r24, 0x7F	; 127
    60ae:	99 e0       	ldi	r25, 0x09	; 9
    60b0:	60 e0       	ldi	r22, 0x00	; 0
    60b2:	70 e0       	ldi	r23, 0x00	; 0
    60b4:	40 e0       	ldi	r20, 0x00	; 0
    60b6:	50 e0       	ldi	r21, 0x00	; 0
    60b8:	0e 94 8a 41 	call	0x8314	; 0x8314 <_ZN5Print5printEii>
    60bc:	c0 e0       	ldi	r28, 0x00	; 0
    60be:	d0 e0       	ldi	r29, 0x00	; 0
    60c0:	0d c0       	rjmp	.+26     	; 0x60dc <_ZN6xbeeST8sendDataEPhiPli+0x162>
    60c2:	f2 01       	movw	r30, r4
    60c4:	ec 0f       	add	r30, r28
    60c6:	fd 1f       	adc	r31, r29
    60c8:	10 81       	ld	r17, Z
    60ca:	8f e7       	ldi	r24, 0x7F	; 127
    60cc:	99 e0       	ldi	r25, 0x09	; 9
    60ce:	61 2f       	mov	r22, r17
    60d0:	40 e0       	ldi	r20, 0x00	; 0
    60d2:	50 e0       	ldi	r21, 0x00	; 0
    60d4:	0e 94 42 41 	call	0x8284	; 0x8284 <_ZN5Print5printEhi>
    60d8:	01 1b       	sub	r16, r17
    60da:	21 96       	adiw	r28, 0x01	; 1
    60dc:	c6 15       	cp	r28, r6
    60de:	d7 05       	cpc	r29, r7
    60e0:	84 f3       	brlt	.-32     	; 0x60c2 <_ZN6xbeeST8sendDataEPhiPli+0x148>
    60e2:	8f e7       	ldi	r24, 0x7F	; 127
    60e4:	99 e0       	ldi	r25, 0x09	; 9
    60e6:	60 2f       	mov	r22, r16
    60e8:	40 e0       	ldi	r20, 0x00	; 0
    60ea:	50 e0       	ldi	r21, 0x00	; 0
    60ec:	0e 94 42 41 	call	0x8284	; 0x8284 <_ZN5Print5printEhi>
    60f0:	81 e0       	ldi	r24, 0x01	; 1
    60f2:	df 91       	pop	r29
    60f4:	cf 91       	pop	r28
    60f6:	1f 91       	pop	r17
    60f8:	0f 91       	pop	r16
    60fa:	ff 90       	pop	r15
    60fc:	ef 90       	pop	r14
    60fe:	df 90       	pop	r13
    6100:	cf 90       	pop	r12
    6102:	bf 90       	pop	r11
    6104:	9f 90       	pop	r9
    6106:	8f 90       	pop	r8
    6108:	7f 90       	pop	r7
    610a:	6f 90       	pop	r6
    610c:	5f 90       	pop	r5
    610e:	4f 90       	pop	r4
    6110:	08 95       	ret

00006112 <_ZN6xbeeST13sendAtCommandEPlPci>:
    6112:	7f 92       	push	r7
    6114:	8f 92       	push	r8
    6116:	9f 92       	push	r9
    6118:	af 92       	push	r10
    611a:	bf 92       	push	r11
    611c:	cf 92       	push	r12
    611e:	df 92       	push	r13
    6120:	ef 92       	push	r14
    6122:	ff 92       	push	r15
    6124:	0f 93       	push	r16
    6126:	1f 93       	push	r17
    6128:	cf 93       	push	r28
    612a:	df 93       	push	r29
    612c:	f6 2e       	mov	r15, r22
    612e:	e7 2e       	mov	r14, r23
    6130:	5a 01       	movw	r10, r20
    6132:	49 01       	movw	r8, r18
    6134:	80 91 4d 05 	lds	r24, 0x054D
    6138:	8f 5f       	subi	r24, 0xFF	; 255
    613a:	80 93 4d 05 	sts	0x054D, r24
    613e:	88 23       	and	r24, r24
    6140:	19 f4       	brne	.+6      	; 0x6148 <_ZN6xbeeST13sendAtCommandEPlPci+0x36>
    6142:	81 e0       	ldi	r24, 0x01	; 1
    6144:	80 93 4d 05 	sts	0x054D, r24
    6148:	d5 01       	movw	r26, r10
    614a:	0d 90       	ld	r0, X+
    614c:	00 20       	and	r0, r0
    614e:	e9 f7       	brne	.-6      	; 0x614a <_ZN6xbeeST13sendAtCommandEPlPci+0x38>
    6150:	8d 01       	movw	r16, r26
    6152:	01 50       	subi	r16, 0x01	; 1
    6154:	10 40       	sbci	r17, 0x00	; 0
    6156:	0a 19       	sub	r16, r10
    6158:	1b 09       	sbc	r17, r11
    615a:	8f e7       	ldi	r24, 0x7F	; 127
    615c:	99 e0       	ldi	r25, 0x09	; 9
    615e:	6e e7       	ldi	r22, 0x7E	; 126
    6160:	70 e0       	ldi	r23, 0x00	; 0
    6162:	40 e0       	ldi	r20, 0x00	; 0
    6164:	50 e0       	ldi	r21, 0x00	; 0
    6166:	0e 94 8a 41 	call	0x8314	; 0x8314 <_ZN5Print5printEii>
    616a:	8f e7       	ldi	r24, 0x7F	; 127
    616c:	99 e0       	ldi	r25, 0x09	; 9
    616e:	60 e0       	ldi	r22, 0x00	; 0
    6170:	70 e0       	ldi	r23, 0x00	; 0
    6172:	40 e0       	ldi	r20, 0x00	; 0
    6174:	50 e0       	ldi	r21, 0x00	; 0
    6176:	0e 94 8a 41 	call	0x8314	; 0x8314 <_ZN5Print5printEii>
    617a:	03 5f       	subi	r16, 0xF3	; 243
    617c:	1f 4f       	sbci	r17, 0xFF	; 255
    617e:	8f e7       	ldi	r24, 0x7F	; 127
    6180:	99 e0       	ldi	r25, 0x09	; 9
    6182:	b8 01       	movw	r22, r16
    6184:	40 e0       	ldi	r20, 0x00	; 0
    6186:	50 e0       	ldi	r21, 0x00	; 0
    6188:	0e 94 8a 41 	call	0x8314	; 0x8314 <_ZN5Print5printEii>
    618c:	8f e7       	ldi	r24, 0x7F	; 127
    618e:	99 e0       	ldi	r25, 0x09	; 9
    6190:	67 e1       	ldi	r22, 0x17	; 23
    6192:	70 e0       	ldi	r23, 0x00	; 0
    6194:	40 e0       	ldi	r20, 0x00	; 0
    6196:	50 e0       	ldi	r21, 0x00	; 0
    6198:	0e 94 8a 41 	call	0x8314	; 0x8314 <_ZN5Print5printEii>
    619c:	8f e7       	ldi	r24, 0x7F	; 127
    619e:	99 e0       	ldi	r25, 0x09	; 9
    61a0:	60 91 4d 05 	lds	r22, 0x054D
    61a4:	40 e0       	ldi	r20, 0x00	; 0
    61a6:	50 e0       	ldi	r21, 0x00	; 0
    61a8:	0e 94 42 41 	call	0x8284	; 0x8284 <_ZN5Print5printEhi>
    61ac:	18 ee       	ldi	r17, 0xE8	; 232
    61ae:	71 2e       	mov	r7, r17
    61b0:	80 91 4d 05 	lds	r24, 0x054D
    61b4:	78 1a       	sub	r7, r24
    61b6:	2f 2d       	mov	r18, r15
    61b8:	3e 2d       	mov	r19, r14
    61ba:	c9 01       	movw	r24, r18
    61bc:	6c 01       	movw	r12, r24
    61be:	ee 24       	eor	r14, r14
    61c0:	ff 24       	eor	r15, r15
    61c2:	26 c0       	rjmp	.+76     	; 0x6210 <_ZN6xbeeST13sendAtCommandEPlPci+0xfe>
    61c4:	f6 01       	movw	r30, r12
    61c6:	20 81       	ld	r18, Z
    61c8:	31 81       	ldd	r19, Z+1	; 0x01
    61ca:	42 81       	ldd	r20, Z+2	; 0x02
    61cc:	53 81       	ldd	r21, Z+3	; 0x03
    61ce:	0c 2e       	mov	r0, r28
    61d0:	04 c0       	rjmp	.+8      	; 0x61da <_ZN6xbeeST13sendAtCommandEPlPci+0xc8>
    61d2:	55 95       	asr	r21
    61d4:	47 95       	ror	r20
    61d6:	37 95       	ror	r19
    61d8:	27 95       	ror	r18
    61da:	0a 94       	dec	r0
    61dc:	d2 f7       	brpl	.-12     	; 0x61d2 <_ZN6xbeeST13sendAtCommandEPlPci+0xc0>
    61de:	12 2f       	mov	r17, r18
    61e0:	8f e7       	ldi	r24, 0x7F	; 127
    61e2:	99 e0       	ldi	r25, 0x09	; 9
    61e4:	62 2f       	mov	r22, r18
    61e6:	40 e0       	ldi	r20, 0x00	; 0
    61e8:	50 e0       	ldi	r21, 0x00	; 0
    61ea:	0e 94 42 41 	call	0x8284	; 0x8284 <_ZN5Print5printEhi>
    61ee:	71 1a       	sub	r7, r17
    61f0:	28 97       	sbiw	r28, 0x08	; 8
    61f2:	ff ef       	ldi	r31, 0xFF	; 255
    61f4:	c8 3f       	cpi	r28, 0xF8	; 248
    61f6:	df 07       	cpc	r29, r31
    61f8:	29 f7       	brne	.-54     	; 0x61c4 <_ZN6xbeeST13sendAtCommandEPlPci+0xb2>
    61fa:	08 94       	sec
    61fc:	e1 1c       	adc	r14, r1
    61fe:	f1 1c       	adc	r15, r1
    6200:	84 e0       	ldi	r24, 0x04	; 4
    6202:	90 e0       	ldi	r25, 0x00	; 0
    6204:	c8 0e       	add	r12, r24
    6206:	d9 1e       	adc	r13, r25
    6208:	92 e0       	ldi	r25, 0x02	; 2
    620a:	e9 16       	cp	r14, r25
    620c:	f1 04       	cpc	r15, r1
    620e:	19 f0       	breq	.+6      	; 0x6216 <_ZN6xbeeST13sendAtCommandEPlPci+0x104>
    6210:	c8 e1       	ldi	r28, 0x18	; 24
    6212:	d0 e0       	ldi	r29, 0x00	; 0
    6214:	d7 cf       	rjmp	.-82     	; 0x61c4 <_ZN6xbeeST13sendAtCommandEPlPci+0xb2>
    6216:	69 2d       	mov	r22, r9
    6218:	77 27       	eor	r23, r23
    621a:	67 fd       	sbrc	r22, 7
    621c:	7a 95       	dec	r23
    621e:	f6 2e       	mov	r15, r22
    6220:	8f e7       	ldi	r24, 0x7F	; 127
    6222:	99 e0       	ldi	r25, 0x09	; 9
    6224:	40 e0       	ldi	r20, 0x00	; 0
    6226:	50 e0       	ldi	r21, 0x00	; 0
    6228:	0e 94 42 41 	call	0x8284	; 0x8284 <_ZN5Print5printEhi>
    622c:	8f e7       	ldi	r24, 0x7F	; 127
    622e:	99 e0       	ldi	r25, 0x09	; 9
    6230:	68 2d       	mov	r22, r8
    6232:	40 e0       	ldi	r20, 0x00	; 0
    6234:	50 e0       	ldi	r21, 0x00	; 0
    6236:	0e 94 42 41 	call	0x8284	; 0x8284 <_ZN5Print5printEhi>
    623a:	8f e7       	ldi	r24, 0x7F	; 127
    623c:	99 e0       	ldi	r25, 0x09	; 9
    623e:	62 e0       	ldi	r22, 0x02	; 2
    6240:	70 e0       	ldi	r23, 0x00	; 0
    6242:	40 e0       	ldi	r20, 0x00	; 0
    6244:	50 e0       	ldi	r21, 0x00	; 0
    6246:	0e 94 8a 41 	call	0x8314	; 0x8314 <_ZN5Print5printEii>
    624a:	8f e7       	ldi	r24, 0x7F	; 127
    624c:	99 e0       	ldi	r25, 0x09	; 9
    624e:	d5 01       	movw	r26, r10
    6250:	6c 91       	ld	r22, X
    6252:	40 e0       	ldi	r20, 0x00	; 0
    6254:	50 e0       	ldi	r21, 0x00	; 0
    6256:	0e 94 9d 41 	call	0x833a	; 0x833a <_ZN5Print5printEci>
    625a:	f5 01       	movw	r30, r10
    625c:	10 81       	ld	r17, Z
    625e:	8f e7       	ldi	r24, 0x7F	; 127
    6260:	99 e0       	ldi	r25, 0x09	; 9
    6262:	61 81       	ldd	r22, Z+1	; 0x01
    6264:	40 e0       	ldi	r20, 0x00	; 0
    6266:	50 e0       	ldi	r21, 0x00	; 0
    6268:	0e 94 9d 41 	call	0x833a	; 0x833a <_ZN5Print5printEci>
    626c:	6e ef       	ldi	r22, 0xFE	; 254
    626e:	61 1b       	sub	r22, r17
    6270:	68 19       	sub	r22, r8
    6272:	d5 01       	movw	r26, r10
    6274:	11 96       	adiw	r26, 0x01	; 1
    6276:	8c 91       	ld	r24, X
    6278:	68 1b       	sub	r22, r24
    627a:	6f 19       	sub	r22, r15
    627c:	67 0d       	add	r22, r7
    627e:	8f e7       	ldi	r24, 0x7F	; 127
    6280:	99 e0       	ldi	r25, 0x09	; 9
    6282:	40 e0       	ldi	r20, 0x00	; 0
    6284:	50 e0       	ldi	r21, 0x00	; 0
    6286:	0e 94 42 41 	call	0x8284	; 0x8284 <_ZN5Print5printEhi>
    628a:	81 e0       	ldi	r24, 0x01	; 1
    628c:	df 91       	pop	r29
    628e:	cf 91       	pop	r28
    6290:	1f 91       	pop	r17
    6292:	0f 91       	pop	r16
    6294:	ff 90       	pop	r15
    6296:	ef 90       	pop	r14
    6298:	df 90       	pop	r13
    629a:	cf 90       	pop	r12
    629c:	bf 90       	pop	r11
    629e:	af 90       	pop	r10
    62a0:	9f 90       	pop	r9
    62a2:	8f 90       	pop	r8
    62a4:	7f 90       	pop	r7
    62a6:	08 95       	ret

000062a8 <_ZN6xbeeST24sendAtCommandWithOptionsEPlPcS1_ii>:
    62a8:	3f 92       	push	r3
    62aa:	4f 92       	push	r4
    62ac:	5f 92       	push	r5
    62ae:	6f 92       	push	r6
    62b0:	7f 92       	push	r7
    62b2:	8f 92       	push	r8
    62b4:	9f 92       	push	r9
    62b6:	af 92       	push	r10
    62b8:	bf 92       	push	r11
    62ba:	cf 92       	push	r12
    62bc:	df 92       	push	r13
    62be:	ef 92       	push	r14
    62c0:	ff 92       	push	r15
    62c2:	0f 93       	push	r16
    62c4:	1f 93       	push	r17
    62c6:	cf 93       	push	r28
    62c8:	df 93       	push	r29
    62ca:	d6 2e       	mov	r13, r22
    62cc:	c7 2e       	mov	r12, r23
    62ce:	5a 01       	movw	r10, r20
    62d0:	62 2e       	mov	r6, r18
    62d2:	33 2e       	mov	r3, r19
    62d4:	28 01       	movw	r4, r16
    62d6:	47 01       	movw	r8, r14
    62d8:	80 91 4e 05 	lds	r24, 0x054E
    62dc:	8f 5f       	subi	r24, 0xFF	; 255
    62de:	80 93 4e 05 	sts	0x054E, r24
    62e2:	88 23       	and	r24, r24
    62e4:	19 f4       	brne	.+6      	; 0x62ec <_ZN6xbeeST24sendAtCommandWithOptionsEPlPcS1_ii+0x44>
    62e6:	81 e0       	ldi	r24, 0x01	; 1
    62e8:	80 93 4e 05 	sts	0x054E, r24
    62ec:	d5 01       	movw	r26, r10
    62ee:	0d 90       	ld	r0, X+
    62f0:	00 20       	and	r0, r0
    62f2:	e9 f7       	brne	.-6      	; 0x62ee <_ZN6xbeeST24sendAtCommandWithOptionsEPlPcS1_ii+0x46>
    62f4:	8d 01       	movw	r16, r26
    62f6:	01 50       	subi	r16, 0x01	; 1
    62f8:	10 40       	sbci	r17, 0x00	; 0
    62fa:	0a 19       	sub	r16, r10
    62fc:	1b 09       	sbc	r17, r11
    62fe:	8f e7       	ldi	r24, 0x7F	; 127
    6300:	99 e0       	ldi	r25, 0x09	; 9
    6302:	6e e7       	ldi	r22, 0x7E	; 126
    6304:	70 e0       	ldi	r23, 0x00	; 0
    6306:	40 e0       	ldi	r20, 0x00	; 0
    6308:	50 e0       	ldi	r21, 0x00	; 0
    630a:	0e 94 8a 41 	call	0x8314	; 0x8314 <_ZN5Print5printEii>
    630e:	8f e7       	ldi	r24, 0x7F	; 127
    6310:	99 e0       	ldi	r25, 0x09	; 9
    6312:	60 e0       	ldi	r22, 0x00	; 0
    6314:	70 e0       	ldi	r23, 0x00	; 0
    6316:	40 e0       	ldi	r20, 0x00	; 0
    6318:	50 e0       	ldi	r21, 0x00	; 0
    631a:	0e 94 8a 41 	call	0x8314	; 0x8314 <_ZN5Print5printEii>
    631e:	03 5f       	subi	r16, 0xF3	; 243
    6320:	1f 4f       	sbci	r17, 0xFF	; 255
    6322:	04 0d       	add	r16, r4
    6324:	15 1d       	adc	r17, r5
    6326:	8f e7       	ldi	r24, 0x7F	; 127
    6328:	99 e0       	ldi	r25, 0x09	; 9
    632a:	b8 01       	movw	r22, r16
    632c:	40 e0       	ldi	r20, 0x00	; 0
    632e:	50 e0       	ldi	r21, 0x00	; 0
    6330:	0e 94 8a 41 	call	0x8314	; 0x8314 <_ZN5Print5printEii>
    6334:	8f e7       	ldi	r24, 0x7F	; 127
    6336:	99 e0       	ldi	r25, 0x09	; 9
    6338:	67 e1       	ldi	r22, 0x17	; 23
    633a:	70 e0       	ldi	r23, 0x00	; 0
    633c:	40 e0       	ldi	r20, 0x00	; 0
    633e:	50 e0       	ldi	r21, 0x00	; 0
    6340:	0e 94 8a 41 	call	0x8314	; 0x8314 <_ZN5Print5printEii>
    6344:	8f e7       	ldi	r24, 0x7F	; 127
    6346:	99 e0       	ldi	r25, 0x09	; 9
    6348:	60 91 4e 05 	lds	r22, 0x054E
    634c:	40 e0       	ldi	r20, 0x00	; 0
    634e:	50 e0       	ldi	r21, 0x00	; 0
    6350:	0e 94 42 41 	call	0x8284	; 0x8284 <_ZN5Print5printEhi>
    6354:	28 ee       	ldi	r18, 0xE8	; 232
    6356:	72 2e       	mov	r7, r18
    6358:	80 91 4e 05 	lds	r24, 0x054E
    635c:	78 1a       	sub	r7, r24
    635e:	2d 2d       	mov	r18, r13
    6360:	3c 2d       	mov	r19, r12
    6362:	c9 01       	movw	r24, r18
    6364:	6c 01       	movw	r12, r24
    6366:	ee 24       	eor	r14, r14
    6368:	ff 24       	eor	r15, r15
    636a:	26 c0       	rjmp	.+76     	; 0x63b8 <_ZN6xbeeST24sendAtCommandWithOptionsEPlPcS1_ii+0x110>
    636c:	f6 01       	movw	r30, r12
    636e:	20 81       	ld	r18, Z
    6370:	31 81       	ldd	r19, Z+1	; 0x01
    6372:	42 81       	ldd	r20, Z+2	; 0x02
    6374:	53 81       	ldd	r21, Z+3	; 0x03
    6376:	0c 2e       	mov	r0, r28
    6378:	04 c0       	rjmp	.+8      	; 0x6382 <_ZN6xbeeST24sendAtCommandWithOptionsEPlPcS1_ii+0xda>
    637a:	55 95       	asr	r21
    637c:	47 95       	ror	r20
    637e:	37 95       	ror	r19
    6380:	27 95       	ror	r18
    6382:	0a 94       	dec	r0
    6384:	d2 f7       	brpl	.-12     	; 0x637a <_ZN6xbeeST24sendAtCommandWithOptionsEPlPcS1_ii+0xd2>
    6386:	12 2f       	mov	r17, r18
    6388:	8f e7       	ldi	r24, 0x7F	; 127
    638a:	99 e0       	ldi	r25, 0x09	; 9
    638c:	62 2f       	mov	r22, r18
    638e:	40 e0       	ldi	r20, 0x00	; 0
    6390:	50 e0       	ldi	r21, 0x00	; 0
    6392:	0e 94 42 41 	call	0x8284	; 0x8284 <_ZN5Print5printEhi>
    6396:	71 1a       	sub	r7, r17
    6398:	28 97       	sbiw	r28, 0x08	; 8
    639a:	ff ef       	ldi	r31, 0xFF	; 255
    639c:	c8 3f       	cpi	r28, 0xF8	; 248
    639e:	df 07       	cpc	r29, r31
    63a0:	29 f7       	brne	.-54     	; 0x636c <_ZN6xbeeST24sendAtCommandWithOptionsEPlPcS1_ii+0xc4>
    63a2:	08 94       	sec
    63a4:	e1 1c       	adc	r14, r1
    63a6:	f1 1c       	adc	r15, r1
    63a8:	84 e0       	ldi	r24, 0x04	; 4
    63aa:	90 e0       	ldi	r25, 0x00	; 0
    63ac:	c8 0e       	add	r12, r24
    63ae:	d9 1e       	adc	r13, r25
    63b0:	92 e0       	ldi	r25, 0x02	; 2
    63b2:	e9 16       	cp	r14, r25
    63b4:	f1 04       	cpc	r15, r1
    63b6:	19 f0       	breq	.+6      	; 0x63be <_ZN6xbeeST24sendAtCommandWithOptionsEPlPcS1_ii+0x116>
    63b8:	c8 e1       	ldi	r28, 0x18	; 24
    63ba:	d0 e0       	ldi	r29, 0x00	; 0
    63bc:	d7 cf       	rjmp	.-82     	; 0x636c <_ZN6xbeeST24sendAtCommandWithOptionsEPlPcS1_ii+0xc4>
    63be:	69 2d       	mov	r22, r9
    63c0:	77 27       	eor	r23, r23
    63c2:	67 fd       	sbrc	r22, 7
    63c4:	7a 95       	dec	r23
    63c6:	06 2f       	mov	r16, r22
    63c8:	8f e7       	ldi	r24, 0x7F	; 127
    63ca:	99 e0       	ldi	r25, 0x09	; 9
    63cc:	40 e0       	ldi	r20, 0x00	; 0
    63ce:	50 e0       	ldi	r21, 0x00	; 0
    63d0:	0e 94 42 41 	call	0x8284	; 0x8284 <_ZN5Print5printEhi>
    63d4:	8f e7       	ldi	r24, 0x7F	; 127
    63d6:	99 e0       	ldi	r25, 0x09	; 9
    63d8:	68 2d       	mov	r22, r8
    63da:	40 e0       	ldi	r20, 0x00	; 0
    63dc:	50 e0       	ldi	r21, 0x00	; 0
    63de:	0e 94 42 41 	call	0x8284	; 0x8284 <_ZN5Print5printEhi>
    63e2:	8f e7       	ldi	r24, 0x7F	; 127
    63e4:	99 e0       	ldi	r25, 0x09	; 9
    63e6:	62 e0       	ldi	r22, 0x02	; 2
    63e8:	70 e0       	ldi	r23, 0x00	; 0
    63ea:	40 e0       	ldi	r20, 0x00	; 0
    63ec:	50 e0       	ldi	r21, 0x00	; 0
    63ee:	0e 94 8a 41 	call	0x8314	; 0x8314 <_ZN5Print5printEii>
    63f2:	8f e7       	ldi	r24, 0x7F	; 127
    63f4:	99 e0       	ldi	r25, 0x09	; 9
    63f6:	d5 01       	movw	r26, r10
    63f8:	6c 91       	ld	r22, X
    63fa:	40 e0       	ldi	r20, 0x00	; 0
    63fc:	50 e0       	ldi	r21, 0x00	; 0
    63fe:	0e 94 9d 41 	call	0x833a	; 0x833a <_ZN5Print5printEci>
    6402:	f5 01       	movw	r30, r10
    6404:	10 81       	ld	r17, Z
    6406:	8f e7       	ldi	r24, 0x7F	; 127
    6408:	99 e0       	ldi	r25, 0x09	; 9
    640a:	61 81       	ldd	r22, Z+1	; 0x01
    640c:	40 e0       	ldi	r20, 0x00	; 0
    640e:	50 e0       	ldi	r21, 0x00	; 0
    6410:	0e 94 9d 41 	call	0x833a	; 0x833a <_ZN5Print5printEci>
    6414:	8e ef       	ldi	r24, 0xFE	; 254
    6416:	e8 2e       	mov	r14, r24
    6418:	e1 1a       	sub	r14, r17
    641a:	d5 01       	movw	r26, r10
    641c:	11 96       	adiw	r26, 0x01	; 1
    641e:	8c 91       	ld	r24, X
    6420:	e8 1a       	sub	r14, r24
    6422:	e8 18       	sub	r14, r8
    6424:	e0 1a       	sub	r14, r16
    6426:	e7 0c       	add	r14, r7
    6428:	41 14       	cp	r4, r1
    642a:	51 04       	cpc	r5, r1
    642c:	b9 f0       	breq	.+46     	; 0x645c <_ZN6xbeeST24sendAtCommandWithOptionsEPlPcS1_ii+0x1b4>
    642e:	86 2d       	mov	r24, r6
    6430:	93 2d       	mov	r25, r3
    6432:	9c 01       	movw	r18, r24
    6434:	89 01       	movw	r16, r18
    6436:	c0 e0       	ldi	r28, 0x00	; 0
    6438:	d0 e0       	ldi	r29, 0x00	; 0
    643a:	0d c0       	rjmp	.+26     	; 0x6456 <_ZN6xbeeST24sendAtCommandWithOptionsEPlPcS1_ii+0x1ae>
    643c:	8f e7       	ldi	r24, 0x7F	; 127
    643e:	99 e0       	ldi	r25, 0x09	; 9
    6440:	f8 01       	movw	r30, r16
    6442:	60 81       	ld	r22, Z
    6444:	40 e0       	ldi	r20, 0x00	; 0
    6446:	50 e0       	ldi	r21, 0x00	; 0
    6448:	0e 94 9d 41 	call	0x833a	; 0x833a <_ZN5Print5printEci>
    644c:	d8 01       	movw	r26, r16
    644e:	8d 91       	ld	r24, X+
    6450:	8d 01       	movw	r16, r26
    6452:	e8 1a       	sub	r14, r24
    6454:	21 96       	adiw	r28, 0x01	; 1
    6456:	c4 15       	cp	r28, r4
    6458:	d5 05       	cpc	r29, r5
    645a:	84 f3       	brlt	.-32     	; 0x643c <_ZN6xbeeST24sendAtCommandWithOptionsEPlPcS1_ii+0x194>
    645c:	8f e7       	ldi	r24, 0x7F	; 127
    645e:	99 e0       	ldi	r25, 0x09	; 9
    6460:	6e 2d       	mov	r22, r14
    6462:	40 e0       	ldi	r20, 0x00	; 0
    6464:	50 e0       	ldi	r21, 0x00	; 0
    6466:	0e 94 42 41 	call	0x8284	; 0x8284 <_ZN5Print5printEhi>
    646a:	81 e0       	ldi	r24, 0x01	; 1
    646c:	df 91       	pop	r29
    646e:	cf 91       	pop	r28
    6470:	1f 91       	pop	r17
    6472:	0f 91       	pop	r16
    6474:	ff 90       	pop	r15
    6476:	ef 90       	pop	r14
    6478:	df 90       	pop	r13
    647a:	cf 90       	pop	r12
    647c:	bf 90       	pop	r11
    647e:	af 90       	pop	r10
    6480:	9f 90       	pop	r9
    6482:	8f 90       	pop	r8
    6484:	7f 90       	pop	r7
    6486:	6f 90       	pop	r6
    6488:	5f 90       	pop	r5
    648a:	4f 90       	pop	r4
    648c:	3f 90       	pop	r3
    648e:	08 95       	ret

00006490 <_ZN6xbeeST18sendLocalAtCommandEPc>:
    6490:	0f 93       	push	r16
    6492:	1f 93       	push	r17
    6494:	cf 93       	push	r28
    6496:	df 93       	push	r29
    6498:	eb 01       	movw	r28, r22
    649a:	80 91 4f 05 	lds	r24, 0x054F
    649e:	8f 5f       	subi	r24, 0xFF	; 255
    64a0:	80 93 4f 05 	sts	0x054F, r24
    64a4:	88 23       	and	r24, r24
    64a6:	19 f4       	brne	.+6      	; 0x64ae <_ZN6xbeeST18sendLocalAtCommandEPc+0x1e>
    64a8:	81 e0       	ldi	r24, 0x01	; 1
    64aa:	80 93 4f 05 	sts	0x054F, r24
    64ae:	de 01       	movw	r26, r28
    64b0:	0d 90       	ld	r0, X+
    64b2:	00 20       	and	r0, r0
    64b4:	e9 f7       	brne	.-6      	; 0x64b0 <_ZN6xbeeST18sendLocalAtCommandEPc+0x20>
    64b6:	8d 01       	movw	r16, r26
    64b8:	01 50       	subi	r16, 0x01	; 1
    64ba:	10 40       	sbci	r17, 0x00	; 0
    64bc:	0c 1b       	sub	r16, r28
    64be:	1d 0b       	sbc	r17, r29
    64c0:	8f e7       	ldi	r24, 0x7F	; 127
    64c2:	99 e0       	ldi	r25, 0x09	; 9
    64c4:	6e e7       	ldi	r22, 0x7E	; 126
    64c6:	70 e0       	ldi	r23, 0x00	; 0
    64c8:	40 e0       	ldi	r20, 0x00	; 0
    64ca:	50 e0       	ldi	r21, 0x00	; 0
    64cc:	0e 94 8a 41 	call	0x8314	; 0x8314 <_ZN5Print5printEii>
    64d0:	8f e7       	ldi	r24, 0x7F	; 127
    64d2:	99 e0       	ldi	r25, 0x09	; 9
    64d4:	60 e0       	ldi	r22, 0x00	; 0
    64d6:	70 e0       	ldi	r23, 0x00	; 0
    64d8:	40 e0       	ldi	r20, 0x00	; 0
    64da:	50 e0       	ldi	r21, 0x00	; 0
    64dc:	0e 94 8a 41 	call	0x8314	; 0x8314 <_ZN5Print5printEii>
    64e0:	0e 5f       	subi	r16, 0xFE	; 254
    64e2:	1f 4f       	sbci	r17, 0xFF	; 255
    64e4:	8f e7       	ldi	r24, 0x7F	; 127
    64e6:	99 e0       	ldi	r25, 0x09	; 9
    64e8:	b8 01       	movw	r22, r16
    64ea:	40 e0       	ldi	r20, 0x00	; 0
    64ec:	50 e0       	ldi	r21, 0x00	; 0
    64ee:	0e 94 8a 41 	call	0x8314	; 0x8314 <_ZN5Print5printEii>
    64f2:	8f e7       	ldi	r24, 0x7F	; 127
    64f4:	99 e0       	ldi	r25, 0x09	; 9
    64f6:	68 e0       	ldi	r22, 0x08	; 8
    64f8:	70 e0       	ldi	r23, 0x00	; 0
    64fa:	40 e0       	ldi	r20, 0x00	; 0
    64fc:	50 e0       	ldi	r21, 0x00	; 0
    64fe:	0e 94 8a 41 	call	0x8314	; 0x8314 <_ZN5Print5printEii>
    6502:	8f e7       	ldi	r24, 0x7F	; 127
    6504:	99 e0       	ldi	r25, 0x09	; 9
    6506:	60 91 4f 05 	lds	r22, 0x054F
    650a:	40 e0       	ldi	r20, 0x00	; 0
    650c:	50 e0       	ldi	r21, 0x00	; 0
    650e:	0e 94 42 41 	call	0x8284	; 0x8284 <_ZN5Print5printEhi>
    6512:	17 ef       	ldi	r17, 0xF7	; 247
    6514:	80 91 4f 05 	lds	r24, 0x054F
    6518:	18 1b       	sub	r17, r24
    651a:	8f e7       	ldi	r24, 0x7F	; 127
    651c:	99 e0       	ldi	r25, 0x09	; 9
    651e:	68 81       	ld	r22, Y
    6520:	40 e0       	ldi	r20, 0x00	; 0
    6522:	50 e0       	ldi	r21, 0x00	; 0
    6524:	0e 94 9d 41 	call	0x833a	; 0x833a <_ZN5Print5printEci>
    6528:	88 81       	ld	r24, Y
    652a:	18 1b       	sub	r17, r24
    652c:	8f e7       	ldi	r24, 0x7F	; 127
    652e:	99 e0       	ldi	r25, 0x09	; 9
    6530:	69 81       	ldd	r22, Y+1	; 0x01
    6532:	40 e0       	ldi	r20, 0x00	; 0
    6534:	50 e0       	ldi	r21, 0x00	; 0
    6536:	0e 94 9d 41 	call	0x833a	; 0x833a <_ZN5Print5printEci>
    653a:	89 81       	ldd	r24, Y+1	; 0x01
    653c:	18 1b       	sub	r17, r24
    653e:	8f e7       	ldi	r24, 0x7F	; 127
    6540:	99 e0       	ldi	r25, 0x09	; 9
    6542:	61 2f       	mov	r22, r17
    6544:	40 e0       	ldi	r20, 0x00	; 0
    6546:	50 e0       	ldi	r21, 0x00	; 0
    6548:	0e 94 42 41 	call	0x8284	; 0x8284 <_ZN5Print5printEhi>
    654c:	81 e0       	ldi	r24, 0x01	; 1
    654e:	df 91       	pop	r29
    6550:	cf 91       	pop	r28
    6552:	1f 91       	pop	r17
    6554:	0f 91       	pop	r16
    6556:	08 95       	ret

00006558 <_ZN6xbeeST29sendLocalAtCommandWithOptionsEPcS0_i>:
    6558:	bf 92       	push	r11
    655a:	cf 92       	push	r12
    655c:	df 92       	push	r13
    655e:	ef 92       	push	r14
    6560:	ff 92       	push	r15
    6562:	0f 93       	push	r16
    6564:	1f 93       	push	r17
    6566:	cf 93       	push	r28
    6568:	df 93       	push	r29
    656a:	eb 01       	movw	r28, r22
    656c:	e4 2e       	mov	r14, r20
    656e:	b5 2e       	mov	r11, r21
    6570:	69 01       	movw	r12, r18
    6572:	80 91 50 05 	lds	r24, 0x0550
    6576:	8f 5f       	subi	r24, 0xFF	; 255
    6578:	80 93 50 05 	sts	0x0550, r24
    657c:	88 23       	and	r24, r24
    657e:	19 f4       	brne	.+6      	; 0x6586 <_ZN6xbeeST29sendLocalAtCommandWithOptionsEPcS0_i+0x2e>
    6580:	81 e0       	ldi	r24, 0x01	; 1
    6582:	80 93 50 05 	sts	0x0550, r24
    6586:	de 01       	movw	r26, r28
    6588:	0d 90       	ld	r0, X+
    658a:	00 20       	and	r0, r0
    658c:	e9 f7       	brne	.-6      	; 0x6588 <_ZN6xbeeST29sendLocalAtCommandWithOptionsEPcS0_i+0x30>
    658e:	8d 01       	movw	r16, r26
    6590:	01 50       	subi	r16, 0x01	; 1
    6592:	10 40       	sbci	r17, 0x00	; 0
    6594:	0c 1b       	sub	r16, r28
    6596:	1d 0b       	sbc	r17, r29
    6598:	8f e7       	ldi	r24, 0x7F	; 127
    659a:	99 e0       	ldi	r25, 0x09	; 9
    659c:	6e e7       	ldi	r22, 0x7E	; 126
    659e:	70 e0       	ldi	r23, 0x00	; 0
    65a0:	40 e0       	ldi	r20, 0x00	; 0
    65a2:	50 e0       	ldi	r21, 0x00	; 0
    65a4:	0e 94 8a 41 	call	0x8314	; 0x8314 <_ZN5Print5printEii>
    65a8:	8f e7       	ldi	r24, 0x7F	; 127
    65aa:	99 e0       	ldi	r25, 0x09	; 9
    65ac:	60 e0       	ldi	r22, 0x00	; 0
    65ae:	70 e0       	ldi	r23, 0x00	; 0
    65b0:	40 e0       	ldi	r20, 0x00	; 0
    65b2:	50 e0       	ldi	r21, 0x00	; 0
    65b4:	0e 94 8a 41 	call	0x8314	; 0x8314 <_ZN5Print5printEii>
    65b8:	0e 5f       	subi	r16, 0xFE	; 254
    65ba:	1f 4f       	sbci	r17, 0xFF	; 255
    65bc:	0c 0d       	add	r16, r12
    65be:	1d 1d       	adc	r17, r13
    65c0:	8f e7       	ldi	r24, 0x7F	; 127
    65c2:	99 e0       	ldi	r25, 0x09	; 9
    65c4:	b8 01       	movw	r22, r16
    65c6:	40 e0       	ldi	r20, 0x00	; 0
    65c8:	50 e0       	ldi	r21, 0x00	; 0
    65ca:	0e 94 8a 41 	call	0x8314	; 0x8314 <_ZN5Print5printEii>
    65ce:	8f e7       	ldi	r24, 0x7F	; 127
    65d0:	99 e0       	ldi	r25, 0x09	; 9
    65d2:	68 e0       	ldi	r22, 0x08	; 8
    65d4:	70 e0       	ldi	r23, 0x00	; 0
    65d6:	40 e0       	ldi	r20, 0x00	; 0
    65d8:	50 e0       	ldi	r21, 0x00	; 0
    65da:	0e 94 8a 41 	call	0x8314	; 0x8314 <_ZN5Print5printEii>
    65de:	8f e7       	ldi	r24, 0x7F	; 127
    65e0:	99 e0       	ldi	r25, 0x09	; 9
    65e2:	60 91 50 05 	lds	r22, 0x0550
    65e6:	40 e0       	ldi	r20, 0x00	; 0
    65e8:	50 e0       	ldi	r21, 0x00	; 0
    65ea:	0e 94 42 41 	call	0x8284	; 0x8284 <_ZN5Print5printEhi>
    65ee:	37 ef       	ldi	r19, 0xF7	; 247
    65f0:	f3 2e       	mov	r15, r19
    65f2:	80 91 50 05 	lds	r24, 0x0550
    65f6:	f8 1a       	sub	r15, r24
    65f8:	8f e7       	ldi	r24, 0x7F	; 127
    65fa:	99 e0       	ldi	r25, 0x09	; 9
    65fc:	68 81       	ld	r22, Y
    65fe:	40 e0       	ldi	r20, 0x00	; 0
    6600:	50 e0       	ldi	r21, 0x00	; 0
    6602:	0e 94 9d 41 	call	0x833a	; 0x833a <_ZN5Print5printEci>
    6606:	88 81       	ld	r24, Y
    6608:	f8 1a       	sub	r15, r24
    660a:	8f e7       	ldi	r24, 0x7F	; 127
    660c:	99 e0       	ldi	r25, 0x09	; 9
    660e:	69 81       	ldd	r22, Y+1	; 0x01
    6610:	40 e0       	ldi	r20, 0x00	; 0
    6612:	50 e0       	ldi	r21, 0x00	; 0
    6614:	0e 94 9d 41 	call	0x833a	; 0x833a <_ZN5Print5printEci>
    6618:	89 81       	ldd	r24, Y+1	; 0x01
    661a:	f8 1a       	sub	r15, r24
    661c:	c1 14       	cp	r12, r1
    661e:	d1 04       	cpc	r13, r1
    6620:	b9 f0       	breq	.+46     	; 0x6650 <_ZN6xbeeST29sendLocalAtCommandWithOptionsEPcS0_i+0xf8>
    6622:	8e 2d       	mov	r24, r14
    6624:	9b 2d       	mov	r25, r11
    6626:	9c 01       	movw	r18, r24
    6628:	89 01       	movw	r16, r18
    662a:	c0 e0       	ldi	r28, 0x00	; 0
    662c:	d0 e0       	ldi	r29, 0x00	; 0
    662e:	0d c0       	rjmp	.+26     	; 0x664a <_ZN6xbeeST29sendLocalAtCommandWithOptionsEPcS0_i+0xf2>
    6630:	8f e7       	ldi	r24, 0x7F	; 127
    6632:	99 e0       	ldi	r25, 0x09	; 9
    6634:	f8 01       	movw	r30, r16
    6636:	60 81       	ld	r22, Z
    6638:	40 e0       	ldi	r20, 0x00	; 0
    663a:	50 e0       	ldi	r21, 0x00	; 0
    663c:	0e 94 9d 41 	call	0x833a	; 0x833a <_ZN5Print5printEci>
    6640:	d8 01       	movw	r26, r16
    6642:	8d 91       	ld	r24, X+
    6644:	8d 01       	movw	r16, r26
    6646:	f8 1a       	sub	r15, r24
    6648:	21 96       	adiw	r28, 0x01	; 1
    664a:	cc 15       	cp	r28, r12
    664c:	dd 05       	cpc	r29, r13
    664e:	84 f3       	brlt	.-32     	; 0x6630 <_ZN6xbeeST29sendLocalAtCommandWithOptionsEPcS0_i+0xd8>
    6650:	8f e7       	ldi	r24, 0x7F	; 127
    6652:	99 e0       	ldi	r25, 0x09	; 9
    6654:	6f 2d       	mov	r22, r15
    6656:	40 e0       	ldi	r20, 0x00	; 0
    6658:	50 e0       	ldi	r21, 0x00	; 0
    665a:	0e 94 42 41 	call	0x8284	; 0x8284 <_ZN5Print5printEhi>
    665e:	81 e0       	ldi	r24, 0x01	; 1
    6660:	df 91       	pop	r29
    6662:	cf 91       	pop	r28
    6664:	1f 91       	pop	r17
    6666:	0f 91       	pop	r16
    6668:	ff 90       	pop	r15
    666a:	ef 90       	pop	r14
    666c:	df 90       	pop	r13
    666e:	cf 90       	pop	r12
    6670:	bf 90       	pop	r11
    6672:	08 95       	ret

00006674 <_ZN16xbeeIOdataParserC2Ev>:
    6674:	fc 01       	movw	r30, r24
    6676:	14 8a       	std	Z+20, r1	; 0x14
    6678:	15 8a       	std	Z+21, r1	; 0x15
    667a:	16 8a       	std	Z+22, r1	; 0x16
    667c:	17 8a       	std	Z+23, r1	; 0x17
    667e:	10 8e       	std	Z+24, r1	; 0x18
    6680:	11 8e       	std	Z+25, r1	; 0x19
    6682:	12 8e       	std	Z+26, r1	; 0x1a
    6684:	13 8e       	std	Z+27, r1	; 0x1b
    6686:	14 8e       	std	Z+28, r1	; 0x1c
    6688:	15 8e       	std	Z+29, r1	; 0x1d
    668a:	16 8e       	std	Z+30, r1	; 0x1e
    668c:	17 8e       	std	Z+31, r1	; 0x1f
    668e:	10 a2       	std	Z+32, r1	; 0x20
    6690:	11 a2       	std	Z+33, r1	; 0x21
    6692:	12 a2       	std	Z+34, r1	; 0x22
    6694:	13 a2       	std	Z+35, r1	; 0x23
    6696:	80 e0       	ldi	r24, 0x00	; 0
    6698:	90 e0       	ldi	r25, 0x00	; 0
    669a:	14 82       	std	Z+4, r1	; 0x04
    669c:	01 96       	adiw	r24, 0x01	; 1
    669e:	31 96       	adiw	r30, 0x01	; 1
    66a0:	80 31       	cpi	r24, 0x10	; 16
    66a2:	91 05       	cpc	r25, r1
    66a4:	d1 f7       	brne	.-12     	; 0x669a <_ZN16xbeeIOdataParserC2Ev+0x26>
    66a6:	08 95       	ret

000066a8 <_ZN16xbeeIOdataParserC1Ev>:
    66a8:	fc 01       	movw	r30, r24
    66aa:	14 8a       	std	Z+20, r1	; 0x14
    66ac:	15 8a       	std	Z+21, r1	; 0x15
    66ae:	16 8a       	std	Z+22, r1	; 0x16
    66b0:	17 8a       	std	Z+23, r1	; 0x17
    66b2:	10 8e       	std	Z+24, r1	; 0x18
    66b4:	11 8e       	std	Z+25, r1	; 0x19
    66b6:	12 8e       	std	Z+26, r1	; 0x1a
    66b8:	13 8e       	std	Z+27, r1	; 0x1b
    66ba:	14 8e       	std	Z+28, r1	; 0x1c
    66bc:	15 8e       	std	Z+29, r1	; 0x1d
    66be:	16 8e       	std	Z+30, r1	; 0x1e
    66c0:	17 8e       	std	Z+31, r1	; 0x1f
    66c2:	10 a2       	std	Z+32, r1	; 0x20
    66c4:	11 a2       	std	Z+33, r1	; 0x21
    66c6:	12 a2       	std	Z+34, r1	; 0x22
    66c8:	13 a2       	std	Z+35, r1	; 0x23
    66ca:	80 e0       	ldi	r24, 0x00	; 0
    66cc:	90 e0       	ldi	r25, 0x00	; 0
    66ce:	14 82       	std	Z+4, r1	; 0x04
    66d0:	01 96       	adiw	r24, 0x01	; 1
    66d2:	31 96       	adiw	r30, 0x01	; 1
    66d4:	80 31       	cpi	r24, 0x10	; 16
    66d6:	91 05       	cpc	r25, r1
    66d8:	d1 f7       	brne	.-12     	; 0x66ce <_ZN16xbeeIOdataParserC1Ev+0x26>
    66da:	08 95       	ret

000066dc <_ZN16xbeeIOdataParser17getSensorReadingsEPh>:
    66dc:	af 92       	push	r10
    66de:	bf 92       	push	r11
    66e0:	cf 92       	push	r12
    66e2:	df 92       	push	r13
    66e4:	ef 92       	push	r14
    66e6:	ff 92       	push	r15
    66e8:	0f 93       	push	r16
    66ea:	1f 93       	push	r17
    66ec:	cf 93       	push	r28
    66ee:	df 93       	push	r29
    66f0:	7c 01       	movw	r14, r24
    66f2:	eb 01       	movw	r28, r22
    66f4:	dc 01       	movw	r26, r24
    66f6:	13 96       	adiw	r26, 0x03	; 3
    66f8:	1c 92       	st	X, r1
    66fa:	1e 92       	st	-X, r1
    66fc:	12 97       	sbiw	r26, 0x02	; 2
    66fe:	1d 92       	st	X+, r1
    6700:	1c 92       	st	X, r1
    6702:	61 e0       	ldi	r22, 0x01	; 1
    6704:	70 e0       	ldi	r23, 0x00	; 0
    6706:	fe 01       	movw	r30, r28
    6708:	e6 0f       	add	r30, r22
    670a:	f7 1f       	adc	r31, r23
    670c:	e0 81       	ld	r30, Z
    670e:	d7 01       	movw	r26, r14
    6710:	12 96       	adiw	r26, 0x02	; 2
    6712:	2d 91       	ld	r18, X+
    6714:	3c 91       	ld	r19, X
    6716:	13 97       	sbiw	r26, 0x03	; 3
    6718:	80 e0       	ldi	r24, 0x00	; 0
    671a:	90 e0       	ldi	r25, 0x00	; 0
    671c:	40 e0       	ldi	r20, 0x00	; 0
    671e:	50 e0       	ldi	r21, 0x00	; 0
    6720:	ee 23       	and	r30, r30
    6722:	11 f0       	breq	.+4      	; 0x6728 <_ZN16xbeeIOdataParser17getSensorReadingsEPh+0x4c>
    6724:	41 e0       	ldi	r20, 0x01	; 1
    6726:	50 e0       	ldi	r21, 0x00	; 0
    6728:	24 0f       	add	r18, r20
    672a:	35 1f       	adc	r19, r21
    672c:	e6 95       	lsr	r30
    672e:	01 96       	adiw	r24, 0x01	; 1
    6730:	88 30       	cpi	r24, 0x08	; 8
    6732:	91 05       	cpc	r25, r1
    6734:	99 f7       	brne	.-26     	; 0x671c <_ZN16xbeeIOdataParser17getSensorReadingsEPh+0x40>
    6736:	f7 01       	movw	r30, r14
    6738:	33 83       	std	Z+3, r19	; 0x03
    673a:	22 83       	std	Z+2, r18	; 0x02
    673c:	6f 5f       	subi	r22, 0xFF	; 255
    673e:	7f 4f       	sbci	r23, 0xFF	; 255
    6740:	63 30       	cpi	r22, 0x03	; 3
    6742:	71 05       	cpc	r23, r1
    6744:	01 f7       	brne	.-64     	; 0x6706 <_ZN16xbeeIOdataParser17getSensorReadingsEPh+0x2a>
    6746:	11 82       	std	Z+1, r1	; 0x01
    6748:	10 82       	st	Z, r1
    674a:	8b 81       	ldd	r24, Y+3	; 0x03
    674c:	60 e0       	ldi	r22, 0x00	; 0
    674e:	70 e0       	ldi	r23, 0x00	; 0
    6750:	40 e0       	ldi	r20, 0x00	; 0
    6752:	50 e0       	ldi	r21, 0x00	; 0
    6754:	90 e0       	ldi	r25, 0x00	; 0
    6756:	9c 01       	movw	r18, r24
    6758:	21 70       	andi	r18, 0x01	; 1
    675a:	30 70       	andi	r19, 0x00	; 0
    675c:	42 0f       	add	r20, r18
    675e:	53 1f       	adc	r21, r19
    6760:	95 95       	asr	r25
    6762:	87 95       	ror	r24
    6764:	6f 5f       	subi	r22, 0xFF	; 255
    6766:	7f 4f       	sbci	r23, 0xFF	; 255
    6768:	68 30       	cpi	r22, 0x08	; 8
    676a:	71 05       	cpc	r23, r1
    676c:	99 f7       	brne	.-26     	; 0x6754 <_ZN16xbeeIOdataParser17getSensorReadingsEPh+0x78>
    676e:	d7 01       	movw	r26, r14
    6770:	11 96       	adiw	r26, 0x01	; 1
    6772:	5c 93       	st	X, r21
    6774:	4e 93       	st	-X, r20
    6776:	12 96       	adiw	r26, 0x02	; 2
    6778:	8d 91       	ld	r24, X+
    677a:	9c 91       	ld	r25, X
    677c:	13 97       	sbiw	r26, 0x03	; 3
    677e:	89 2b       	or	r24, r25
    6780:	e1 f0       	breq	.+56     	; 0x67ba <_ZN16xbeeIOdataParser17getSensorReadingsEPh+0xde>
    6782:	fe 01       	movw	r30, r28
    6784:	40 e0       	ldi	r20, 0x00	; 0
    6786:	50 e0       	ldi	r21, 0x00	; 0
    6788:	95 81       	ldd	r25, Z+5	; 0x05
    678a:	9a 01       	movw	r18, r20
    678c:	48 5f       	subi	r20, 0xF8	; 248
    678e:	5f 4f       	sbci	r21, 0xFF	; 255
    6790:	2c 5f       	subi	r18, 0xFC	; 252
    6792:	3f 4f       	sbci	r19, 0xFF	; 255
    6794:	d7 01       	movw	r26, r14
    6796:	a2 0f       	add	r26, r18
    6798:	b3 1f       	adc	r27, r19
    679a:	24 50       	subi	r18, 0x04	; 4
    679c:	30 40       	sbci	r19, 0x00	; 0
    679e:	06 c0       	rjmp	.+12     	; 0x67ac <_ZN16xbeeIOdataParser17getSensorReadingsEPh+0xd0>
    67a0:	89 2f       	mov	r24, r25
    67a2:	81 70       	andi	r24, 0x01	; 1
    67a4:	8d 93       	st	X+, r24
    67a6:	96 95       	lsr	r25
    67a8:	2f 5f       	subi	r18, 0xFF	; 255
    67aa:	3f 4f       	sbci	r19, 0xFF	; 255
    67ac:	24 17       	cp	r18, r20
    67ae:	35 07       	cpc	r19, r21
    67b0:	bc f3       	brlt	.-18     	; 0x67a0 <_ZN16xbeeIOdataParser17getSensorReadingsEPh+0xc4>
    67b2:	31 97       	sbiw	r30, 0x01	; 1
    67b4:	40 31       	cpi	r20, 0x10	; 16
    67b6:	51 05       	cpc	r21, r1
    67b8:	39 f7       	brne	.-50     	; 0x6788 <_ZN16xbeeIOdataParser17getSensorReadingsEPh+0xac>
    67ba:	f7 01       	movw	r30, r14
    67bc:	80 81       	ld	r24, Z
    67be:	91 81       	ldd	r25, Z+1	; 0x01
    67c0:	89 2b       	or	r24, r25
    67c2:	09 f4       	brne	.+2      	; 0x67c6 <_ZN16xbeeIOdataParser17getSensorReadingsEPh+0xea>
    67c4:	70 c0       	rjmp	.+224    	; 0x68a6 <_ZN16xbeeIOdataParser17getSensorReadingsEPh+0x1ca>
    67c6:	82 81       	ldd	r24, Z+2	; 0x02
    67c8:	93 81       	ldd	r25, Z+3	; 0x03
    67ca:	89 2b       	or	r24, r25
    67cc:	29 f0       	breq	.+10     	; 0x67d8 <_ZN16xbeeIOdataParser17getSensorReadingsEPh+0xfc>
    67ce:	8e 01       	movw	r16, r28
    67d0:	57 01       	movw	r10, r14
    67d2:	cc 24       	eor	r12, r12
    67d4:	dd 24       	eor	r13, r13
    67d6:	2a c0       	rjmp	.+84     	; 0x682c <_ZN16xbeeIOdataParser17getSensorReadingsEPh+0x150>
    67d8:	8e 01       	movw	r16, r28
    67da:	57 01       	movw	r10, r14
    67dc:	cc 24       	eor	r12, r12
    67de:	dd 24       	eor	r13, r13
    67e0:	56 c0       	rjmp	.+172    	; 0x688e <_ZN16xbeeIOdataParser17getSensorReadingsEPh+0x1b2>
    67e2:	d8 01       	movw	r26, r16
    67e4:	14 96       	adiw	r26, 0x04	; 4
    67e6:	dc 91       	ld	r29, X
    67e8:	14 97       	sbiw	r26, 0x04	; 4
    67ea:	c0 e0       	ldi	r28, 0x00	; 0
    67ec:	be 01       	movw	r22, r28
    67ee:	88 27       	eor	r24, r24
    67f0:	77 fd       	sbrc	r23, 7
    67f2:	80 95       	com	r24
    67f4:	98 2f       	mov	r25, r24
    67f6:	15 96       	adiw	r26, 0x05	; 5
    67f8:	2c 91       	ld	r18, X
    67fa:	62 0f       	add	r22, r18
    67fc:	71 1d       	adc	r23, r1
    67fe:	81 1d       	adc	r24, r1
    6800:	91 1d       	adc	r25, r1
    6802:	20 eb       	ldi	r18, 0xB0	; 176
    6804:	34 e0       	ldi	r19, 0x04	; 4
    6806:	40 e0       	ldi	r20, 0x00	; 0
    6808:	50 e0       	ldi	r21, 0x00	; 0
    680a:	0e 94 eb 4e 	call	0x9dd6	; 0x9dd6 <__mulsi3>
    680e:	3a e0       	ldi	r19, 0x0A	; 10
    6810:	96 95       	lsr	r25
    6812:	87 95       	ror	r24
    6814:	77 95       	ror	r23
    6816:	67 95       	ror	r22
    6818:	3a 95       	dec	r19
    681a:	d1 f7       	brne	.-12     	; 0x6810 <_ZN16xbeeIOdataParser17getSensorReadingsEPh+0x134>
    681c:	f5 01       	movw	r30, r10
    681e:	60 8b       	std	Z+16, r22	; 0x10
    6820:	71 8b       	std	Z+17, r23	; 0x11
    6822:	82 8b       	std	Z+18, r24	; 0x12
    6824:	93 8b       	std	Z+19, r25	; 0x13
    6826:	08 94       	sec
    6828:	c1 1c       	adc	r12, r1
    682a:	d1 1c       	adc	r13, r1
    682c:	0e 5f       	subi	r16, 0xFE	; 254
    682e:	1f 4f       	sbci	r17, 0xFF	; 255
    6830:	84 e0       	ldi	r24, 0x04	; 4
    6832:	90 e0       	ldi	r25, 0x00	; 0
    6834:	a8 0e       	add	r10, r24
    6836:	b9 1e       	adc	r11, r25
    6838:	d7 01       	movw	r26, r14
    683a:	8d 91       	ld	r24, X+
    683c:	9c 91       	ld	r25, X
    683e:	c8 16       	cp	r12, r24
    6840:	d9 06       	cpc	r13, r25
    6842:	7c f2       	brlt	.-98     	; 0x67e2 <_ZN16xbeeIOdataParser17getSensorReadingsEPh+0x106>
    6844:	30 c0       	rjmp	.+96     	; 0x68a6 <_ZN16xbeeIOdataParser17getSensorReadingsEPh+0x1ca>
    6846:	f8 01       	movw	r30, r16
    6848:	d2 81       	ldd	r29, Z+2	; 0x02
    684a:	c0 e0       	ldi	r28, 0x00	; 0
    684c:	be 01       	movw	r22, r28
    684e:	88 27       	eor	r24, r24
    6850:	77 fd       	sbrc	r23, 7
    6852:	80 95       	com	r24
    6854:	98 2f       	mov	r25, r24
    6856:	23 81       	ldd	r18, Z+3	; 0x03
    6858:	62 0f       	add	r22, r18
    685a:	71 1d       	adc	r23, r1
    685c:	81 1d       	adc	r24, r1
    685e:	91 1d       	adc	r25, r1
    6860:	20 eb       	ldi	r18, 0xB0	; 176
    6862:	34 e0       	ldi	r19, 0x04	; 4
    6864:	40 e0       	ldi	r20, 0x00	; 0
    6866:	50 e0       	ldi	r21, 0x00	; 0
    6868:	0e 94 eb 4e 	call	0x9dd6	; 0x9dd6 <__mulsi3>
    686c:	2a e0       	ldi	r18, 0x0A	; 10
    686e:	96 95       	lsr	r25
    6870:	87 95       	ror	r24
    6872:	77 95       	ror	r23
    6874:	67 95       	ror	r22
    6876:	2a 95       	dec	r18
    6878:	d1 f7       	brne	.-12     	; 0x686e <_ZN16xbeeIOdataParser17getSensorReadingsEPh+0x192>
    687a:	d5 01       	movw	r26, r10
    687c:	50 96       	adiw	r26, 0x10	; 16
    687e:	6d 93       	st	X+, r22
    6880:	7d 93       	st	X+, r23
    6882:	8d 93       	st	X+, r24
    6884:	9c 93       	st	X, r25
    6886:	53 97       	sbiw	r26, 0x13	; 19
    6888:	08 94       	sec
    688a:	c1 1c       	adc	r12, r1
    688c:	d1 1c       	adc	r13, r1
    688e:	0e 5f       	subi	r16, 0xFE	; 254
    6890:	1f 4f       	sbci	r17, 0xFF	; 255
    6892:	e4 e0       	ldi	r30, 0x04	; 4
    6894:	f0 e0       	ldi	r31, 0x00	; 0
    6896:	ae 0e       	add	r10, r30
    6898:	bf 1e       	adc	r11, r31
    689a:	d7 01       	movw	r26, r14
    689c:	8d 91       	ld	r24, X+
    689e:	9c 91       	ld	r25, X
    68a0:	c8 16       	cp	r12, r24
    68a2:	d9 06       	cpc	r13, r25
    68a4:	84 f2       	brlt	.-96     	; 0x6846 <_ZN16xbeeIOdataParser17getSensorReadingsEPh+0x16a>
    68a6:	df 91       	pop	r29
    68a8:	cf 91       	pop	r28
    68aa:	1f 91       	pop	r17
    68ac:	0f 91       	pop	r16
    68ae:	ff 90       	pop	r15
    68b0:	ef 90       	pop	r14
    68b2:	df 90       	pop	r13
    68b4:	cf 90       	pop	r12
    68b6:	bf 90       	pop	r11
    68b8:	af 90       	pop	r10
    68ba:	08 95       	ret

000068bc <_ZN8xbeeATstC2Ev>:
    68bc:	fc 01       	movw	r30, r24
    68be:	11 82       	std	Z+1, r1	; 0x01
    68c0:	10 82       	st	Z, r1
    68c2:	13 82       	std	Z+3, r1	; 0x03
    68c4:	14 82       	std	Z+4, r1	; 0x04
    68c6:	15 82       	std	Z+5, r1	; 0x05
    68c8:	16 82       	std	Z+6, r1	; 0x06
    68ca:	17 82       	std	Z+7, r1	; 0x07
    68cc:	10 86       	std	Z+8, r1	; 0x08
    68ce:	11 86       	std	Z+9, r1	; 0x09
    68d0:	12 86       	std	Z+10, r1	; 0x0a
    68d2:	8a e2       	ldi	r24, 0x2A	; 42
    68d4:	84 8b       	std	Z+20, r24	; 0x14
    68d6:	85 8b       	std	Z+21, r24	; 0x15
    68d8:	08 95       	ret

000068da <_ZN8xbeeATstC1Ev>:
    68da:	fc 01       	movw	r30, r24
    68dc:	11 82       	std	Z+1, r1	; 0x01
    68de:	10 82       	st	Z, r1
    68e0:	13 82       	std	Z+3, r1	; 0x03
    68e2:	14 82       	std	Z+4, r1	; 0x04
    68e4:	15 82       	std	Z+5, r1	; 0x05
    68e6:	16 82       	std	Z+6, r1	; 0x06
    68e8:	17 82       	std	Z+7, r1	; 0x07
    68ea:	10 86       	std	Z+8, r1	; 0x08
    68ec:	11 86       	std	Z+9, r1	; 0x09
    68ee:	12 86       	std	Z+10, r1	; 0x0a
    68f0:	8a e2       	ldi	r24, 0x2A	; 42
    68f2:	84 8b       	std	Z+20, r24	; 0x14
    68f4:	85 8b       	std	Z+21, r24	; 0x15
    68f6:	08 95       	ret

000068f8 <_ZN8xbeeATst16getATCommandDataEi>:
    68f8:	6f 92       	push	r6
    68fa:	7f 92       	push	r7
    68fc:	8f 92       	push	r8
    68fe:	9f 92       	push	r9
    6900:	af 92       	push	r10
    6902:	bf 92       	push	r11
    6904:	cf 92       	push	r12
    6906:	df 92       	push	r13
    6908:	ef 92       	push	r14
    690a:	ff 92       	push	r15
    690c:	0f 93       	push	r16
    690e:	1f 93       	push	r17
    6910:	cf 93       	push	r28
    6912:	df 93       	push	r29
    6914:	7c 01       	movw	r14, r24
    6916:	8b 01       	movw	r16, r22
    6918:	0e 94 e2 4b 	call	0x97c4	; 0x97c4 <millis>
    691c:	5b 01       	movw	r10, r22
    691e:	6c 01       	movw	r12, r24
    6920:	38 01       	movw	r6, r16
    6922:	88 24       	eor	r8, r8
    6924:	99 24       	eor	r9, r9
    6926:	8f e7       	ldi	r24, 0x7F	; 127
    6928:	99 e0       	ldi	r25, 0x09	; 9
    692a:	0e 94 e3 3e 	call	0x7dc6	; 0x7dc6 <_ZN14HardwareSerial9availableEv>
    692e:	18 16       	cp	r1, r24
    6930:	19 06       	cpc	r1, r25
    6932:	0c f0       	brlt	.+2      	; 0x6936 <_ZN8xbeeATst16getATCommandDataEi+0x3e>
    6934:	de c1       	rjmp	.+956    	; 0x6cf2 <_ZN8xbeeATst16getATCommandDataEi+0x3fa>
    6936:	8f e7       	ldi	r24, 0x7F	; 127
    6938:	99 e0       	ldi	r25, 0x09	; 9
    693a:	0e 94 0e 3f 	call	0x7e1c	; 0x7e1c <_ZN14HardwareSerial4readEv>
    693e:	18 2f       	mov	r17, r24
    6940:	0e 94 e2 4b 	call	0x97c4	; 0x97c4 <millis>
    6944:	6a 19       	sub	r22, r10
    6946:	7b 09       	sbc	r23, r11
    6948:	8c 09       	sbc	r24, r12
    694a:	9d 09       	sbc	r25, r13
    694c:	66 16       	cp	r6, r22
    694e:	77 06       	cpc	r7, r23
    6950:	88 06       	cpc	r8, r24
    6952:	99 06       	cpc	r9, r25
    6954:	08 f4       	brcc	.+2      	; 0x6958 <_ZN8xbeeATst16getATCommandDataEi+0x60>
    6956:	cd c1       	rjmp	.+922    	; 0x6cf2 <_ZN8xbeeATst16getATCommandDataEi+0x3fa>
    6958:	1e 37       	cpi	r17, 0x7E	; 126
    695a:	29 f7       	brne	.-54     	; 0x6926 <_ZN8xbeeATst16getATCommandDataEi+0x2e>
    695c:	0e 94 e2 4b 	call	0x97c4	; 0x97c4 <millis>
    6960:	5b 01       	movw	r10, r22
    6962:	6c 01       	movw	r12, r24
    6964:	0c c0       	rjmp	.+24     	; 0x697e <_ZN8xbeeATst16getATCommandDataEi+0x86>
    6966:	0e 94 e2 4b 	call	0x97c4	; 0x97c4 <millis>
    696a:	6a 19       	sub	r22, r10
    696c:	7b 09       	sbc	r23, r11
    696e:	8c 09       	sbc	r24, r12
    6970:	9d 09       	sbc	r25, r13
    6972:	66 16       	cp	r6, r22
    6974:	77 06       	cpc	r7, r23
    6976:	88 06       	cpc	r8, r24
    6978:	99 06       	cpc	r9, r25
    697a:	08 f4       	brcc	.+2      	; 0x697e <_ZN8xbeeATst16getATCommandDataEi+0x86>
    697c:	ba c1       	rjmp	.+884    	; 0x6cf2 <_ZN8xbeeATst16getATCommandDataEi+0x3fa>
    697e:	8f e7       	ldi	r24, 0x7F	; 127
    6980:	99 e0       	ldi	r25, 0x09	; 9
    6982:	0e 94 e3 3e 	call	0x7dc6	; 0x7dc6 <_ZN14HardwareSerial9availableEv>
    6986:	02 97       	sbiw	r24, 0x02	; 2
    6988:	74 f3       	brlt	.-36     	; 0x6966 <_ZN8xbeeATst16getATCommandDataEi+0x6e>
    698a:	8f e7       	ldi	r24, 0x7F	; 127
    698c:	99 e0       	ldi	r25, 0x09	; 9
    698e:	0e 94 e3 3e 	call	0x7dc6	; 0x7dc6 <_ZN14HardwareSerial9availableEv>
    6992:	02 97       	sbiw	r24, 0x02	; 2
    6994:	84 f0       	brlt	.+32     	; 0x69b6 <_ZN8xbeeATst16getATCommandDataEi+0xbe>
    6996:	8f e7       	ldi	r24, 0x7F	; 127
    6998:	99 e0       	ldi	r25, 0x09	; 9
    699a:	0e 94 0e 3f 	call	0x7e1c	; 0x7e1c <_ZN14HardwareSerial4readEv>
    699e:	18 2f       	mov	r17, r24
    69a0:	8f e7       	ldi	r24, 0x7F	; 127
    69a2:	99 e0       	ldi	r25, 0x09	; 9
    69a4:	0e 94 0e 3f 	call	0x7e1c	; 0x7e1c <_ZN14HardwareSerial4readEv>
    69a8:	31 2f       	mov	r19, r17
    69aa:	20 e0       	ldi	r18, 0x00	; 0
    69ac:	28 0f       	add	r18, r24
    69ae:	39 1f       	adc	r19, r25
    69b0:	f7 01       	movw	r30, r14
    69b2:	31 83       	std	Z+1, r19	; 0x01
    69b4:	20 83       	st	Z, r18
    69b6:	f7 01       	movw	r30, r14
    69b8:	80 81       	ld	r24, Z
    69ba:	91 81       	ldd	r25, Z+1	; 0x01
    69bc:	18 16       	cp	r1, r24
    69be:	19 06       	cpc	r1, r25
    69c0:	0c f0       	brlt	.+2      	; 0x69c4 <_ZN8xbeeATst16getATCommandDataEi+0xcc>
    69c2:	97 c1       	rjmp	.+814    	; 0x6cf2 <_ZN8xbeeATst16getATCommandDataEi+0x3fa>
    69c4:	8a e5       	ldi	r24, 0x5A	; 90
    69c6:	82 83       	std	Z+2, r24	; 0x02
    69c8:	0e 94 e2 4b 	call	0x97c4	; 0x97c4 <millis>
    69cc:	5b 01       	movw	r10, r22
    69ce:	6c 01       	movw	r12, r24
    69d0:	0c c0       	rjmp	.+24     	; 0x69ea <_ZN8xbeeATst16getATCommandDataEi+0xf2>
    69d2:	0e 94 e2 4b 	call	0x97c4	; 0x97c4 <millis>
    69d6:	6a 19       	sub	r22, r10
    69d8:	7b 09       	sbc	r23, r11
    69da:	8c 09       	sbc	r24, r12
    69dc:	9d 09       	sbc	r25, r13
    69de:	66 16       	cp	r6, r22
    69e0:	77 06       	cpc	r7, r23
    69e2:	88 06       	cpc	r8, r24
    69e4:	99 06       	cpc	r9, r25
    69e6:	08 f4       	brcc	.+2      	; 0x69ea <_ZN8xbeeATst16getATCommandDataEi+0xf2>
    69e8:	84 c1       	rjmp	.+776    	; 0x6cf2 <_ZN8xbeeATst16getATCommandDataEi+0x3fa>
    69ea:	8f e7       	ldi	r24, 0x7F	; 127
    69ec:	99 e0       	ldi	r25, 0x09	; 9
    69ee:	0e 94 e3 3e 	call	0x7dc6	; 0x7dc6 <_ZN14HardwareSerial9availableEv>
    69f2:	18 16       	cp	r1, r24
    69f4:	19 06       	cpc	r1, r25
    69f6:	6c f7       	brge	.-38     	; 0x69d2 <_ZN8xbeeATst16getATCommandDataEi+0xda>
    69f8:	8f e7       	ldi	r24, 0x7F	; 127
    69fa:	99 e0       	ldi	r25, 0x09	; 9
    69fc:	0e 94 e3 3e 	call	0x7dc6	; 0x7dc6 <_ZN14HardwareSerial9availableEv>
    6a00:	18 16       	cp	r1, r24
    6a02:	19 06       	cpc	r1, r25
    6a04:	0c f0       	brlt	.+2      	; 0x6a08 <_ZN8xbeeATst16getATCommandDataEi+0x110>
    6a06:	75 c1       	rjmp	.+746    	; 0x6cf2 <_ZN8xbeeATst16getATCommandDataEi+0x3fa>
    6a08:	8f e7       	ldi	r24, 0x7F	; 127
    6a0a:	99 e0       	ldi	r25, 0x09	; 9
    6a0c:	0e 94 0e 3f 	call	0x7e1c	; 0x7e1c <_ZN14HardwareSerial4readEv>
    6a10:	f7 01       	movw	r30, r14
    6a12:	82 83       	std	Z+2, r24	; 0x02
    6a14:	0e 94 e2 4b 	call	0x97c4	; 0x97c4 <millis>
    6a18:	5b 01       	movw	r10, r22
    6a1a:	6c 01       	movw	r12, r24
    6a1c:	0c c0       	rjmp	.+24     	; 0x6a36 <_ZN8xbeeATst16getATCommandDataEi+0x13e>
    6a1e:	0e 94 e2 4b 	call	0x97c4	; 0x97c4 <millis>
    6a22:	6a 19       	sub	r22, r10
    6a24:	7b 09       	sbc	r23, r11
    6a26:	8c 09       	sbc	r24, r12
    6a28:	9d 09       	sbc	r25, r13
    6a2a:	66 16       	cp	r6, r22
    6a2c:	77 06       	cpc	r7, r23
    6a2e:	88 06       	cpc	r8, r24
    6a30:	99 06       	cpc	r9, r25
    6a32:	08 f4       	brcc	.+2      	; 0x6a36 <_ZN8xbeeATst16getATCommandDataEi+0x13e>
    6a34:	5e c1       	rjmp	.+700    	; 0x6cf2 <_ZN8xbeeATst16getATCommandDataEi+0x3fa>
    6a36:	8f e7       	ldi	r24, 0x7F	; 127
    6a38:	99 e0       	ldi	r25, 0x09	; 9
    6a3a:	0e 94 e3 3e 	call	0x7dc6	; 0x7dc6 <_ZN14HardwareSerial9availableEv>
    6a3e:	18 16       	cp	r1, r24
    6a40:	19 06       	cpc	r1, r25
    6a42:	6c f7       	brge	.-38     	; 0x6a1e <_ZN8xbeeATst16getATCommandDataEi+0x126>
    6a44:	8f e7       	ldi	r24, 0x7F	; 127
    6a46:	99 e0       	ldi	r25, 0x09	; 9
    6a48:	0e 94 e3 3e 	call	0x7dc6	; 0x7dc6 <_ZN14HardwareSerial9availableEv>
    6a4c:	18 16       	cp	r1, r24
    6a4e:	19 06       	cpc	r1, r25
    6a50:	0c f0       	brlt	.+2      	; 0x6a54 <_ZN8xbeeATst16getATCommandDataEi+0x15c>
    6a52:	4f c1       	rjmp	.+670    	; 0x6cf2 <_ZN8xbeeATst16getATCommandDataEi+0x3fa>
    6a54:	8f e7       	ldi	r24, 0x7F	; 127
    6a56:	99 e0       	ldi	r25, 0x09	; 9
    6a58:	0e 94 0e 3f 	call	0x7e1c	; 0x7e1c <_ZN14HardwareSerial4readEv>
    6a5c:	f7 01       	movw	r30, r14
    6a5e:	83 8b       	std	Z+19, r24	; 0x13
    6a60:	13 82       	std	Z+3, r1	; 0x03
    6a62:	14 82       	std	Z+4, r1	; 0x04
    6a64:	15 82       	std	Z+5, r1	; 0x05
    6a66:	16 82       	std	Z+6, r1	; 0x06
    6a68:	17 82       	std	Z+7, r1	; 0x07
    6a6a:	10 86       	std	Z+8, r1	; 0x08
    6a6c:	11 86       	std	Z+9, r1	; 0x09
    6a6e:	12 86       	std	Z+10, r1	; 0x0a
    6a70:	0e 94 e2 4b 	call	0x97c4	; 0x97c4 <millis>
    6a74:	5b 01       	movw	r10, r22
    6a76:	6c 01       	movw	r12, r24
    6a78:	0c c0       	rjmp	.+24     	; 0x6a92 <_ZN8xbeeATst16getATCommandDataEi+0x19a>
    6a7a:	0e 94 e2 4b 	call	0x97c4	; 0x97c4 <millis>
    6a7e:	6a 19       	sub	r22, r10
    6a80:	7b 09       	sbc	r23, r11
    6a82:	8c 09       	sbc	r24, r12
    6a84:	9d 09       	sbc	r25, r13
    6a86:	66 16       	cp	r6, r22
    6a88:	77 06       	cpc	r7, r23
    6a8a:	88 06       	cpc	r8, r24
    6a8c:	99 06       	cpc	r9, r25
    6a8e:	08 f4       	brcc	.+2      	; 0x6a92 <_ZN8xbeeATst16getATCommandDataEi+0x19a>
    6a90:	30 c1       	rjmp	.+608    	; 0x6cf2 <_ZN8xbeeATst16getATCommandDataEi+0x3fa>
    6a92:	8f e7       	ldi	r24, 0x7F	; 127
    6a94:	99 e0       	ldi	r25, 0x09	; 9
    6a96:	0e 94 e3 3e 	call	0x7dc6	; 0x7dc6 <_ZN14HardwareSerial9availableEv>
    6a9a:	08 97       	sbiw	r24, 0x08	; 8
    6a9c:	74 f3       	brlt	.-36     	; 0x6a7a <_ZN8xbeeATst16getATCommandDataEi+0x182>
    6a9e:	8f e7       	ldi	r24, 0x7F	; 127
    6aa0:	99 e0       	ldi	r25, 0x09	; 9
    6aa2:	0e 94 e3 3e 	call	0x7dc6	; 0x7dc6 <_ZN14HardwareSerial9availableEv>
    6aa6:	08 97       	sbiw	r24, 0x08	; 8
    6aa8:	0c f4       	brge	.+2      	; 0x6aac <_ZN8xbeeATst16getATCommandDataEi+0x1b4>
    6aaa:	23 c1       	rjmp	.+582    	; 0x6cf2 <_ZN8xbeeATst16getATCommandDataEi+0x3fa>
    6aac:	c0 e0       	ldi	r28, 0x00	; 0
    6aae:	d0 e0       	ldi	r29, 0x00	; 0
    6ab0:	08 e1       	ldi	r16, 0x18	; 24
    6ab2:	10 e0       	ldi	r17, 0x00	; 0
    6ab4:	8f e7       	ldi	r24, 0x7F	; 127
    6ab6:	99 e0       	ldi	r25, 0x09	; 9
    6ab8:	0e 94 0e 3f 	call	0x7e1c	; 0x7e1c <_ZN14HardwareSerial4readEv>
    6abc:	28 2f       	mov	r18, r24
    6abe:	30 e0       	ldi	r19, 0x00	; 0
    6ac0:	40 e0       	ldi	r20, 0x00	; 0
    6ac2:	50 e0       	ldi	r21, 0x00	; 0
    6ac4:	c4 30       	cpi	r28, 0x04	; 4
    6ac6:	d1 05       	cpc	r29, r1
    6ac8:	b4 f4       	brge	.+44     	; 0x6af6 <_ZN8xbeeATst16getATCommandDataEi+0x1fe>
    6aca:	00 2e       	mov	r0, r16
    6acc:	04 c0       	rjmp	.+8      	; 0x6ad6 <_ZN8xbeeATst16getATCommandDataEi+0x1de>
    6ace:	22 0f       	add	r18, r18
    6ad0:	33 1f       	adc	r19, r19
    6ad2:	44 1f       	adc	r20, r20
    6ad4:	55 1f       	adc	r21, r21
    6ad6:	0a 94       	dec	r0
    6ad8:	d2 f7       	brpl	.-12     	; 0x6ace <_ZN8xbeeATst16getATCommandDataEi+0x1d6>
    6ada:	f7 01       	movw	r30, r14
    6adc:	83 81       	ldd	r24, Z+3	; 0x03
    6ade:	94 81       	ldd	r25, Z+4	; 0x04
    6ae0:	a5 81       	ldd	r26, Z+5	; 0x05
    6ae2:	b6 81       	ldd	r27, Z+6	; 0x06
    6ae4:	82 0f       	add	r24, r18
    6ae6:	93 1f       	adc	r25, r19
    6ae8:	a4 1f       	adc	r26, r20
    6aea:	b5 1f       	adc	r27, r21
    6aec:	83 83       	std	Z+3, r24	; 0x03
    6aee:	94 83       	std	Z+4, r25	; 0x04
    6af0:	a5 83       	std	Z+5, r26	; 0x05
    6af2:	b6 83       	std	Z+6, r27	; 0x06
    6af4:	19 c0       	rjmp	.+50     	; 0x6b28 <_ZN8xbeeATst16getATCommandDataEi+0x230>
    6af6:	00 5e       	subi	r16, 0xE0	; 224
    6af8:	1f 4f       	sbci	r17, 0xFF	; 255
    6afa:	00 2e       	mov	r0, r16
    6afc:	04 c0       	rjmp	.+8      	; 0x6b06 <_ZN8xbeeATst16getATCommandDataEi+0x20e>
    6afe:	22 0f       	add	r18, r18
    6b00:	33 1f       	adc	r19, r19
    6b02:	44 1f       	adc	r20, r20
    6b04:	55 1f       	adc	r21, r21
    6b06:	0a 94       	dec	r0
    6b08:	d2 f7       	brpl	.-12     	; 0x6afe <_ZN8xbeeATst16getATCommandDataEi+0x206>
    6b0a:	00 52       	subi	r16, 0x20	; 32
    6b0c:	10 40       	sbci	r17, 0x00	; 0
    6b0e:	f7 01       	movw	r30, r14
    6b10:	87 81       	ldd	r24, Z+7	; 0x07
    6b12:	90 85       	ldd	r25, Z+8	; 0x08
    6b14:	a1 85       	ldd	r26, Z+9	; 0x09
    6b16:	b2 85       	ldd	r27, Z+10	; 0x0a
    6b18:	82 0f       	add	r24, r18
    6b1a:	93 1f       	adc	r25, r19
    6b1c:	a4 1f       	adc	r26, r20
    6b1e:	b5 1f       	adc	r27, r21
    6b20:	87 83       	std	Z+7, r24	; 0x07
    6b22:	90 87       	std	Z+8, r25	; 0x08
    6b24:	a1 87       	std	Z+9, r26	; 0x09
    6b26:	b2 87       	std	Z+10, r27	; 0x0a
    6b28:	21 96       	adiw	r28, 0x01	; 1
    6b2a:	08 50       	subi	r16, 0x08	; 8
    6b2c:	10 40       	sbci	r17, 0x00	; 0
    6b2e:	c8 30       	cpi	r28, 0x08	; 8
    6b30:	d1 05       	cpc	r29, r1
    6b32:	09 f0       	breq	.+2      	; 0x6b36 <_ZN8xbeeATst16getATCommandDataEi+0x23e>
    6b34:	bf cf       	rjmp	.-130    	; 0x6ab4 <_ZN8xbeeATst16getATCommandDataEi+0x1bc>
    6b36:	0e 94 e2 4b 	call	0x97c4	; 0x97c4 <millis>
    6b3a:	5b 01       	movw	r10, r22
    6b3c:	6c 01       	movw	r12, r24
    6b3e:	0c c0       	rjmp	.+24     	; 0x6b58 <_ZN8xbeeATst16getATCommandDataEi+0x260>
    6b40:	0e 94 e2 4b 	call	0x97c4	; 0x97c4 <millis>
    6b44:	6a 19       	sub	r22, r10
    6b46:	7b 09       	sbc	r23, r11
    6b48:	8c 09       	sbc	r24, r12
    6b4a:	9d 09       	sbc	r25, r13
    6b4c:	66 16       	cp	r6, r22
    6b4e:	77 06       	cpc	r7, r23
    6b50:	88 06       	cpc	r8, r24
    6b52:	99 06       	cpc	r9, r25
    6b54:	08 f4       	brcc	.+2      	; 0x6b58 <_ZN8xbeeATst16getATCommandDataEi+0x260>
    6b56:	cd c0       	rjmp	.+410    	; 0x6cf2 <_ZN8xbeeATst16getATCommandDataEi+0x3fa>
    6b58:	8f e7       	ldi	r24, 0x7F	; 127
    6b5a:	99 e0       	ldi	r25, 0x09	; 9
    6b5c:	0e 94 e3 3e 	call	0x7dc6	; 0x7dc6 <_ZN14HardwareSerial9availableEv>
    6b60:	02 97       	sbiw	r24, 0x02	; 2
    6b62:	74 f3       	brlt	.-36     	; 0x6b40 <_ZN8xbeeATst16getATCommandDataEi+0x248>
    6b64:	8f e7       	ldi	r24, 0x7F	; 127
    6b66:	99 e0       	ldi	r25, 0x09	; 9
    6b68:	0e 94 0e 3f 	call	0x7e1c	; 0x7e1c <_ZN14HardwareSerial4readEv>
    6b6c:	18 2f       	mov	r17, r24
    6b6e:	8f e7       	ldi	r24, 0x7F	; 127
    6b70:	99 e0       	ldi	r25, 0x09	; 9
    6b72:	0e 94 0e 3f 	call	0x7e1c	; 0x7e1c <_ZN14HardwareSerial4readEv>
    6b76:	31 2f       	mov	r19, r17
    6b78:	20 e0       	ldi	r18, 0x00	; 0
    6b7a:	28 0f       	add	r18, r24
    6b7c:	39 1f       	adc	r19, r25
    6b7e:	f7 01       	movw	r30, r14
    6b80:	34 87       	std	Z+12, r19	; 0x0c
    6b82:	23 87       	std	Z+11, r18	; 0x0b
    6b84:	0e 94 e2 4b 	call	0x97c4	; 0x97c4 <millis>
    6b88:	5b 01       	movw	r10, r22
    6b8a:	6c 01       	movw	r12, r24
    6b8c:	0c c0       	rjmp	.+24     	; 0x6ba6 <_ZN8xbeeATst16getATCommandDataEi+0x2ae>
    6b8e:	0e 94 e2 4b 	call	0x97c4	; 0x97c4 <millis>
    6b92:	6a 19       	sub	r22, r10
    6b94:	7b 09       	sbc	r23, r11
    6b96:	8c 09       	sbc	r24, r12
    6b98:	9d 09       	sbc	r25, r13
    6b9a:	66 16       	cp	r6, r22
    6b9c:	77 06       	cpc	r7, r23
    6b9e:	88 06       	cpc	r8, r24
    6ba0:	99 06       	cpc	r9, r25
    6ba2:	08 f4       	brcc	.+2      	; 0x6ba6 <_ZN8xbeeATst16getATCommandDataEi+0x2ae>
    6ba4:	a6 c0       	rjmp	.+332    	; 0x6cf2 <_ZN8xbeeATst16getATCommandDataEi+0x3fa>
    6ba6:	8f e7       	ldi	r24, 0x7F	; 127
    6ba8:	99 e0       	ldi	r25, 0x09	; 9
    6baa:	0e 94 e3 3e 	call	0x7dc6	; 0x7dc6 <_ZN14HardwareSerial9availableEv>
    6bae:	03 97       	sbiw	r24, 0x03	; 3
    6bb0:	74 f3       	brlt	.-36     	; 0x6b8e <_ZN8xbeeATst16getATCommandDataEi+0x296>
    6bb2:	8f e7       	ldi	r24, 0x7F	; 127
    6bb4:	99 e0       	ldi	r25, 0x09	; 9
    6bb6:	0e 94 e3 3e 	call	0x7dc6	; 0x7dc6 <_ZN14HardwareSerial9availableEv>
    6bba:	02 97       	sbiw	r24, 0x02	; 2
    6bbc:	0c f4       	brge	.+2      	; 0x6bc0 <_ZN8xbeeATst16getATCommandDataEi+0x2c8>
    6bbe:	99 c0       	rjmp	.+306    	; 0x6cf2 <_ZN8xbeeATst16getATCommandDataEi+0x3fa>
    6bc0:	8f e7       	ldi	r24, 0x7F	; 127
    6bc2:	99 e0       	ldi	r25, 0x09	; 9
    6bc4:	0e 94 0e 3f 	call	0x7e1c	; 0x7e1c <_ZN14HardwareSerial4readEv>
    6bc8:	f7 01       	movw	r30, r14
    6bca:	84 8b       	std	Z+20, r24	; 0x14
    6bcc:	8f e7       	ldi	r24, 0x7F	; 127
    6bce:	99 e0       	ldi	r25, 0x09	; 9
    6bd0:	0e 94 0e 3f 	call	0x7e1c	; 0x7e1c <_ZN14HardwareSerial4readEv>
    6bd4:	f7 01       	movw	r30, r14
    6bd6:	85 8b       	std	Z+21, r24	; 0x15
    6bd8:	0e 94 e2 4b 	call	0x97c4	; 0x97c4 <millis>
    6bdc:	5b 01       	movw	r10, r22
    6bde:	6c 01       	movw	r12, r24
    6be0:	0c c0       	rjmp	.+24     	; 0x6bfa <_ZN8xbeeATst16getATCommandDataEi+0x302>
    6be2:	0e 94 e2 4b 	call	0x97c4	; 0x97c4 <millis>
    6be6:	6a 19       	sub	r22, r10
    6be8:	7b 09       	sbc	r23, r11
    6bea:	8c 09       	sbc	r24, r12
    6bec:	9d 09       	sbc	r25, r13
    6bee:	66 16       	cp	r6, r22
    6bf0:	77 06       	cpc	r7, r23
    6bf2:	88 06       	cpc	r8, r24
    6bf4:	99 06       	cpc	r9, r25
    6bf6:	08 f4       	brcc	.+2      	; 0x6bfa <_ZN8xbeeATst16getATCommandDataEi+0x302>
    6bf8:	7c c0       	rjmp	.+248    	; 0x6cf2 <_ZN8xbeeATst16getATCommandDataEi+0x3fa>
    6bfa:	8f e7       	ldi	r24, 0x7F	; 127
    6bfc:	99 e0       	ldi	r25, 0x09	; 9
    6bfe:	0e 94 e3 3e 	call	0x7dc6	; 0x7dc6 <_ZN14HardwareSerial9availableEv>
    6c02:	18 16       	cp	r1, r24
    6c04:	19 06       	cpc	r1, r25
    6c06:	6c f7       	brge	.-38     	; 0x6be2 <_ZN8xbeeATst16getATCommandDataEi+0x2ea>
    6c08:	8f e7       	ldi	r24, 0x7F	; 127
    6c0a:	99 e0       	ldi	r25, 0x09	; 9
    6c0c:	0e 94 0e 3f 	call	0x7e1c	; 0x7e1c <_ZN14HardwareSerial4readEv>
    6c10:	f7 01       	movw	r30, r14
    6c12:	86 8b       	std	Z+22, r24	; 0x16
    6c14:	0e 94 e2 4b 	call	0x97c4	; 0x97c4 <millis>
    6c18:	5b 01       	movw	r10, r22
    6c1a:	6c 01       	movw	r12, r24
    6c1c:	f7 01       	movw	r30, r14
    6c1e:	80 81       	ld	r24, Z
    6c20:	91 81       	ldd	r25, Z+1	; 0x01
    6c22:	0f 97       	sbiw	r24, 0x0f	; 15
    6c24:	92 8b       	std	Z+18, r25	; 0x12
    6c26:	81 8b       	std	Z+17, r24	; 0x11
    6c28:	0c c0       	rjmp	.+24     	; 0x6c42 <_ZN8xbeeATst16getATCommandDataEi+0x34a>
    6c2a:	0e 94 e2 4b 	call	0x97c4	; 0x97c4 <millis>
    6c2e:	6a 19       	sub	r22, r10
    6c30:	7b 09       	sbc	r23, r11
    6c32:	8c 09       	sbc	r24, r12
    6c34:	9d 09       	sbc	r25, r13
    6c36:	66 16       	cp	r6, r22
    6c38:	77 06       	cpc	r7, r23
    6c3a:	88 06       	cpc	r8, r24
    6c3c:	99 06       	cpc	r9, r25
    6c3e:	08 f4       	brcc	.+2      	; 0x6c42 <_ZN8xbeeATst16getATCommandDataEi+0x34a>
    6c40:	58 c0       	rjmp	.+176    	; 0x6cf2 <_ZN8xbeeATst16getATCommandDataEi+0x3fa>
    6c42:	8f e7       	ldi	r24, 0x7F	; 127
    6c44:	99 e0       	ldi	r25, 0x09	; 9
    6c46:	0e 94 e3 3e 	call	0x7dc6	; 0x7dc6 <_ZN14HardwareSerial9availableEv>
    6c4a:	f7 01       	movw	r30, r14
    6c4c:	20 81       	ld	r18, Z
    6c4e:	31 81       	ldd	r19, Z+1	; 0x01
    6c50:	2f 50       	subi	r18, 0x0F	; 15
    6c52:	30 40       	sbci	r19, 0x00	; 0
    6c54:	82 17       	cp	r24, r18
    6c56:	93 07       	cpc	r25, r19
    6c58:	44 f3       	brlt	.-48     	; 0x6c2a <_ZN8xbeeATst16getATCommandDataEi+0x332>
    6c5a:	80 91 6c 07 	lds	r24, 0x076C
    6c5e:	88 23       	and	r24, r24
    6c60:	29 f0       	breq	.+10     	; 0x6c6c <_ZN8xbeeATst16getATCommandDataEi+0x374>
    6c62:	86 85       	ldd	r24, Z+14	; 0x0e
    6c64:	97 85       	ldd	r25, Z+15	; 0x0f
    6c66:	0e 94 d9 08 	call	0x11b2	; 0x11b2 <free>
    6c6a:	03 c0       	rjmp	.+6      	; 0x6c72 <_ZN8xbeeATst16getATCommandDataEi+0x37a>
    6c6c:	81 e0       	ldi	r24, 0x01	; 1
    6c6e:	80 93 6c 07 	sts	0x076C, r24
    6c72:	f7 01       	movw	r30, r14
    6c74:	80 81       	ld	r24, Z
    6c76:	91 81       	ldd	r25, Z+1	; 0x01
    6c78:	0f 97       	sbiw	r24, 0x0f	; 15
    6c7a:	0e 94 2f 08 	call	0x105e	; 0x105e <malloc>
    6c7e:	f7 01       	movw	r30, r14
    6c80:	97 87       	std	Z+15, r25	; 0x0f
    6c82:	86 87       	std	Z+14, r24	; 0x0e
    6c84:	00 97       	sbiw	r24, 0x00	; 0
    6c86:	a9 f1       	breq	.+106    	; 0x6cf2 <_ZN8xbeeATst16getATCommandDataEi+0x3fa>
    6c88:	c0 e0       	ldi	r28, 0x00	; 0
    6c8a:	d0 e0       	ldi	r29, 0x00	; 0
    6c8c:	0c c0       	rjmp	.+24     	; 0x6ca6 <_ZN8xbeeATst16getATCommandDataEi+0x3ae>
    6c8e:	f7 01       	movw	r30, r14
    6c90:	06 85       	ldd	r16, Z+14	; 0x0e
    6c92:	17 85       	ldd	r17, Z+15	; 0x0f
    6c94:	0c 0f       	add	r16, r28
    6c96:	1d 1f       	adc	r17, r29
    6c98:	8f e7       	ldi	r24, 0x7F	; 127
    6c9a:	99 e0       	ldi	r25, 0x09	; 9
    6c9c:	0e 94 0e 3f 	call	0x7e1c	; 0x7e1c <_ZN14HardwareSerial4readEv>
    6ca0:	f8 01       	movw	r30, r16
    6ca2:	80 83       	st	Z, r24
    6ca4:	21 96       	adiw	r28, 0x01	; 1
    6ca6:	f7 01       	movw	r30, r14
    6ca8:	80 81       	ld	r24, Z
    6caa:	91 81       	ldd	r25, Z+1	; 0x01
    6cac:	0f 97       	sbiw	r24, 0x0f	; 15
    6cae:	c8 17       	cp	r28, r24
    6cb0:	d9 07       	cpc	r29, r25
    6cb2:	6c f3       	brlt	.-38     	; 0x6c8e <_ZN8xbeeATst16getATCommandDataEi+0x396>
    6cb4:	0e 94 e2 4b 	call	0x97c4	; 0x97c4 <millis>
    6cb8:	5b 01       	movw	r10, r22
    6cba:	6c 01       	movw	r12, r24
    6cbc:	0b c0       	rjmp	.+22     	; 0x6cd4 <_ZN8xbeeATst16getATCommandDataEi+0x3dc>
    6cbe:	0e 94 e2 4b 	call	0x97c4	; 0x97c4 <millis>
    6cc2:	6a 19       	sub	r22, r10
    6cc4:	7b 09       	sbc	r23, r11
    6cc6:	8c 09       	sbc	r24, r12
    6cc8:	9d 09       	sbc	r25, r13
    6cca:	66 16       	cp	r6, r22
    6ccc:	77 06       	cpc	r7, r23
    6cce:	88 06       	cpc	r8, r24
    6cd0:	99 06       	cpc	r9, r25
    6cd2:	78 f0       	brcs	.+30     	; 0x6cf2 <_ZN8xbeeATst16getATCommandDataEi+0x3fa>
    6cd4:	8f e7       	ldi	r24, 0x7F	; 127
    6cd6:	99 e0       	ldi	r25, 0x09	; 9
    6cd8:	0e 94 e3 3e 	call	0x7dc6	; 0x7dc6 <_ZN14HardwareSerial9availableEv>
    6cdc:	18 16       	cp	r1, r24
    6cde:	19 06       	cpc	r1, r25
    6ce0:	74 f7       	brge	.-36     	; 0x6cbe <_ZN8xbeeATst16getATCommandDataEi+0x3c6>
    6ce2:	8f e7       	ldi	r24, 0x7F	; 127
    6ce4:	99 e0       	ldi	r25, 0x09	; 9
    6ce6:	0e 94 0e 3f 	call	0x7e1c	; 0x7e1c <_ZN14HardwareSerial4readEv>
    6cea:	f7 01       	movw	r30, r14
    6cec:	80 8b       	std	Z+16, r24	; 0x10
    6cee:	81 e0       	ldi	r24, 0x01	; 1
    6cf0:	01 c0       	rjmp	.+2      	; 0x6cf4 <_ZN8xbeeATst16getATCommandDataEi+0x3fc>
    6cf2:	80 e0       	ldi	r24, 0x00	; 0
    6cf4:	df 91       	pop	r29
    6cf6:	cf 91       	pop	r28
    6cf8:	1f 91       	pop	r17
    6cfa:	0f 91       	pop	r16
    6cfc:	ff 90       	pop	r15
    6cfe:	ef 90       	pop	r14
    6d00:	df 90       	pop	r13
    6d02:	cf 90       	pop	r12
    6d04:	bf 90       	pop	r11
    6d06:	af 90       	pop	r10
    6d08:	9f 90       	pop	r9
    6d0a:	8f 90       	pop	r8
    6d0c:	7f 90       	pop	r7
    6d0e:	6f 90       	pop	r6
    6d10:	08 95       	ret

00006d12 <_ZN8xbeeATst21getLocalATCommandDataEi>:
    6d12:	6f 92       	push	r6
    6d14:	7f 92       	push	r7
    6d16:	8f 92       	push	r8
    6d18:	9f 92       	push	r9
    6d1a:	af 92       	push	r10
    6d1c:	bf 92       	push	r11
    6d1e:	cf 92       	push	r12
    6d20:	df 92       	push	r13
    6d22:	ef 92       	push	r14
    6d24:	ff 92       	push	r15
    6d26:	0f 93       	push	r16
    6d28:	1f 93       	push	r17
    6d2a:	cf 93       	push	r28
    6d2c:	df 93       	push	r29
    6d2e:	7c 01       	movw	r14, r24
    6d30:	8b 01       	movw	r16, r22
    6d32:	0e 94 e2 4b 	call	0x97c4	; 0x97c4 <millis>
    6d36:	5b 01       	movw	r10, r22
    6d38:	6c 01       	movw	r12, r24
    6d3a:	38 01       	movw	r6, r16
    6d3c:	88 24       	eor	r8, r8
    6d3e:	99 24       	eor	r9, r9
    6d40:	8f e7       	ldi	r24, 0x7F	; 127
    6d42:	99 e0       	ldi	r25, 0x09	; 9
    6d44:	0e 94 e3 3e 	call	0x7dc6	; 0x7dc6 <_ZN14HardwareSerial9availableEv>
    6d48:	18 16       	cp	r1, r24
    6d4a:	19 06       	cpc	r1, r25
    6d4c:	0c f0       	brlt	.+2      	; 0x6d50 <_ZN8xbeeATst21getLocalATCommandDataEi+0x3e>
    6d4e:	4c c1       	rjmp	.+664    	; 0x6fe8 <_ZN8xbeeATst21getLocalATCommandDataEi+0x2d6>
    6d50:	8f e7       	ldi	r24, 0x7F	; 127
    6d52:	99 e0       	ldi	r25, 0x09	; 9
    6d54:	0e 94 0e 3f 	call	0x7e1c	; 0x7e1c <_ZN14HardwareSerial4readEv>
    6d58:	18 2f       	mov	r17, r24
    6d5a:	0e 94 e2 4b 	call	0x97c4	; 0x97c4 <millis>
    6d5e:	6a 19       	sub	r22, r10
    6d60:	7b 09       	sbc	r23, r11
    6d62:	8c 09       	sbc	r24, r12
    6d64:	9d 09       	sbc	r25, r13
    6d66:	66 16       	cp	r6, r22
    6d68:	77 06       	cpc	r7, r23
    6d6a:	88 06       	cpc	r8, r24
    6d6c:	99 06       	cpc	r9, r25
    6d6e:	08 f4       	brcc	.+2      	; 0x6d72 <_ZN8xbeeATst21getLocalATCommandDataEi+0x60>
    6d70:	3b c1       	rjmp	.+630    	; 0x6fe8 <_ZN8xbeeATst21getLocalATCommandDataEi+0x2d6>
    6d72:	1e 37       	cpi	r17, 0x7E	; 126
    6d74:	29 f7       	brne	.-54     	; 0x6d40 <_ZN8xbeeATst21getLocalATCommandDataEi+0x2e>
    6d76:	0e 94 e2 4b 	call	0x97c4	; 0x97c4 <millis>
    6d7a:	5b 01       	movw	r10, r22
    6d7c:	6c 01       	movw	r12, r24
    6d7e:	0c c0       	rjmp	.+24     	; 0x6d98 <_ZN8xbeeATst21getLocalATCommandDataEi+0x86>
    6d80:	0e 94 e2 4b 	call	0x97c4	; 0x97c4 <millis>
    6d84:	6a 19       	sub	r22, r10
    6d86:	7b 09       	sbc	r23, r11
    6d88:	8c 09       	sbc	r24, r12
    6d8a:	9d 09       	sbc	r25, r13
    6d8c:	66 16       	cp	r6, r22
    6d8e:	77 06       	cpc	r7, r23
    6d90:	88 06       	cpc	r8, r24
    6d92:	99 06       	cpc	r9, r25
    6d94:	08 f4       	brcc	.+2      	; 0x6d98 <_ZN8xbeeATst21getLocalATCommandDataEi+0x86>
    6d96:	28 c1       	rjmp	.+592    	; 0x6fe8 <_ZN8xbeeATst21getLocalATCommandDataEi+0x2d6>
    6d98:	8f e7       	ldi	r24, 0x7F	; 127
    6d9a:	99 e0       	ldi	r25, 0x09	; 9
    6d9c:	0e 94 e3 3e 	call	0x7dc6	; 0x7dc6 <_ZN14HardwareSerial9availableEv>
    6da0:	02 97       	sbiw	r24, 0x02	; 2
    6da2:	74 f3       	brlt	.-36     	; 0x6d80 <_ZN8xbeeATst21getLocalATCommandDataEi+0x6e>
    6da4:	8f e7       	ldi	r24, 0x7F	; 127
    6da6:	99 e0       	ldi	r25, 0x09	; 9
    6da8:	0e 94 e3 3e 	call	0x7dc6	; 0x7dc6 <_ZN14HardwareSerial9availableEv>
    6dac:	02 97       	sbiw	r24, 0x02	; 2
    6dae:	84 f0       	brlt	.+32     	; 0x6dd0 <_ZN8xbeeATst21getLocalATCommandDataEi+0xbe>
    6db0:	8f e7       	ldi	r24, 0x7F	; 127
    6db2:	99 e0       	ldi	r25, 0x09	; 9
    6db4:	0e 94 0e 3f 	call	0x7e1c	; 0x7e1c <_ZN14HardwareSerial4readEv>
    6db8:	18 2f       	mov	r17, r24
    6dba:	8f e7       	ldi	r24, 0x7F	; 127
    6dbc:	99 e0       	ldi	r25, 0x09	; 9
    6dbe:	0e 94 0e 3f 	call	0x7e1c	; 0x7e1c <_ZN14HardwareSerial4readEv>
    6dc2:	31 2f       	mov	r19, r17
    6dc4:	20 e0       	ldi	r18, 0x00	; 0
    6dc6:	28 0f       	add	r18, r24
    6dc8:	39 1f       	adc	r19, r25
    6dca:	f7 01       	movw	r30, r14
    6dcc:	31 83       	std	Z+1, r19	; 0x01
    6dce:	20 83       	st	Z, r18
    6dd0:	f7 01       	movw	r30, r14
    6dd2:	80 81       	ld	r24, Z
    6dd4:	91 81       	ldd	r25, Z+1	; 0x01
    6dd6:	18 16       	cp	r1, r24
    6dd8:	19 06       	cpc	r1, r25
    6dda:	0c f0       	brlt	.+2      	; 0x6dde <_ZN8xbeeATst21getLocalATCommandDataEi+0xcc>
    6ddc:	05 c1       	rjmp	.+522    	; 0x6fe8 <_ZN8xbeeATst21getLocalATCommandDataEi+0x2d6>
    6dde:	8a e5       	ldi	r24, 0x5A	; 90
    6de0:	82 83       	std	Z+2, r24	; 0x02
    6de2:	0e 94 e2 4b 	call	0x97c4	; 0x97c4 <millis>
    6de6:	5b 01       	movw	r10, r22
    6de8:	6c 01       	movw	r12, r24
    6dea:	0c c0       	rjmp	.+24     	; 0x6e04 <_ZN8xbeeATst21getLocalATCommandDataEi+0xf2>
    6dec:	0e 94 e2 4b 	call	0x97c4	; 0x97c4 <millis>
    6df0:	6a 19       	sub	r22, r10
    6df2:	7b 09       	sbc	r23, r11
    6df4:	8c 09       	sbc	r24, r12
    6df6:	9d 09       	sbc	r25, r13
    6df8:	66 16       	cp	r6, r22
    6dfa:	77 06       	cpc	r7, r23
    6dfc:	88 06       	cpc	r8, r24
    6dfe:	99 06       	cpc	r9, r25
    6e00:	08 f4       	brcc	.+2      	; 0x6e04 <_ZN8xbeeATst21getLocalATCommandDataEi+0xf2>
    6e02:	f2 c0       	rjmp	.+484    	; 0x6fe8 <_ZN8xbeeATst21getLocalATCommandDataEi+0x2d6>
    6e04:	8f e7       	ldi	r24, 0x7F	; 127
    6e06:	99 e0       	ldi	r25, 0x09	; 9
    6e08:	0e 94 e3 3e 	call	0x7dc6	; 0x7dc6 <_ZN14HardwareSerial9availableEv>
    6e0c:	18 16       	cp	r1, r24
    6e0e:	19 06       	cpc	r1, r25
    6e10:	6c f7       	brge	.-38     	; 0x6dec <_ZN8xbeeATst21getLocalATCommandDataEi+0xda>
    6e12:	8f e7       	ldi	r24, 0x7F	; 127
    6e14:	99 e0       	ldi	r25, 0x09	; 9
    6e16:	0e 94 e3 3e 	call	0x7dc6	; 0x7dc6 <_ZN14HardwareSerial9availableEv>
    6e1a:	18 16       	cp	r1, r24
    6e1c:	19 06       	cpc	r1, r25
    6e1e:	0c f0       	brlt	.+2      	; 0x6e22 <_ZN8xbeeATst21getLocalATCommandDataEi+0x110>
    6e20:	e3 c0       	rjmp	.+454    	; 0x6fe8 <_ZN8xbeeATst21getLocalATCommandDataEi+0x2d6>
    6e22:	8f e7       	ldi	r24, 0x7F	; 127
    6e24:	99 e0       	ldi	r25, 0x09	; 9
    6e26:	0e 94 0e 3f 	call	0x7e1c	; 0x7e1c <_ZN14HardwareSerial4readEv>
    6e2a:	f7 01       	movw	r30, r14
    6e2c:	82 83       	std	Z+2, r24	; 0x02
    6e2e:	0e 94 e2 4b 	call	0x97c4	; 0x97c4 <millis>
    6e32:	5b 01       	movw	r10, r22
    6e34:	6c 01       	movw	r12, r24
    6e36:	0c c0       	rjmp	.+24     	; 0x6e50 <_ZN8xbeeATst21getLocalATCommandDataEi+0x13e>
    6e38:	0e 94 e2 4b 	call	0x97c4	; 0x97c4 <millis>
    6e3c:	6a 19       	sub	r22, r10
    6e3e:	7b 09       	sbc	r23, r11
    6e40:	8c 09       	sbc	r24, r12
    6e42:	9d 09       	sbc	r25, r13
    6e44:	66 16       	cp	r6, r22
    6e46:	77 06       	cpc	r7, r23
    6e48:	88 06       	cpc	r8, r24
    6e4a:	99 06       	cpc	r9, r25
    6e4c:	08 f4       	brcc	.+2      	; 0x6e50 <_ZN8xbeeATst21getLocalATCommandDataEi+0x13e>
    6e4e:	cc c0       	rjmp	.+408    	; 0x6fe8 <_ZN8xbeeATst21getLocalATCommandDataEi+0x2d6>
    6e50:	8f e7       	ldi	r24, 0x7F	; 127
    6e52:	99 e0       	ldi	r25, 0x09	; 9
    6e54:	0e 94 e3 3e 	call	0x7dc6	; 0x7dc6 <_ZN14HardwareSerial9availableEv>
    6e58:	18 16       	cp	r1, r24
    6e5a:	19 06       	cpc	r1, r25
    6e5c:	6c f7       	brge	.-38     	; 0x6e38 <_ZN8xbeeATst21getLocalATCommandDataEi+0x126>
    6e5e:	8f e7       	ldi	r24, 0x7F	; 127
    6e60:	99 e0       	ldi	r25, 0x09	; 9
    6e62:	0e 94 e3 3e 	call	0x7dc6	; 0x7dc6 <_ZN14HardwareSerial9availableEv>
    6e66:	18 16       	cp	r1, r24
    6e68:	19 06       	cpc	r1, r25
    6e6a:	0c f0       	brlt	.+2      	; 0x6e6e <_ZN8xbeeATst21getLocalATCommandDataEi+0x15c>
    6e6c:	bd c0       	rjmp	.+378    	; 0x6fe8 <_ZN8xbeeATst21getLocalATCommandDataEi+0x2d6>
    6e6e:	8f e7       	ldi	r24, 0x7F	; 127
    6e70:	99 e0       	ldi	r25, 0x09	; 9
    6e72:	0e 94 0e 3f 	call	0x7e1c	; 0x7e1c <_ZN14HardwareSerial4readEv>
    6e76:	f7 01       	movw	r30, r14
    6e78:	83 8b       	std	Z+19, r24	; 0x13
    6e7a:	0e 94 e2 4b 	call	0x97c4	; 0x97c4 <millis>
    6e7e:	5b 01       	movw	r10, r22
    6e80:	6c 01       	movw	r12, r24
    6e82:	0c c0       	rjmp	.+24     	; 0x6e9c <_ZN8xbeeATst21getLocalATCommandDataEi+0x18a>
    6e84:	0e 94 e2 4b 	call	0x97c4	; 0x97c4 <millis>
    6e88:	6a 19       	sub	r22, r10
    6e8a:	7b 09       	sbc	r23, r11
    6e8c:	8c 09       	sbc	r24, r12
    6e8e:	9d 09       	sbc	r25, r13
    6e90:	66 16       	cp	r6, r22
    6e92:	77 06       	cpc	r7, r23
    6e94:	88 06       	cpc	r8, r24
    6e96:	99 06       	cpc	r9, r25
    6e98:	08 f4       	brcc	.+2      	; 0x6e9c <_ZN8xbeeATst21getLocalATCommandDataEi+0x18a>
    6e9a:	a6 c0       	rjmp	.+332    	; 0x6fe8 <_ZN8xbeeATst21getLocalATCommandDataEi+0x2d6>
    6e9c:	8f e7       	ldi	r24, 0x7F	; 127
    6e9e:	99 e0       	ldi	r25, 0x09	; 9
    6ea0:	0e 94 e3 3e 	call	0x7dc6	; 0x7dc6 <_ZN14HardwareSerial9availableEv>
    6ea4:	03 97       	sbiw	r24, 0x03	; 3
    6ea6:	74 f3       	brlt	.-36     	; 0x6e84 <_ZN8xbeeATst21getLocalATCommandDataEi+0x172>
    6ea8:	8f e7       	ldi	r24, 0x7F	; 127
    6eaa:	99 e0       	ldi	r25, 0x09	; 9
    6eac:	0e 94 e3 3e 	call	0x7dc6	; 0x7dc6 <_ZN14HardwareSerial9availableEv>
    6eb0:	02 97       	sbiw	r24, 0x02	; 2
    6eb2:	0c f4       	brge	.+2      	; 0x6eb6 <_ZN8xbeeATst21getLocalATCommandDataEi+0x1a4>
    6eb4:	99 c0       	rjmp	.+306    	; 0x6fe8 <_ZN8xbeeATst21getLocalATCommandDataEi+0x2d6>
    6eb6:	8f e7       	ldi	r24, 0x7F	; 127
    6eb8:	99 e0       	ldi	r25, 0x09	; 9
    6eba:	0e 94 0e 3f 	call	0x7e1c	; 0x7e1c <_ZN14HardwareSerial4readEv>
    6ebe:	f7 01       	movw	r30, r14
    6ec0:	84 8b       	std	Z+20, r24	; 0x14
    6ec2:	8f e7       	ldi	r24, 0x7F	; 127
    6ec4:	99 e0       	ldi	r25, 0x09	; 9
    6ec6:	0e 94 0e 3f 	call	0x7e1c	; 0x7e1c <_ZN14HardwareSerial4readEv>
    6eca:	f7 01       	movw	r30, r14
    6ecc:	85 8b       	std	Z+21, r24	; 0x15
    6ece:	0e 94 e2 4b 	call	0x97c4	; 0x97c4 <millis>
    6ed2:	5b 01       	movw	r10, r22
    6ed4:	6c 01       	movw	r12, r24
    6ed6:	0c c0       	rjmp	.+24     	; 0x6ef0 <_ZN8xbeeATst21getLocalATCommandDataEi+0x1de>
    6ed8:	0e 94 e2 4b 	call	0x97c4	; 0x97c4 <millis>
    6edc:	6a 19       	sub	r22, r10
    6ede:	7b 09       	sbc	r23, r11
    6ee0:	8c 09       	sbc	r24, r12
    6ee2:	9d 09       	sbc	r25, r13
    6ee4:	66 16       	cp	r6, r22
    6ee6:	77 06       	cpc	r7, r23
    6ee8:	88 06       	cpc	r8, r24
    6eea:	99 06       	cpc	r9, r25
    6eec:	08 f4       	brcc	.+2      	; 0x6ef0 <_ZN8xbeeATst21getLocalATCommandDataEi+0x1de>
    6eee:	7c c0       	rjmp	.+248    	; 0x6fe8 <_ZN8xbeeATst21getLocalATCommandDataEi+0x2d6>
    6ef0:	8f e7       	ldi	r24, 0x7F	; 127
    6ef2:	99 e0       	ldi	r25, 0x09	; 9
    6ef4:	0e 94 e3 3e 	call	0x7dc6	; 0x7dc6 <_ZN14HardwareSerial9availableEv>
    6ef8:	18 16       	cp	r1, r24
    6efa:	19 06       	cpc	r1, r25
    6efc:	6c f7       	brge	.-38     	; 0x6ed8 <_ZN8xbeeATst21getLocalATCommandDataEi+0x1c6>
    6efe:	8f e7       	ldi	r24, 0x7F	; 127
    6f00:	99 e0       	ldi	r25, 0x09	; 9
    6f02:	0e 94 0e 3f 	call	0x7e1c	; 0x7e1c <_ZN14HardwareSerial4readEv>
    6f06:	f7 01       	movw	r30, r14
    6f08:	86 8b       	std	Z+22, r24	; 0x16
    6f0a:	0e 94 e2 4b 	call	0x97c4	; 0x97c4 <millis>
    6f0e:	5b 01       	movw	r10, r22
    6f10:	6c 01       	movw	r12, r24
    6f12:	f7 01       	movw	r30, r14
    6f14:	80 81       	ld	r24, Z
    6f16:	91 81       	ldd	r25, Z+1	; 0x01
    6f18:	05 97       	sbiw	r24, 0x05	; 5
    6f1a:	92 8b       	std	Z+18, r25	; 0x12
    6f1c:	81 8b       	std	Z+17, r24	; 0x11
    6f1e:	0c c0       	rjmp	.+24     	; 0x6f38 <_ZN8xbeeATst21getLocalATCommandDataEi+0x226>
    6f20:	0e 94 e2 4b 	call	0x97c4	; 0x97c4 <millis>
    6f24:	6a 19       	sub	r22, r10
    6f26:	7b 09       	sbc	r23, r11
    6f28:	8c 09       	sbc	r24, r12
    6f2a:	9d 09       	sbc	r25, r13
    6f2c:	66 16       	cp	r6, r22
    6f2e:	77 06       	cpc	r7, r23
    6f30:	88 06       	cpc	r8, r24
    6f32:	99 06       	cpc	r9, r25
    6f34:	08 f4       	brcc	.+2      	; 0x6f38 <_ZN8xbeeATst21getLocalATCommandDataEi+0x226>
    6f36:	58 c0       	rjmp	.+176    	; 0x6fe8 <_ZN8xbeeATst21getLocalATCommandDataEi+0x2d6>
    6f38:	8f e7       	ldi	r24, 0x7F	; 127
    6f3a:	99 e0       	ldi	r25, 0x09	; 9
    6f3c:	0e 94 e3 3e 	call	0x7dc6	; 0x7dc6 <_ZN14HardwareSerial9availableEv>
    6f40:	f7 01       	movw	r30, r14
    6f42:	20 81       	ld	r18, Z
    6f44:	31 81       	ldd	r19, Z+1	; 0x01
    6f46:	25 50       	subi	r18, 0x05	; 5
    6f48:	30 40       	sbci	r19, 0x00	; 0
    6f4a:	82 17       	cp	r24, r18
    6f4c:	93 07       	cpc	r25, r19
    6f4e:	44 f3       	brlt	.-48     	; 0x6f20 <_ZN8xbeeATst21getLocalATCommandDataEi+0x20e>
    6f50:	80 91 6d 07 	lds	r24, 0x076D
    6f54:	88 23       	and	r24, r24
    6f56:	29 f0       	breq	.+10     	; 0x6f62 <_ZN8xbeeATst21getLocalATCommandDataEi+0x250>
    6f58:	86 85       	ldd	r24, Z+14	; 0x0e
    6f5a:	97 85       	ldd	r25, Z+15	; 0x0f
    6f5c:	0e 94 d9 08 	call	0x11b2	; 0x11b2 <free>
    6f60:	03 c0       	rjmp	.+6      	; 0x6f68 <_ZN8xbeeATst21getLocalATCommandDataEi+0x256>
    6f62:	81 e0       	ldi	r24, 0x01	; 1
    6f64:	80 93 6d 07 	sts	0x076D, r24
    6f68:	f7 01       	movw	r30, r14
    6f6a:	80 81       	ld	r24, Z
    6f6c:	91 81       	ldd	r25, Z+1	; 0x01
    6f6e:	05 97       	sbiw	r24, 0x05	; 5
    6f70:	0e 94 2f 08 	call	0x105e	; 0x105e <malloc>
    6f74:	f7 01       	movw	r30, r14
    6f76:	97 87       	std	Z+15, r25	; 0x0f
    6f78:	86 87       	std	Z+14, r24	; 0x0e
    6f7a:	00 97       	sbiw	r24, 0x00	; 0
    6f7c:	a9 f1       	breq	.+106    	; 0x6fe8 <_ZN8xbeeATst21getLocalATCommandDataEi+0x2d6>
    6f7e:	c0 e0       	ldi	r28, 0x00	; 0
    6f80:	d0 e0       	ldi	r29, 0x00	; 0
    6f82:	0c c0       	rjmp	.+24     	; 0x6f9c <_ZN8xbeeATst21getLocalATCommandDataEi+0x28a>
    6f84:	f7 01       	movw	r30, r14
    6f86:	06 85       	ldd	r16, Z+14	; 0x0e
    6f88:	17 85       	ldd	r17, Z+15	; 0x0f
    6f8a:	0c 0f       	add	r16, r28
    6f8c:	1d 1f       	adc	r17, r29
    6f8e:	8f e7       	ldi	r24, 0x7F	; 127
    6f90:	99 e0       	ldi	r25, 0x09	; 9
    6f92:	0e 94 0e 3f 	call	0x7e1c	; 0x7e1c <_ZN14HardwareSerial4readEv>
    6f96:	f8 01       	movw	r30, r16
    6f98:	80 83       	st	Z, r24
    6f9a:	21 96       	adiw	r28, 0x01	; 1
    6f9c:	f7 01       	movw	r30, r14
    6f9e:	80 81       	ld	r24, Z
    6fa0:	91 81       	ldd	r25, Z+1	; 0x01
    6fa2:	05 97       	sbiw	r24, 0x05	; 5
    6fa4:	c8 17       	cp	r28, r24
    6fa6:	d9 07       	cpc	r29, r25
    6fa8:	6c f3       	brlt	.-38     	; 0x6f84 <_ZN8xbeeATst21getLocalATCommandDataEi+0x272>
    6faa:	0e 94 e2 4b 	call	0x97c4	; 0x97c4 <millis>
    6fae:	5b 01       	movw	r10, r22
    6fb0:	6c 01       	movw	r12, r24
    6fb2:	0b c0       	rjmp	.+22     	; 0x6fca <_ZN8xbeeATst21getLocalATCommandDataEi+0x2b8>
    6fb4:	0e 94 e2 4b 	call	0x97c4	; 0x97c4 <millis>
    6fb8:	6a 19       	sub	r22, r10
    6fba:	7b 09       	sbc	r23, r11
    6fbc:	8c 09       	sbc	r24, r12
    6fbe:	9d 09       	sbc	r25, r13
    6fc0:	66 16       	cp	r6, r22
    6fc2:	77 06       	cpc	r7, r23
    6fc4:	88 06       	cpc	r8, r24
    6fc6:	99 06       	cpc	r9, r25
    6fc8:	78 f0       	brcs	.+30     	; 0x6fe8 <_ZN8xbeeATst21getLocalATCommandDataEi+0x2d6>
    6fca:	8f e7       	ldi	r24, 0x7F	; 127
    6fcc:	99 e0       	ldi	r25, 0x09	; 9
    6fce:	0e 94 e3 3e 	call	0x7dc6	; 0x7dc6 <_ZN14HardwareSerial9availableEv>
    6fd2:	18 16       	cp	r1, r24
    6fd4:	19 06       	cpc	r1, r25
    6fd6:	74 f7       	brge	.-36     	; 0x6fb4 <_ZN8xbeeATst21getLocalATCommandDataEi+0x2a2>
    6fd8:	8f e7       	ldi	r24, 0x7F	; 127
    6fda:	99 e0       	ldi	r25, 0x09	; 9
    6fdc:	0e 94 0e 3f 	call	0x7e1c	; 0x7e1c <_ZN14HardwareSerial4readEv>
    6fe0:	f7 01       	movw	r30, r14
    6fe2:	80 8b       	std	Z+16, r24	; 0x10
    6fe4:	81 e0       	ldi	r24, 0x01	; 1
    6fe6:	01 c0       	rjmp	.+2      	; 0x6fea <_ZN8xbeeATst21getLocalATCommandDataEi+0x2d8>
    6fe8:	80 e0       	ldi	r24, 0x00	; 0
    6fea:	df 91       	pop	r29
    6fec:	cf 91       	pop	r28
    6fee:	1f 91       	pop	r17
    6ff0:	0f 91       	pop	r16
    6ff2:	ff 90       	pop	r15
    6ff4:	ef 90       	pop	r14
    6ff6:	df 90       	pop	r13
    6ff8:	cf 90       	pop	r12
    6ffa:	bf 90       	pop	r11
    6ffc:	af 90       	pop	r10
    6ffe:	9f 90       	pop	r9
    7000:	8f 90       	pop	r8
    7002:	7f 90       	pop	r7
    7004:	6f 90       	pop	r6
    7006:	08 95       	ret

00007008 <_ZN8xbeeATst13sendAtCommandEPlPci>:
    7008:	7f 92       	push	r7
    700a:	8f 92       	push	r8
    700c:	9f 92       	push	r9
    700e:	af 92       	push	r10
    7010:	bf 92       	push	r11
    7012:	cf 92       	push	r12
    7014:	df 92       	push	r13
    7016:	ef 92       	push	r14
    7018:	ff 92       	push	r15
    701a:	0f 93       	push	r16
    701c:	1f 93       	push	r17
    701e:	cf 93       	push	r28
    7020:	df 93       	push	r29
    7022:	f6 2e       	mov	r15, r22
    7024:	e7 2e       	mov	r14, r23
    7026:	5a 01       	movw	r10, r20
    7028:	49 01       	movw	r8, r18
    702a:	80 91 52 05 	lds	r24, 0x0552
    702e:	8f 5f       	subi	r24, 0xFF	; 255
    7030:	80 93 52 05 	sts	0x0552, r24
    7034:	88 23       	and	r24, r24
    7036:	19 f4       	brne	.+6      	; 0x703e <_ZN8xbeeATst13sendAtCommandEPlPci+0x36>
    7038:	81 e0       	ldi	r24, 0x01	; 1
    703a:	80 93 52 05 	sts	0x0552, r24
    703e:	d5 01       	movw	r26, r10
    7040:	0d 90       	ld	r0, X+
    7042:	00 20       	and	r0, r0
    7044:	e9 f7       	brne	.-6      	; 0x7040 <_ZN8xbeeATst13sendAtCommandEPlPci+0x38>
    7046:	8d 01       	movw	r16, r26
    7048:	01 50       	subi	r16, 0x01	; 1
    704a:	10 40       	sbci	r17, 0x00	; 0
    704c:	0a 19       	sub	r16, r10
    704e:	1b 09       	sbc	r17, r11
    7050:	8f e7       	ldi	r24, 0x7F	; 127
    7052:	99 e0       	ldi	r25, 0x09	; 9
    7054:	6e e7       	ldi	r22, 0x7E	; 126
    7056:	70 e0       	ldi	r23, 0x00	; 0
    7058:	40 e0       	ldi	r20, 0x00	; 0
    705a:	50 e0       	ldi	r21, 0x00	; 0
    705c:	0e 94 8a 41 	call	0x8314	; 0x8314 <_ZN5Print5printEii>
    7060:	8f e7       	ldi	r24, 0x7F	; 127
    7062:	99 e0       	ldi	r25, 0x09	; 9
    7064:	60 e0       	ldi	r22, 0x00	; 0
    7066:	70 e0       	ldi	r23, 0x00	; 0
    7068:	40 e0       	ldi	r20, 0x00	; 0
    706a:	50 e0       	ldi	r21, 0x00	; 0
    706c:	0e 94 8a 41 	call	0x8314	; 0x8314 <_ZN5Print5printEii>
    7070:	03 5f       	subi	r16, 0xF3	; 243
    7072:	1f 4f       	sbci	r17, 0xFF	; 255
    7074:	8f e7       	ldi	r24, 0x7F	; 127
    7076:	99 e0       	ldi	r25, 0x09	; 9
    7078:	b8 01       	movw	r22, r16
    707a:	40 e0       	ldi	r20, 0x00	; 0
    707c:	50 e0       	ldi	r21, 0x00	; 0
    707e:	0e 94 8a 41 	call	0x8314	; 0x8314 <_ZN5Print5printEii>
    7082:	8f e7       	ldi	r24, 0x7F	; 127
    7084:	99 e0       	ldi	r25, 0x09	; 9
    7086:	67 e1       	ldi	r22, 0x17	; 23
    7088:	70 e0       	ldi	r23, 0x00	; 0
    708a:	40 e0       	ldi	r20, 0x00	; 0
    708c:	50 e0       	ldi	r21, 0x00	; 0
    708e:	0e 94 8a 41 	call	0x8314	; 0x8314 <_ZN5Print5printEii>
    7092:	8f e7       	ldi	r24, 0x7F	; 127
    7094:	99 e0       	ldi	r25, 0x09	; 9
    7096:	60 91 52 05 	lds	r22, 0x0552
    709a:	40 e0       	ldi	r20, 0x00	; 0
    709c:	50 e0       	ldi	r21, 0x00	; 0
    709e:	0e 94 42 41 	call	0x8284	; 0x8284 <_ZN5Print5printEhi>
    70a2:	98 ee       	ldi	r25, 0xE8	; 232
    70a4:	79 2e       	mov	r7, r25
    70a6:	80 91 52 05 	lds	r24, 0x0552
    70aa:	78 1a       	sub	r7, r24
    70ac:	2f 2d       	mov	r18, r15
    70ae:	3e 2d       	mov	r19, r14
    70b0:	c9 01       	movw	r24, r18
    70b2:	6c 01       	movw	r12, r24
    70b4:	ee 24       	eor	r14, r14
    70b6:	ff 24       	eor	r15, r15
    70b8:	26 c0       	rjmp	.+76     	; 0x7106 <_ZN8xbeeATst13sendAtCommandEPlPci+0xfe>
    70ba:	f6 01       	movw	r30, r12
    70bc:	20 81       	ld	r18, Z
    70be:	31 81       	ldd	r19, Z+1	; 0x01
    70c0:	42 81       	ldd	r20, Z+2	; 0x02
    70c2:	53 81       	ldd	r21, Z+3	; 0x03
    70c4:	0c 2e       	mov	r0, r28
    70c6:	04 c0       	rjmp	.+8      	; 0x70d0 <_ZN8xbeeATst13sendAtCommandEPlPci+0xc8>
    70c8:	55 95       	asr	r21
    70ca:	47 95       	ror	r20
    70cc:	37 95       	ror	r19
    70ce:	27 95       	ror	r18
    70d0:	0a 94       	dec	r0
    70d2:	d2 f7       	brpl	.-12     	; 0x70c8 <_ZN8xbeeATst13sendAtCommandEPlPci+0xc0>
    70d4:	12 2f       	mov	r17, r18
    70d6:	8f e7       	ldi	r24, 0x7F	; 127
    70d8:	99 e0       	ldi	r25, 0x09	; 9
    70da:	62 2f       	mov	r22, r18
    70dc:	40 e0       	ldi	r20, 0x00	; 0
    70de:	50 e0       	ldi	r21, 0x00	; 0
    70e0:	0e 94 42 41 	call	0x8284	; 0x8284 <_ZN5Print5printEhi>
    70e4:	71 1a       	sub	r7, r17
    70e6:	28 97       	sbiw	r28, 0x08	; 8
    70e8:	ff ef       	ldi	r31, 0xFF	; 255
    70ea:	c8 3f       	cpi	r28, 0xF8	; 248
    70ec:	df 07       	cpc	r29, r31
    70ee:	29 f7       	brne	.-54     	; 0x70ba <_ZN8xbeeATst13sendAtCommandEPlPci+0xb2>
    70f0:	08 94       	sec
    70f2:	e1 1c       	adc	r14, r1
    70f4:	f1 1c       	adc	r15, r1
    70f6:	84 e0       	ldi	r24, 0x04	; 4
    70f8:	90 e0       	ldi	r25, 0x00	; 0
    70fa:	c8 0e       	add	r12, r24
    70fc:	d9 1e       	adc	r13, r25
    70fe:	92 e0       	ldi	r25, 0x02	; 2
    7100:	e9 16       	cp	r14, r25
    7102:	f1 04       	cpc	r15, r1
    7104:	19 f0       	breq	.+6      	; 0x710c <_ZN8xbeeATst13sendAtCommandEPlPci+0x104>
    7106:	c8 e1       	ldi	r28, 0x18	; 24
    7108:	d0 e0       	ldi	r29, 0x00	; 0
    710a:	d7 cf       	rjmp	.-82     	; 0x70ba <_ZN8xbeeATst13sendAtCommandEPlPci+0xb2>
    710c:	69 2d       	mov	r22, r9
    710e:	77 27       	eor	r23, r23
    7110:	67 fd       	sbrc	r22, 7
    7112:	7a 95       	dec	r23
    7114:	f6 2e       	mov	r15, r22
    7116:	8f e7       	ldi	r24, 0x7F	; 127
    7118:	99 e0       	ldi	r25, 0x09	; 9
    711a:	40 e0       	ldi	r20, 0x00	; 0
    711c:	50 e0       	ldi	r21, 0x00	; 0
    711e:	0e 94 42 41 	call	0x8284	; 0x8284 <_ZN5Print5printEhi>
    7122:	8f e7       	ldi	r24, 0x7F	; 127
    7124:	99 e0       	ldi	r25, 0x09	; 9
    7126:	68 2d       	mov	r22, r8
    7128:	40 e0       	ldi	r20, 0x00	; 0
    712a:	50 e0       	ldi	r21, 0x00	; 0
    712c:	0e 94 42 41 	call	0x8284	; 0x8284 <_ZN5Print5printEhi>
    7130:	8f e7       	ldi	r24, 0x7F	; 127
    7132:	99 e0       	ldi	r25, 0x09	; 9
    7134:	62 e0       	ldi	r22, 0x02	; 2
    7136:	70 e0       	ldi	r23, 0x00	; 0
    7138:	40 e0       	ldi	r20, 0x00	; 0
    713a:	50 e0       	ldi	r21, 0x00	; 0
    713c:	0e 94 8a 41 	call	0x8314	; 0x8314 <_ZN5Print5printEii>
    7140:	8f e7       	ldi	r24, 0x7F	; 127
    7142:	99 e0       	ldi	r25, 0x09	; 9
    7144:	d5 01       	movw	r26, r10
    7146:	6c 91       	ld	r22, X
    7148:	40 e0       	ldi	r20, 0x00	; 0
    714a:	50 e0       	ldi	r21, 0x00	; 0
    714c:	0e 94 9d 41 	call	0x833a	; 0x833a <_ZN5Print5printEci>
    7150:	f5 01       	movw	r30, r10
    7152:	10 81       	ld	r17, Z
    7154:	8f e7       	ldi	r24, 0x7F	; 127
    7156:	99 e0       	ldi	r25, 0x09	; 9
    7158:	61 81       	ldd	r22, Z+1	; 0x01
    715a:	40 e0       	ldi	r20, 0x00	; 0
    715c:	50 e0       	ldi	r21, 0x00	; 0
    715e:	0e 94 9d 41 	call	0x833a	; 0x833a <_ZN5Print5printEci>
    7162:	6e ef       	ldi	r22, 0xFE	; 254
    7164:	61 1b       	sub	r22, r17
    7166:	68 19       	sub	r22, r8
    7168:	d5 01       	movw	r26, r10
    716a:	11 96       	adiw	r26, 0x01	; 1
    716c:	8c 91       	ld	r24, X
    716e:	68 1b       	sub	r22, r24
    7170:	6f 19       	sub	r22, r15
    7172:	67 0d       	add	r22, r7
    7174:	8f e7       	ldi	r24, 0x7F	; 127
    7176:	99 e0       	ldi	r25, 0x09	; 9
    7178:	40 e0       	ldi	r20, 0x00	; 0
    717a:	50 e0       	ldi	r21, 0x00	; 0
    717c:	0e 94 42 41 	call	0x8284	; 0x8284 <_ZN5Print5printEhi>
    7180:	81 e0       	ldi	r24, 0x01	; 1
    7182:	df 91       	pop	r29
    7184:	cf 91       	pop	r28
    7186:	1f 91       	pop	r17
    7188:	0f 91       	pop	r16
    718a:	ff 90       	pop	r15
    718c:	ef 90       	pop	r14
    718e:	df 90       	pop	r13
    7190:	cf 90       	pop	r12
    7192:	bf 90       	pop	r11
    7194:	af 90       	pop	r10
    7196:	9f 90       	pop	r9
    7198:	8f 90       	pop	r8
    719a:	7f 90       	pop	r7
    719c:	08 95       	ret

0000719e <_ZN8xbeeATst24sendAtCommandWithOptionsEPlPcS1_ii>:
    719e:	3f 92       	push	r3
    71a0:	4f 92       	push	r4
    71a2:	5f 92       	push	r5
    71a4:	6f 92       	push	r6
    71a6:	7f 92       	push	r7
    71a8:	8f 92       	push	r8
    71aa:	9f 92       	push	r9
    71ac:	af 92       	push	r10
    71ae:	bf 92       	push	r11
    71b0:	cf 92       	push	r12
    71b2:	df 92       	push	r13
    71b4:	ef 92       	push	r14
    71b6:	ff 92       	push	r15
    71b8:	0f 93       	push	r16
    71ba:	1f 93       	push	r17
    71bc:	cf 93       	push	r28
    71be:	df 93       	push	r29
    71c0:	d6 2e       	mov	r13, r22
    71c2:	c7 2e       	mov	r12, r23
    71c4:	5a 01       	movw	r10, r20
    71c6:	62 2e       	mov	r6, r18
    71c8:	33 2e       	mov	r3, r19
    71ca:	28 01       	movw	r4, r16
    71cc:	47 01       	movw	r8, r14
    71ce:	80 91 53 05 	lds	r24, 0x0553
    71d2:	8f 5f       	subi	r24, 0xFF	; 255
    71d4:	80 93 53 05 	sts	0x0553, r24
    71d8:	88 23       	and	r24, r24
    71da:	19 f4       	brne	.+6      	; 0x71e2 <_ZN8xbeeATst24sendAtCommandWithOptionsEPlPcS1_ii+0x44>
    71dc:	81 e0       	ldi	r24, 0x01	; 1
    71de:	80 93 53 05 	sts	0x0553, r24
    71e2:	d5 01       	movw	r26, r10
    71e4:	0d 90       	ld	r0, X+
    71e6:	00 20       	and	r0, r0
    71e8:	e9 f7       	brne	.-6      	; 0x71e4 <_ZN8xbeeATst24sendAtCommandWithOptionsEPlPcS1_ii+0x46>
    71ea:	8d 01       	movw	r16, r26
    71ec:	01 50       	subi	r16, 0x01	; 1
    71ee:	10 40       	sbci	r17, 0x00	; 0
    71f0:	0a 19       	sub	r16, r10
    71f2:	1b 09       	sbc	r17, r11
    71f4:	8f e7       	ldi	r24, 0x7F	; 127
    71f6:	99 e0       	ldi	r25, 0x09	; 9
    71f8:	6e e7       	ldi	r22, 0x7E	; 126
    71fa:	70 e0       	ldi	r23, 0x00	; 0
    71fc:	40 e0       	ldi	r20, 0x00	; 0
    71fe:	50 e0       	ldi	r21, 0x00	; 0
    7200:	0e 94 8a 41 	call	0x8314	; 0x8314 <_ZN5Print5printEii>
    7204:	8f e7       	ldi	r24, 0x7F	; 127
    7206:	99 e0       	ldi	r25, 0x09	; 9
    7208:	60 e0       	ldi	r22, 0x00	; 0
    720a:	70 e0       	ldi	r23, 0x00	; 0
    720c:	40 e0       	ldi	r20, 0x00	; 0
    720e:	50 e0       	ldi	r21, 0x00	; 0
    7210:	0e 94 8a 41 	call	0x8314	; 0x8314 <_ZN5Print5printEii>
    7214:	03 5f       	subi	r16, 0xF3	; 243
    7216:	1f 4f       	sbci	r17, 0xFF	; 255
    7218:	04 0d       	add	r16, r4
    721a:	15 1d       	adc	r17, r5
    721c:	8f e7       	ldi	r24, 0x7F	; 127
    721e:	99 e0       	ldi	r25, 0x09	; 9
    7220:	b8 01       	movw	r22, r16
    7222:	40 e0       	ldi	r20, 0x00	; 0
    7224:	50 e0       	ldi	r21, 0x00	; 0
    7226:	0e 94 8a 41 	call	0x8314	; 0x8314 <_ZN5Print5printEii>
    722a:	8f e7       	ldi	r24, 0x7F	; 127
    722c:	99 e0       	ldi	r25, 0x09	; 9
    722e:	67 e1       	ldi	r22, 0x17	; 23
    7230:	70 e0       	ldi	r23, 0x00	; 0
    7232:	40 e0       	ldi	r20, 0x00	; 0
    7234:	50 e0       	ldi	r21, 0x00	; 0
    7236:	0e 94 8a 41 	call	0x8314	; 0x8314 <_ZN5Print5printEii>
    723a:	8f e7       	ldi	r24, 0x7F	; 127
    723c:	99 e0       	ldi	r25, 0x09	; 9
    723e:	60 91 53 05 	lds	r22, 0x0553
    7242:	40 e0       	ldi	r20, 0x00	; 0
    7244:	50 e0       	ldi	r21, 0x00	; 0
    7246:	0e 94 42 41 	call	0x8284	; 0x8284 <_ZN5Print5printEhi>
    724a:	48 ee       	ldi	r20, 0xE8	; 232
    724c:	74 2e       	mov	r7, r20
    724e:	80 91 53 05 	lds	r24, 0x0553
    7252:	78 1a       	sub	r7, r24
    7254:	2d 2d       	mov	r18, r13
    7256:	3c 2d       	mov	r19, r12
    7258:	c9 01       	movw	r24, r18
    725a:	6c 01       	movw	r12, r24
    725c:	ee 24       	eor	r14, r14
    725e:	ff 24       	eor	r15, r15
    7260:	26 c0       	rjmp	.+76     	; 0x72ae <_ZN8xbeeATst24sendAtCommandWithOptionsEPlPcS1_ii+0x110>
    7262:	f6 01       	movw	r30, r12
    7264:	20 81       	ld	r18, Z
    7266:	31 81       	ldd	r19, Z+1	; 0x01
    7268:	42 81       	ldd	r20, Z+2	; 0x02
    726a:	53 81       	ldd	r21, Z+3	; 0x03
    726c:	0c 2e       	mov	r0, r28
    726e:	04 c0       	rjmp	.+8      	; 0x7278 <_ZN8xbeeATst24sendAtCommandWithOptionsEPlPcS1_ii+0xda>
    7270:	55 95       	asr	r21
    7272:	47 95       	ror	r20
    7274:	37 95       	ror	r19
    7276:	27 95       	ror	r18
    7278:	0a 94       	dec	r0
    727a:	d2 f7       	brpl	.-12     	; 0x7270 <_ZN8xbeeATst24sendAtCommandWithOptionsEPlPcS1_ii+0xd2>
    727c:	12 2f       	mov	r17, r18
    727e:	8f e7       	ldi	r24, 0x7F	; 127
    7280:	99 e0       	ldi	r25, 0x09	; 9
    7282:	62 2f       	mov	r22, r18
    7284:	40 e0       	ldi	r20, 0x00	; 0
    7286:	50 e0       	ldi	r21, 0x00	; 0
    7288:	0e 94 42 41 	call	0x8284	; 0x8284 <_ZN5Print5printEhi>
    728c:	71 1a       	sub	r7, r17
    728e:	28 97       	sbiw	r28, 0x08	; 8
    7290:	ff ef       	ldi	r31, 0xFF	; 255
    7292:	c8 3f       	cpi	r28, 0xF8	; 248
    7294:	df 07       	cpc	r29, r31
    7296:	29 f7       	brne	.-54     	; 0x7262 <_ZN8xbeeATst24sendAtCommandWithOptionsEPlPcS1_ii+0xc4>
    7298:	08 94       	sec
    729a:	e1 1c       	adc	r14, r1
    729c:	f1 1c       	adc	r15, r1
    729e:	84 e0       	ldi	r24, 0x04	; 4
    72a0:	90 e0       	ldi	r25, 0x00	; 0
    72a2:	c8 0e       	add	r12, r24
    72a4:	d9 1e       	adc	r13, r25
    72a6:	92 e0       	ldi	r25, 0x02	; 2
    72a8:	e9 16       	cp	r14, r25
    72aa:	f1 04       	cpc	r15, r1
    72ac:	19 f0       	breq	.+6      	; 0x72b4 <_ZN8xbeeATst24sendAtCommandWithOptionsEPlPcS1_ii+0x116>
    72ae:	c8 e1       	ldi	r28, 0x18	; 24
    72b0:	d0 e0       	ldi	r29, 0x00	; 0
    72b2:	d7 cf       	rjmp	.-82     	; 0x7262 <_ZN8xbeeATst24sendAtCommandWithOptionsEPlPcS1_ii+0xc4>
    72b4:	69 2d       	mov	r22, r9
    72b6:	77 27       	eor	r23, r23
    72b8:	67 fd       	sbrc	r22, 7
    72ba:	7a 95       	dec	r23
    72bc:	06 2f       	mov	r16, r22
    72be:	8f e7       	ldi	r24, 0x7F	; 127
    72c0:	99 e0       	ldi	r25, 0x09	; 9
    72c2:	40 e0       	ldi	r20, 0x00	; 0
    72c4:	50 e0       	ldi	r21, 0x00	; 0
    72c6:	0e 94 42 41 	call	0x8284	; 0x8284 <_ZN5Print5printEhi>
    72ca:	8f e7       	ldi	r24, 0x7F	; 127
    72cc:	99 e0       	ldi	r25, 0x09	; 9
    72ce:	68 2d       	mov	r22, r8
    72d0:	40 e0       	ldi	r20, 0x00	; 0
    72d2:	50 e0       	ldi	r21, 0x00	; 0
    72d4:	0e 94 42 41 	call	0x8284	; 0x8284 <_ZN5Print5printEhi>
    72d8:	8f e7       	ldi	r24, 0x7F	; 127
    72da:	99 e0       	ldi	r25, 0x09	; 9
    72dc:	62 e0       	ldi	r22, 0x02	; 2
    72de:	70 e0       	ldi	r23, 0x00	; 0
    72e0:	40 e0       	ldi	r20, 0x00	; 0
    72e2:	50 e0       	ldi	r21, 0x00	; 0
    72e4:	0e 94 8a 41 	call	0x8314	; 0x8314 <_ZN5Print5printEii>
    72e8:	8f e7       	ldi	r24, 0x7F	; 127
    72ea:	99 e0       	ldi	r25, 0x09	; 9
    72ec:	d5 01       	movw	r26, r10
    72ee:	6c 91       	ld	r22, X
    72f0:	40 e0       	ldi	r20, 0x00	; 0
    72f2:	50 e0       	ldi	r21, 0x00	; 0
    72f4:	0e 94 9d 41 	call	0x833a	; 0x833a <_ZN5Print5printEci>
    72f8:	f5 01       	movw	r30, r10
    72fa:	10 81       	ld	r17, Z
    72fc:	8f e7       	ldi	r24, 0x7F	; 127
    72fe:	99 e0       	ldi	r25, 0x09	; 9
    7300:	61 81       	ldd	r22, Z+1	; 0x01
    7302:	40 e0       	ldi	r20, 0x00	; 0
    7304:	50 e0       	ldi	r21, 0x00	; 0
    7306:	0e 94 9d 41 	call	0x833a	; 0x833a <_ZN5Print5printEci>
    730a:	2e ef       	ldi	r18, 0xFE	; 254
    730c:	e2 2e       	mov	r14, r18
    730e:	e1 1a       	sub	r14, r17
    7310:	d5 01       	movw	r26, r10
    7312:	11 96       	adiw	r26, 0x01	; 1
    7314:	8c 91       	ld	r24, X
    7316:	e8 1a       	sub	r14, r24
    7318:	e8 18       	sub	r14, r8
    731a:	e0 1a       	sub	r14, r16
    731c:	e7 0c       	add	r14, r7
    731e:	41 14       	cp	r4, r1
    7320:	51 04       	cpc	r5, r1
    7322:	b9 f0       	breq	.+46     	; 0x7352 <_ZN8xbeeATst24sendAtCommandWithOptionsEPlPcS1_ii+0x1b4>
    7324:	86 2d       	mov	r24, r6
    7326:	93 2d       	mov	r25, r3
    7328:	9c 01       	movw	r18, r24
    732a:	89 01       	movw	r16, r18
    732c:	c0 e0       	ldi	r28, 0x00	; 0
    732e:	d0 e0       	ldi	r29, 0x00	; 0
    7330:	0d c0       	rjmp	.+26     	; 0x734c <_ZN8xbeeATst24sendAtCommandWithOptionsEPlPcS1_ii+0x1ae>
    7332:	8f e7       	ldi	r24, 0x7F	; 127
    7334:	99 e0       	ldi	r25, 0x09	; 9
    7336:	f8 01       	movw	r30, r16
    7338:	60 81       	ld	r22, Z
    733a:	40 e0       	ldi	r20, 0x00	; 0
    733c:	50 e0       	ldi	r21, 0x00	; 0
    733e:	0e 94 9d 41 	call	0x833a	; 0x833a <_ZN5Print5printEci>
    7342:	d8 01       	movw	r26, r16
    7344:	8d 91       	ld	r24, X+
    7346:	8d 01       	movw	r16, r26
    7348:	e8 1a       	sub	r14, r24
    734a:	21 96       	adiw	r28, 0x01	; 1
    734c:	c4 15       	cp	r28, r4
    734e:	d5 05       	cpc	r29, r5
    7350:	84 f3       	brlt	.-32     	; 0x7332 <_ZN8xbeeATst24sendAtCommandWithOptionsEPlPcS1_ii+0x194>
    7352:	8f e7       	ldi	r24, 0x7F	; 127
    7354:	99 e0       	ldi	r25, 0x09	; 9
    7356:	6e 2d       	mov	r22, r14
    7358:	40 e0       	ldi	r20, 0x00	; 0
    735a:	50 e0       	ldi	r21, 0x00	; 0
    735c:	0e 94 42 41 	call	0x8284	; 0x8284 <_ZN5Print5printEhi>
    7360:	81 e0       	ldi	r24, 0x01	; 1
    7362:	df 91       	pop	r29
    7364:	cf 91       	pop	r28
    7366:	1f 91       	pop	r17
    7368:	0f 91       	pop	r16
    736a:	ff 90       	pop	r15
    736c:	ef 90       	pop	r14
    736e:	df 90       	pop	r13
    7370:	cf 90       	pop	r12
    7372:	bf 90       	pop	r11
    7374:	af 90       	pop	r10
    7376:	9f 90       	pop	r9
    7378:	8f 90       	pop	r8
    737a:	7f 90       	pop	r7
    737c:	6f 90       	pop	r6
    737e:	5f 90       	pop	r5
    7380:	4f 90       	pop	r4
    7382:	3f 90       	pop	r3
    7384:	08 95       	ret

00007386 <_ZN8xbeeATst29sendLocalAtCommandWithOptionsEPcS0_i>:
    7386:	bf 92       	push	r11
    7388:	cf 92       	push	r12
    738a:	df 92       	push	r13
    738c:	ef 92       	push	r14
    738e:	ff 92       	push	r15
    7390:	0f 93       	push	r16
    7392:	1f 93       	push	r17
    7394:	cf 93       	push	r28
    7396:	df 93       	push	r29
    7398:	eb 01       	movw	r28, r22
    739a:	e4 2e       	mov	r14, r20
    739c:	b5 2e       	mov	r11, r21
    739e:	69 01       	movw	r12, r18
    73a0:	80 91 54 05 	lds	r24, 0x0554
    73a4:	8f 5f       	subi	r24, 0xFF	; 255
    73a6:	80 93 54 05 	sts	0x0554, r24
    73aa:	88 23       	and	r24, r24
    73ac:	19 f4       	brne	.+6      	; 0x73b4 <_ZN8xbeeATst29sendLocalAtCommandWithOptionsEPcS0_i+0x2e>
    73ae:	81 e0       	ldi	r24, 0x01	; 1
    73b0:	80 93 54 05 	sts	0x0554, r24
    73b4:	de 01       	movw	r26, r28
    73b6:	0d 90       	ld	r0, X+
    73b8:	00 20       	and	r0, r0
    73ba:	e9 f7       	brne	.-6      	; 0x73b6 <_ZN8xbeeATst29sendLocalAtCommandWithOptionsEPcS0_i+0x30>
    73bc:	8d 01       	movw	r16, r26
    73be:	01 50       	subi	r16, 0x01	; 1
    73c0:	10 40       	sbci	r17, 0x00	; 0
    73c2:	0c 1b       	sub	r16, r28
    73c4:	1d 0b       	sbc	r17, r29
    73c6:	8f e7       	ldi	r24, 0x7F	; 127
    73c8:	99 e0       	ldi	r25, 0x09	; 9
    73ca:	6e e7       	ldi	r22, 0x7E	; 126
    73cc:	70 e0       	ldi	r23, 0x00	; 0
    73ce:	40 e0       	ldi	r20, 0x00	; 0
    73d0:	50 e0       	ldi	r21, 0x00	; 0
    73d2:	0e 94 8a 41 	call	0x8314	; 0x8314 <_ZN5Print5printEii>
    73d6:	8f e7       	ldi	r24, 0x7F	; 127
    73d8:	99 e0       	ldi	r25, 0x09	; 9
    73da:	60 e0       	ldi	r22, 0x00	; 0
    73dc:	70 e0       	ldi	r23, 0x00	; 0
    73de:	40 e0       	ldi	r20, 0x00	; 0
    73e0:	50 e0       	ldi	r21, 0x00	; 0
    73e2:	0e 94 8a 41 	call	0x8314	; 0x8314 <_ZN5Print5printEii>
    73e6:	0e 5f       	subi	r16, 0xFE	; 254
    73e8:	1f 4f       	sbci	r17, 0xFF	; 255
    73ea:	0c 0d       	add	r16, r12
    73ec:	1d 1d       	adc	r17, r13
    73ee:	8f e7       	ldi	r24, 0x7F	; 127
    73f0:	99 e0       	ldi	r25, 0x09	; 9
    73f2:	b8 01       	movw	r22, r16
    73f4:	40 e0       	ldi	r20, 0x00	; 0
    73f6:	50 e0       	ldi	r21, 0x00	; 0
    73f8:	0e 94 8a 41 	call	0x8314	; 0x8314 <_ZN5Print5printEii>
    73fc:	8f e7       	ldi	r24, 0x7F	; 127
    73fe:	99 e0       	ldi	r25, 0x09	; 9
    7400:	68 e0       	ldi	r22, 0x08	; 8
    7402:	70 e0       	ldi	r23, 0x00	; 0
    7404:	40 e0       	ldi	r20, 0x00	; 0
    7406:	50 e0       	ldi	r21, 0x00	; 0
    7408:	0e 94 8a 41 	call	0x8314	; 0x8314 <_ZN5Print5printEii>
    740c:	8f e7       	ldi	r24, 0x7F	; 127
    740e:	99 e0       	ldi	r25, 0x09	; 9
    7410:	60 91 54 05 	lds	r22, 0x0554
    7414:	40 e0       	ldi	r20, 0x00	; 0
    7416:	50 e0       	ldi	r21, 0x00	; 0
    7418:	0e 94 42 41 	call	0x8284	; 0x8284 <_ZN5Print5printEhi>
    741c:	57 ef       	ldi	r21, 0xF7	; 247
    741e:	f5 2e       	mov	r15, r21
    7420:	80 91 54 05 	lds	r24, 0x0554
    7424:	f8 1a       	sub	r15, r24
    7426:	8f e7       	ldi	r24, 0x7F	; 127
    7428:	99 e0       	ldi	r25, 0x09	; 9
    742a:	68 81       	ld	r22, Y
    742c:	40 e0       	ldi	r20, 0x00	; 0
    742e:	50 e0       	ldi	r21, 0x00	; 0
    7430:	0e 94 9d 41 	call	0x833a	; 0x833a <_ZN5Print5printEci>
    7434:	88 81       	ld	r24, Y
    7436:	f8 1a       	sub	r15, r24
    7438:	8f e7       	ldi	r24, 0x7F	; 127
    743a:	99 e0       	ldi	r25, 0x09	; 9
    743c:	69 81       	ldd	r22, Y+1	; 0x01
    743e:	40 e0       	ldi	r20, 0x00	; 0
    7440:	50 e0       	ldi	r21, 0x00	; 0
    7442:	0e 94 9d 41 	call	0x833a	; 0x833a <_ZN5Print5printEci>
    7446:	89 81       	ldd	r24, Y+1	; 0x01
    7448:	f8 1a       	sub	r15, r24
    744a:	c1 14       	cp	r12, r1
    744c:	d1 04       	cpc	r13, r1
    744e:	b9 f0       	breq	.+46     	; 0x747e <_ZN8xbeeATst29sendLocalAtCommandWithOptionsEPcS0_i+0xf8>
    7450:	8e 2d       	mov	r24, r14
    7452:	9b 2d       	mov	r25, r11
    7454:	9c 01       	movw	r18, r24
    7456:	89 01       	movw	r16, r18
    7458:	c0 e0       	ldi	r28, 0x00	; 0
    745a:	d0 e0       	ldi	r29, 0x00	; 0
    745c:	0d c0       	rjmp	.+26     	; 0x7478 <_ZN8xbeeATst29sendLocalAtCommandWithOptionsEPcS0_i+0xf2>
    745e:	8f e7       	ldi	r24, 0x7F	; 127
    7460:	99 e0       	ldi	r25, 0x09	; 9
    7462:	f8 01       	movw	r30, r16
    7464:	60 81       	ld	r22, Z
    7466:	40 e0       	ldi	r20, 0x00	; 0
    7468:	50 e0       	ldi	r21, 0x00	; 0
    746a:	0e 94 9d 41 	call	0x833a	; 0x833a <_ZN5Print5printEci>
    746e:	d8 01       	movw	r26, r16
    7470:	8d 91       	ld	r24, X+
    7472:	8d 01       	movw	r16, r26
    7474:	f8 1a       	sub	r15, r24
    7476:	21 96       	adiw	r28, 0x01	; 1
    7478:	cc 15       	cp	r28, r12
    747a:	dd 05       	cpc	r29, r13
    747c:	84 f3       	brlt	.-32     	; 0x745e <_ZN8xbeeATst29sendLocalAtCommandWithOptionsEPcS0_i+0xd8>
    747e:	8f e7       	ldi	r24, 0x7F	; 127
    7480:	99 e0       	ldi	r25, 0x09	; 9
    7482:	6f 2d       	mov	r22, r15
    7484:	40 e0       	ldi	r20, 0x00	; 0
    7486:	50 e0       	ldi	r21, 0x00	; 0
    7488:	0e 94 42 41 	call	0x8284	; 0x8284 <_ZN5Print5printEhi>
    748c:	81 e0       	ldi	r24, 0x01	; 1
    748e:	df 91       	pop	r29
    7490:	cf 91       	pop	r28
    7492:	1f 91       	pop	r17
    7494:	0f 91       	pop	r16
    7496:	ff 90       	pop	r15
    7498:	ef 90       	pop	r14
    749a:	df 90       	pop	r13
    749c:	cf 90       	pop	r12
    749e:	bf 90       	pop	r11
    74a0:	08 95       	ret

000074a2 <_ZN8xbeeATst18sendLocalAtCommandEPc>:
    74a2:	0f 93       	push	r16
    74a4:	1f 93       	push	r17
    74a6:	cf 93       	push	r28
    74a8:	df 93       	push	r29
    74aa:	eb 01       	movw	r28, r22
    74ac:	80 91 55 05 	lds	r24, 0x0555
    74b0:	8f 5f       	subi	r24, 0xFF	; 255
    74b2:	80 93 55 05 	sts	0x0555, r24
    74b6:	88 23       	and	r24, r24
    74b8:	19 f4       	brne	.+6      	; 0x74c0 <_ZN8xbeeATst18sendLocalAtCommandEPc+0x1e>
    74ba:	81 e0       	ldi	r24, 0x01	; 1
    74bc:	80 93 55 05 	sts	0x0555, r24
    74c0:	de 01       	movw	r26, r28
    74c2:	0d 90       	ld	r0, X+
    74c4:	00 20       	and	r0, r0
    74c6:	e9 f7       	brne	.-6      	; 0x74c2 <_ZN8xbeeATst18sendLocalAtCommandEPc+0x20>
    74c8:	8d 01       	movw	r16, r26
    74ca:	01 50       	subi	r16, 0x01	; 1
    74cc:	10 40       	sbci	r17, 0x00	; 0
    74ce:	0c 1b       	sub	r16, r28
    74d0:	1d 0b       	sbc	r17, r29
    74d2:	8f e7       	ldi	r24, 0x7F	; 127
    74d4:	99 e0       	ldi	r25, 0x09	; 9
    74d6:	6e e7       	ldi	r22, 0x7E	; 126
    74d8:	70 e0       	ldi	r23, 0x00	; 0
    74da:	40 e0       	ldi	r20, 0x00	; 0
    74dc:	50 e0       	ldi	r21, 0x00	; 0
    74de:	0e 94 8a 41 	call	0x8314	; 0x8314 <_ZN5Print5printEii>
    74e2:	8f e7       	ldi	r24, 0x7F	; 127
    74e4:	99 e0       	ldi	r25, 0x09	; 9
    74e6:	60 e0       	ldi	r22, 0x00	; 0
    74e8:	70 e0       	ldi	r23, 0x00	; 0
    74ea:	40 e0       	ldi	r20, 0x00	; 0
    74ec:	50 e0       	ldi	r21, 0x00	; 0
    74ee:	0e 94 8a 41 	call	0x8314	; 0x8314 <_ZN5Print5printEii>
    74f2:	0e 5f       	subi	r16, 0xFE	; 254
    74f4:	1f 4f       	sbci	r17, 0xFF	; 255
    74f6:	8f e7       	ldi	r24, 0x7F	; 127
    74f8:	99 e0       	ldi	r25, 0x09	; 9
    74fa:	b8 01       	movw	r22, r16
    74fc:	40 e0       	ldi	r20, 0x00	; 0
    74fe:	50 e0       	ldi	r21, 0x00	; 0
    7500:	0e 94 8a 41 	call	0x8314	; 0x8314 <_ZN5Print5printEii>
    7504:	8f e7       	ldi	r24, 0x7F	; 127
    7506:	99 e0       	ldi	r25, 0x09	; 9
    7508:	68 e0       	ldi	r22, 0x08	; 8
    750a:	70 e0       	ldi	r23, 0x00	; 0
    750c:	40 e0       	ldi	r20, 0x00	; 0
    750e:	50 e0       	ldi	r21, 0x00	; 0
    7510:	0e 94 8a 41 	call	0x8314	; 0x8314 <_ZN5Print5printEii>
    7514:	8f e7       	ldi	r24, 0x7F	; 127
    7516:	99 e0       	ldi	r25, 0x09	; 9
    7518:	60 91 55 05 	lds	r22, 0x0555
    751c:	40 e0       	ldi	r20, 0x00	; 0
    751e:	50 e0       	ldi	r21, 0x00	; 0
    7520:	0e 94 42 41 	call	0x8284	; 0x8284 <_ZN5Print5printEhi>
    7524:	17 ef       	ldi	r17, 0xF7	; 247
    7526:	80 91 55 05 	lds	r24, 0x0555
    752a:	18 1b       	sub	r17, r24
    752c:	8f e7       	ldi	r24, 0x7F	; 127
    752e:	99 e0       	ldi	r25, 0x09	; 9
    7530:	68 81       	ld	r22, Y
    7532:	40 e0       	ldi	r20, 0x00	; 0
    7534:	50 e0       	ldi	r21, 0x00	; 0
    7536:	0e 94 9d 41 	call	0x833a	; 0x833a <_ZN5Print5printEci>
    753a:	88 81       	ld	r24, Y
    753c:	18 1b       	sub	r17, r24
    753e:	8f e7       	ldi	r24, 0x7F	; 127
    7540:	99 e0       	ldi	r25, 0x09	; 9
    7542:	69 81       	ldd	r22, Y+1	; 0x01
    7544:	40 e0       	ldi	r20, 0x00	; 0
    7546:	50 e0       	ldi	r21, 0x00	; 0
    7548:	0e 94 9d 41 	call	0x833a	; 0x833a <_ZN5Print5printEci>
    754c:	89 81       	ldd	r24, Y+1	; 0x01
    754e:	18 1b       	sub	r17, r24
    7550:	8f e7       	ldi	r24, 0x7F	; 127
    7552:	99 e0       	ldi	r25, 0x09	; 9
    7554:	61 2f       	mov	r22, r17
    7556:	40 e0       	ldi	r20, 0x00	; 0
    7558:	50 e0       	ldi	r21, 0x00	; 0
    755a:	0e 94 42 41 	call	0x8284	; 0x8284 <_ZN5Print5printEhi>
    755e:	81 e0       	ldi	r24, 0x01	; 1
    7560:	df 91       	pop	r29
    7562:	cf 91       	pop	r28
    7564:	1f 91       	pop	r17
    7566:	0f 91       	pop	r16
    7568:	08 95       	ret

0000756a <_ZN8xbeeATsoC2Ev>:
    756a:	fc 01       	movw	r30, r24
    756c:	8a e2       	ldi	r24, 0x2A	; 42
    756e:	81 87       	std	Z+9, r24	; 0x09
    7570:	82 87       	std	Z+10, r24	; 0x0a
    7572:	08 95       	ret

00007574 <_ZN8xbeeATsoC1Ev>:
    7574:	fc 01       	movw	r30, r24
    7576:	8a e2       	ldi	r24, 0x2A	; 42
    7578:	81 87       	std	Z+9, r24	; 0x09
    757a:	82 87       	std	Z+10, r24	; 0x0a
    757c:	08 95       	ret

0000757e <_ZN8xbeeATso21getLocalATCommandDataEi>:
    757e:	6f 92       	push	r6
    7580:	7f 92       	push	r7
    7582:	8f 92       	push	r8
    7584:	9f 92       	push	r9
    7586:	af 92       	push	r10
    7588:	bf 92       	push	r11
    758a:	cf 92       	push	r12
    758c:	df 92       	push	r13
    758e:	ef 92       	push	r14
    7590:	ff 92       	push	r15
    7592:	0f 93       	push	r16
    7594:	1f 93       	push	r17
    7596:	cf 93       	push	r28
    7598:	df 93       	push	r29
    759a:	7c 01       	movw	r14, r24
    759c:	8b 01       	movw	r16, r22
    759e:	0e 94 e2 4b 	call	0x97c4	; 0x97c4 <millis>
    75a2:	5b 01       	movw	r10, r22
    75a4:	6c 01       	movw	r12, r24
    75a6:	38 01       	movw	r6, r16
    75a8:	88 24       	eor	r8, r8
    75aa:	99 24       	eor	r9, r9
    75ac:	8f e7       	ldi	r24, 0x7F	; 127
    75ae:	99 e0       	ldi	r25, 0x09	; 9
    75b0:	0e 94 e3 3e 	call	0x7dc6	; 0x7dc6 <_ZN14HardwareSerial9availableEv>
    75b4:	18 16       	cp	r1, r24
    75b6:	19 06       	cpc	r1, r25
    75b8:	0c f0       	brlt	.+2      	; 0x75bc <_ZN8xbeeATso21getLocalATCommandDataEi+0x3e>
    75ba:	4c c1       	rjmp	.+664    	; 0x7854 <_ZN8xbeeATso21getLocalATCommandDataEi+0x2d6>
    75bc:	8f e7       	ldi	r24, 0x7F	; 127
    75be:	99 e0       	ldi	r25, 0x09	; 9
    75c0:	0e 94 0e 3f 	call	0x7e1c	; 0x7e1c <_ZN14HardwareSerial4readEv>
    75c4:	18 2f       	mov	r17, r24
    75c6:	0e 94 e2 4b 	call	0x97c4	; 0x97c4 <millis>
    75ca:	6a 19       	sub	r22, r10
    75cc:	7b 09       	sbc	r23, r11
    75ce:	8c 09       	sbc	r24, r12
    75d0:	9d 09       	sbc	r25, r13
    75d2:	66 16       	cp	r6, r22
    75d4:	77 06       	cpc	r7, r23
    75d6:	88 06       	cpc	r8, r24
    75d8:	99 06       	cpc	r9, r25
    75da:	08 f4       	brcc	.+2      	; 0x75de <_ZN8xbeeATso21getLocalATCommandDataEi+0x60>
    75dc:	3b c1       	rjmp	.+630    	; 0x7854 <_ZN8xbeeATso21getLocalATCommandDataEi+0x2d6>
    75de:	1e 37       	cpi	r17, 0x7E	; 126
    75e0:	29 f7       	brne	.-54     	; 0x75ac <_ZN8xbeeATso21getLocalATCommandDataEi+0x2e>
    75e2:	0e 94 e2 4b 	call	0x97c4	; 0x97c4 <millis>
    75e6:	5b 01       	movw	r10, r22
    75e8:	6c 01       	movw	r12, r24
    75ea:	0c c0       	rjmp	.+24     	; 0x7604 <_ZN8xbeeATso21getLocalATCommandDataEi+0x86>
    75ec:	0e 94 e2 4b 	call	0x97c4	; 0x97c4 <millis>
    75f0:	6a 19       	sub	r22, r10
    75f2:	7b 09       	sbc	r23, r11
    75f4:	8c 09       	sbc	r24, r12
    75f6:	9d 09       	sbc	r25, r13
    75f8:	66 16       	cp	r6, r22
    75fa:	77 06       	cpc	r7, r23
    75fc:	88 06       	cpc	r8, r24
    75fe:	99 06       	cpc	r9, r25
    7600:	08 f4       	brcc	.+2      	; 0x7604 <_ZN8xbeeATso21getLocalATCommandDataEi+0x86>
    7602:	28 c1       	rjmp	.+592    	; 0x7854 <_ZN8xbeeATso21getLocalATCommandDataEi+0x2d6>
    7604:	8f e7       	ldi	r24, 0x7F	; 127
    7606:	99 e0       	ldi	r25, 0x09	; 9
    7608:	0e 94 e3 3e 	call	0x7dc6	; 0x7dc6 <_ZN14HardwareSerial9availableEv>
    760c:	02 97       	sbiw	r24, 0x02	; 2
    760e:	74 f3       	brlt	.-36     	; 0x75ec <_ZN8xbeeATso21getLocalATCommandDataEi+0x6e>
    7610:	8f e7       	ldi	r24, 0x7F	; 127
    7612:	99 e0       	ldi	r25, 0x09	; 9
    7614:	0e 94 e3 3e 	call	0x7dc6	; 0x7dc6 <_ZN14HardwareSerial9availableEv>
    7618:	02 97       	sbiw	r24, 0x02	; 2
    761a:	84 f0       	brlt	.+32     	; 0x763c <_ZN8xbeeATso21getLocalATCommandDataEi+0xbe>
    761c:	8f e7       	ldi	r24, 0x7F	; 127
    761e:	99 e0       	ldi	r25, 0x09	; 9
    7620:	0e 94 0e 3f 	call	0x7e1c	; 0x7e1c <_ZN14HardwareSerial4readEv>
    7624:	18 2f       	mov	r17, r24
    7626:	8f e7       	ldi	r24, 0x7F	; 127
    7628:	99 e0       	ldi	r25, 0x09	; 9
    762a:	0e 94 0e 3f 	call	0x7e1c	; 0x7e1c <_ZN14HardwareSerial4readEv>
    762e:	31 2f       	mov	r19, r17
    7630:	20 e0       	ldi	r18, 0x00	; 0
    7632:	28 0f       	add	r18, r24
    7634:	39 1f       	adc	r19, r25
    7636:	f7 01       	movw	r30, r14
    7638:	31 83       	std	Z+1, r19	; 0x01
    763a:	20 83       	st	Z, r18
    763c:	f7 01       	movw	r30, r14
    763e:	80 81       	ld	r24, Z
    7640:	91 81       	ldd	r25, Z+1	; 0x01
    7642:	18 16       	cp	r1, r24
    7644:	19 06       	cpc	r1, r25
    7646:	0c f0       	brlt	.+2      	; 0x764a <_ZN8xbeeATso21getLocalATCommandDataEi+0xcc>
    7648:	05 c1       	rjmp	.+522    	; 0x7854 <_ZN8xbeeATso21getLocalATCommandDataEi+0x2d6>
    764a:	8a e5       	ldi	r24, 0x5A	; 90
    764c:	82 83       	std	Z+2, r24	; 0x02
    764e:	0e 94 e2 4b 	call	0x97c4	; 0x97c4 <millis>
    7652:	5b 01       	movw	r10, r22
    7654:	6c 01       	movw	r12, r24
    7656:	0c c0       	rjmp	.+24     	; 0x7670 <_ZN8xbeeATso21getLocalATCommandDataEi+0xf2>
    7658:	0e 94 e2 4b 	call	0x97c4	; 0x97c4 <millis>
    765c:	6a 19       	sub	r22, r10
    765e:	7b 09       	sbc	r23, r11
    7660:	8c 09       	sbc	r24, r12
    7662:	9d 09       	sbc	r25, r13
    7664:	66 16       	cp	r6, r22
    7666:	77 06       	cpc	r7, r23
    7668:	88 06       	cpc	r8, r24
    766a:	99 06       	cpc	r9, r25
    766c:	08 f4       	brcc	.+2      	; 0x7670 <_ZN8xbeeATso21getLocalATCommandDataEi+0xf2>
    766e:	f2 c0       	rjmp	.+484    	; 0x7854 <_ZN8xbeeATso21getLocalATCommandDataEi+0x2d6>
    7670:	8f e7       	ldi	r24, 0x7F	; 127
    7672:	99 e0       	ldi	r25, 0x09	; 9
    7674:	0e 94 e3 3e 	call	0x7dc6	; 0x7dc6 <_ZN14HardwareSerial9availableEv>
    7678:	18 16       	cp	r1, r24
    767a:	19 06       	cpc	r1, r25
    767c:	6c f7       	brge	.-38     	; 0x7658 <_ZN8xbeeATso21getLocalATCommandDataEi+0xda>
    767e:	8f e7       	ldi	r24, 0x7F	; 127
    7680:	99 e0       	ldi	r25, 0x09	; 9
    7682:	0e 94 e3 3e 	call	0x7dc6	; 0x7dc6 <_ZN14HardwareSerial9availableEv>
    7686:	18 16       	cp	r1, r24
    7688:	19 06       	cpc	r1, r25
    768a:	0c f0       	brlt	.+2      	; 0x768e <_ZN8xbeeATso21getLocalATCommandDataEi+0x110>
    768c:	e3 c0       	rjmp	.+454    	; 0x7854 <_ZN8xbeeATso21getLocalATCommandDataEi+0x2d6>
    768e:	8f e7       	ldi	r24, 0x7F	; 127
    7690:	99 e0       	ldi	r25, 0x09	; 9
    7692:	0e 94 0e 3f 	call	0x7e1c	; 0x7e1c <_ZN14HardwareSerial4readEv>
    7696:	f7 01       	movw	r30, r14
    7698:	82 83       	std	Z+2, r24	; 0x02
    769a:	0e 94 e2 4b 	call	0x97c4	; 0x97c4 <millis>
    769e:	5b 01       	movw	r10, r22
    76a0:	6c 01       	movw	r12, r24
    76a2:	0c c0       	rjmp	.+24     	; 0x76bc <_ZN8xbeeATso21getLocalATCommandDataEi+0x13e>
    76a4:	0e 94 e2 4b 	call	0x97c4	; 0x97c4 <millis>
    76a8:	6a 19       	sub	r22, r10
    76aa:	7b 09       	sbc	r23, r11
    76ac:	8c 09       	sbc	r24, r12
    76ae:	9d 09       	sbc	r25, r13
    76b0:	66 16       	cp	r6, r22
    76b2:	77 06       	cpc	r7, r23
    76b4:	88 06       	cpc	r8, r24
    76b6:	99 06       	cpc	r9, r25
    76b8:	08 f4       	brcc	.+2      	; 0x76bc <_ZN8xbeeATso21getLocalATCommandDataEi+0x13e>
    76ba:	cc c0       	rjmp	.+408    	; 0x7854 <_ZN8xbeeATso21getLocalATCommandDataEi+0x2d6>
    76bc:	8f e7       	ldi	r24, 0x7F	; 127
    76be:	99 e0       	ldi	r25, 0x09	; 9
    76c0:	0e 94 e3 3e 	call	0x7dc6	; 0x7dc6 <_ZN14HardwareSerial9availableEv>
    76c4:	18 16       	cp	r1, r24
    76c6:	19 06       	cpc	r1, r25
    76c8:	6c f7       	brge	.-38     	; 0x76a4 <_ZN8xbeeATso21getLocalATCommandDataEi+0x126>
    76ca:	8f e7       	ldi	r24, 0x7F	; 127
    76cc:	99 e0       	ldi	r25, 0x09	; 9
    76ce:	0e 94 e3 3e 	call	0x7dc6	; 0x7dc6 <_ZN14HardwareSerial9availableEv>
    76d2:	18 16       	cp	r1, r24
    76d4:	19 06       	cpc	r1, r25
    76d6:	0c f0       	brlt	.+2      	; 0x76da <_ZN8xbeeATso21getLocalATCommandDataEi+0x15c>
    76d8:	bd c0       	rjmp	.+378    	; 0x7854 <_ZN8xbeeATso21getLocalATCommandDataEi+0x2d6>
    76da:	8f e7       	ldi	r24, 0x7F	; 127
    76dc:	99 e0       	ldi	r25, 0x09	; 9
    76de:	0e 94 0e 3f 	call	0x7e1c	; 0x7e1c <_ZN14HardwareSerial4readEv>
    76e2:	f7 01       	movw	r30, r14
    76e4:	80 87       	std	Z+8, r24	; 0x08
    76e6:	0e 94 e2 4b 	call	0x97c4	; 0x97c4 <millis>
    76ea:	5b 01       	movw	r10, r22
    76ec:	6c 01       	movw	r12, r24
    76ee:	0c c0       	rjmp	.+24     	; 0x7708 <_ZN8xbeeATso21getLocalATCommandDataEi+0x18a>
    76f0:	0e 94 e2 4b 	call	0x97c4	; 0x97c4 <millis>
    76f4:	6a 19       	sub	r22, r10
    76f6:	7b 09       	sbc	r23, r11
    76f8:	8c 09       	sbc	r24, r12
    76fa:	9d 09       	sbc	r25, r13
    76fc:	66 16       	cp	r6, r22
    76fe:	77 06       	cpc	r7, r23
    7700:	88 06       	cpc	r8, r24
    7702:	99 06       	cpc	r9, r25
    7704:	08 f4       	brcc	.+2      	; 0x7708 <_ZN8xbeeATso21getLocalATCommandDataEi+0x18a>
    7706:	a6 c0       	rjmp	.+332    	; 0x7854 <_ZN8xbeeATso21getLocalATCommandDataEi+0x2d6>
    7708:	8f e7       	ldi	r24, 0x7F	; 127
    770a:	99 e0       	ldi	r25, 0x09	; 9
    770c:	0e 94 e3 3e 	call	0x7dc6	; 0x7dc6 <_ZN14HardwareSerial9availableEv>
    7710:	03 97       	sbiw	r24, 0x03	; 3
    7712:	74 f3       	brlt	.-36     	; 0x76f0 <_ZN8xbeeATso21getLocalATCommandDataEi+0x172>
    7714:	8f e7       	ldi	r24, 0x7F	; 127
    7716:	99 e0       	ldi	r25, 0x09	; 9
    7718:	0e 94 e3 3e 	call	0x7dc6	; 0x7dc6 <_ZN14HardwareSerial9availableEv>
    771c:	02 97       	sbiw	r24, 0x02	; 2
    771e:	0c f4       	brge	.+2      	; 0x7722 <_ZN8xbeeATso21getLocalATCommandDataEi+0x1a4>
    7720:	99 c0       	rjmp	.+306    	; 0x7854 <_ZN8xbeeATso21getLocalATCommandDataEi+0x2d6>
    7722:	8f e7       	ldi	r24, 0x7F	; 127
    7724:	99 e0       	ldi	r25, 0x09	; 9
    7726:	0e 94 0e 3f 	call	0x7e1c	; 0x7e1c <_ZN14HardwareSerial4readEv>
    772a:	f7 01       	movw	r30, r14
    772c:	81 87       	std	Z+9, r24	; 0x09
    772e:	8f e7       	ldi	r24, 0x7F	; 127
    7730:	99 e0       	ldi	r25, 0x09	; 9
    7732:	0e 94 0e 3f 	call	0x7e1c	; 0x7e1c <_ZN14HardwareSerial4readEv>
    7736:	f7 01       	movw	r30, r14
    7738:	82 87       	std	Z+10, r24	; 0x0a
    773a:	0e 94 e2 4b 	call	0x97c4	; 0x97c4 <millis>
    773e:	5b 01       	movw	r10, r22
    7740:	6c 01       	movw	r12, r24
    7742:	0c c0       	rjmp	.+24     	; 0x775c <_ZN8xbeeATso21getLocalATCommandDataEi+0x1de>
    7744:	0e 94 e2 4b 	call	0x97c4	; 0x97c4 <millis>
    7748:	6a 19       	sub	r22, r10
    774a:	7b 09       	sbc	r23, r11
    774c:	8c 09       	sbc	r24, r12
    774e:	9d 09       	sbc	r25, r13
    7750:	66 16       	cp	r6, r22
    7752:	77 06       	cpc	r7, r23
    7754:	88 06       	cpc	r8, r24
    7756:	99 06       	cpc	r9, r25
    7758:	08 f4       	brcc	.+2      	; 0x775c <_ZN8xbeeATso21getLocalATCommandDataEi+0x1de>
    775a:	7c c0       	rjmp	.+248    	; 0x7854 <_ZN8xbeeATso21getLocalATCommandDataEi+0x2d6>
    775c:	8f e7       	ldi	r24, 0x7F	; 127
    775e:	99 e0       	ldi	r25, 0x09	; 9
    7760:	0e 94 e3 3e 	call	0x7dc6	; 0x7dc6 <_ZN14HardwareSerial9availableEv>
    7764:	18 16       	cp	r1, r24
    7766:	19 06       	cpc	r1, r25
    7768:	6c f7       	brge	.-38     	; 0x7744 <_ZN8xbeeATso21getLocalATCommandDataEi+0x1c6>
    776a:	8f e7       	ldi	r24, 0x7F	; 127
    776c:	99 e0       	ldi	r25, 0x09	; 9
    776e:	0e 94 0e 3f 	call	0x7e1c	; 0x7e1c <_ZN14HardwareSerial4readEv>
    7772:	f7 01       	movw	r30, r14
    7774:	83 87       	std	Z+11, r24	; 0x0b
    7776:	0e 94 e2 4b 	call	0x97c4	; 0x97c4 <millis>
    777a:	5b 01       	movw	r10, r22
    777c:	6c 01       	movw	r12, r24
    777e:	f7 01       	movw	r30, r14
    7780:	80 81       	ld	r24, Z
    7782:	91 81       	ldd	r25, Z+1	; 0x01
    7784:	05 97       	sbiw	r24, 0x05	; 5
    7786:	97 83       	std	Z+7, r25	; 0x07
    7788:	86 83       	std	Z+6, r24	; 0x06
    778a:	0c c0       	rjmp	.+24     	; 0x77a4 <_ZN8xbeeATso21getLocalATCommandDataEi+0x226>
    778c:	0e 94 e2 4b 	call	0x97c4	; 0x97c4 <millis>
    7790:	6a 19       	sub	r22, r10
    7792:	7b 09       	sbc	r23, r11
    7794:	8c 09       	sbc	r24, r12
    7796:	9d 09       	sbc	r25, r13
    7798:	66 16       	cp	r6, r22
    779a:	77 06       	cpc	r7, r23
    779c:	88 06       	cpc	r8, r24
    779e:	99 06       	cpc	r9, r25
    77a0:	08 f4       	brcc	.+2      	; 0x77a4 <_ZN8xbeeATso21getLocalATCommandDataEi+0x226>
    77a2:	58 c0       	rjmp	.+176    	; 0x7854 <_ZN8xbeeATso21getLocalATCommandDataEi+0x2d6>
    77a4:	8f e7       	ldi	r24, 0x7F	; 127
    77a6:	99 e0       	ldi	r25, 0x09	; 9
    77a8:	0e 94 e3 3e 	call	0x7dc6	; 0x7dc6 <_ZN14HardwareSerial9availableEv>
    77ac:	f7 01       	movw	r30, r14
    77ae:	20 81       	ld	r18, Z
    77b0:	31 81       	ldd	r19, Z+1	; 0x01
    77b2:	25 50       	subi	r18, 0x05	; 5
    77b4:	30 40       	sbci	r19, 0x00	; 0
    77b6:	82 17       	cp	r24, r18
    77b8:	93 07       	cpc	r25, r19
    77ba:	44 f3       	brlt	.-48     	; 0x778c <_ZN8xbeeATso21getLocalATCommandDataEi+0x20e>
    77bc:	80 91 6e 07 	lds	r24, 0x076E
    77c0:	88 23       	and	r24, r24
    77c2:	29 f0       	breq	.+10     	; 0x77ce <_ZN8xbeeATso21getLocalATCommandDataEi+0x250>
    77c4:	83 81       	ldd	r24, Z+3	; 0x03
    77c6:	94 81       	ldd	r25, Z+4	; 0x04
    77c8:	0e 94 d9 08 	call	0x11b2	; 0x11b2 <free>
    77cc:	03 c0       	rjmp	.+6      	; 0x77d4 <_ZN8xbeeATso21getLocalATCommandDataEi+0x256>
    77ce:	81 e0       	ldi	r24, 0x01	; 1
    77d0:	80 93 6e 07 	sts	0x076E, r24
    77d4:	f7 01       	movw	r30, r14
    77d6:	80 81       	ld	r24, Z
    77d8:	91 81       	ldd	r25, Z+1	; 0x01
    77da:	05 97       	sbiw	r24, 0x05	; 5
    77dc:	0e 94 2f 08 	call	0x105e	; 0x105e <malloc>
    77e0:	f7 01       	movw	r30, r14
    77e2:	94 83       	std	Z+4, r25	; 0x04
    77e4:	83 83       	std	Z+3, r24	; 0x03
    77e6:	00 97       	sbiw	r24, 0x00	; 0
    77e8:	a9 f1       	breq	.+106    	; 0x7854 <_ZN8xbeeATso21getLocalATCommandDataEi+0x2d6>
    77ea:	c0 e0       	ldi	r28, 0x00	; 0
    77ec:	d0 e0       	ldi	r29, 0x00	; 0
    77ee:	0c c0       	rjmp	.+24     	; 0x7808 <_ZN8xbeeATso21getLocalATCommandDataEi+0x28a>
    77f0:	f7 01       	movw	r30, r14
    77f2:	03 81       	ldd	r16, Z+3	; 0x03
    77f4:	14 81       	ldd	r17, Z+4	; 0x04
    77f6:	0c 0f       	add	r16, r28
    77f8:	1d 1f       	adc	r17, r29
    77fa:	8f e7       	ldi	r24, 0x7F	; 127
    77fc:	99 e0       	ldi	r25, 0x09	; 9
    77fe:	0e 94 0e 3f 	call	0x7e1c	; 0x7e1c <_ZN14HardwareSerial4readEv>
    7802:	f8 01       	movw	r30, r16
    7804:	80 83       	st	Z, r24
    7806:	21 96       	adiw	r28, 0x01	; 1
    7808:	f7 01       	movw	r30, r14
    780a:	80 81       	ld	r24, Z
    780c:	91 81       	ldd	r25, Z+1	; 0x01
    780e:	05 97       	sbiw	r24, 0x05	; 5
    7810:	c8 17       	cp	r28, r24
    7812:	d9 07       	cpc	r29, r25
    7814:	6c f3       	brlt	.-38     	; 0x77f0 <_ZN8xbeeATso21getLocalATCommandDataEi+0x272>
    7816:	0e 94 e2 4b 	call	0x97c4	; 0x97c4 <millis>
    781a:	5b 01       	movw	r10, r22
    781c:	6c 01       	movw	r12, r24
    781e:	0b c0       	rjmp	.+22     	; 0x7836 <_ZN8xbeeATso21getLocalATCommandDataEi+0x2b8>
    7820:	0e 94 e2 4b 	call	0x97c4	; 0x97c4 <millis>
    7824:	6a 19       	sub	r22, r10
    7826:	7b 09       	sbc	r23, r11
    7828:	8c 09       	sbc	r24, r12
    782a:	9d 09       	sbc	r25, r13
    782c:	66 16       	cp	r6, r22
    782e:	77 06       	cpc	r7, r23
    7830:	88 06       	cpc	r8, r24
    7832:	99 06       	cpc	r9, r25
    7834:	78 f0       	brcs	.+30     	; 0x7854 <_ZN8xbeeATso21getLocalATCommandDataEi+0x2d6>
    7836:	8f e7       	ldi	r24, 0x7F	; 127
    7838:	99 e0       	ldi	r25, 0x09	; 9
    783a:	0e 94 e3 3e 	call	0x7dc6	; 0x7dc6 <_ZN14HardwareSerial9availableEv>
    783e:	18 16       	cp	r1, r24
    7840:	19 06       	cpc	r1, r25
    7842:	74 f7       	brge	.-36     	; 0x7820 <_ZN8xbeeATso21getLocalATCommandDataEi+0x2a2>
    7844:	8f e7       	ldi	r24, 0x7F	; 127
    7846:	99 e0       	ldi	r25, 0x09	; 9
    7848:	0e 94 0e 3f 	call	0x7e1c	; 0x7e1c <_ZN14HardwareSerial4readEv>
    784c:	f7 01       	movw	r30, r14
    784e:	85 83       	std	Z+5, r24	; 0x05
    7850:	81 e0       	ldi	r24, 0x01	; 1
    7852:	01 c0       	rjmp	.+2      	; 0x7856 <_ZN8xbeeATso21getLocalATCommandDataEi+0x2d8>
    7854:	80 e0       	ldi	r24, 0x00	; 0
    7856:	df 91       	pop	r29
    7858:	cf 91       	pop	r28
    785a:	1f 91       	pop	r17
    785c:	0f 91       	pop	r16
    785e:	ff 90       	pop	r15
    7860:	ef 90       	pop	r14
    7862:	df 90       	pop	r13
    7864:	cf 90       	pop	r12
    7866:	bf 90       	pop	r11
    7868:	af 90       	pop	r10
    786a:	9f 90       	pop	r9
    786c:	8f 90       	pop	r8
    786e:	7f 90       	pop	r7
    7870:	6f 90       	pop	r6
    7872:	08 95       	ret

00007874 <_ZN8xbeeATso18sendLocalAtCommandEPc>:
    7874:	0f 93       	push	r16
    7876:	1f 93       	push	r17
    7878:	cf 93       	push	r28
    787a:	df 93       	push	r29
    787c:	eb 01       	movw	r28, r22
    787e:	80 91 56 05 	lds	r24, 0x0556
    7882:	8f 5f       	subi	r24, 0xFF	; 255
    7884:	80 93 56 05 	sts	0x0556, r24
    7888:	88 23       	and	r24, r24
    788a:	19 f4       	brne	.+6      	; 0x7892 <_ZN8xbeeATso18sendLocalAtCommandEPc+0x1e>
    788c:	81 e0       	ldi	r24, 0x01	; 1
    788e:	80 93 56 05 	sts	0x0556, r24
    7892:	de 01       	movw	r26, r28
    7894:	0d 90       	ld	r0, X+
    7896:	00 20       	and	r0, r0
    7898:	e9 f7       	brne	.-6      	; 0x7894 <_ZN8xbeeATso18sendLocalAtCommandEPc+0x20>
    789a:	8d 01       	movw	r16, r26
    789c:	01 50       	subi	r16, 0x01	; 1
    789e:	10 40       	sbci	r17, 0x00	; 0
    78a0:	0c 1b       	sub	r16, r28
    78a2:	1d 0b       	sbc	r17, r29
    78a4:	8f e7       	ldi	r24, 0x7F	; 127
    78a6:	99 e0       	ldi	r25, 0x09	; 9
    78a8:	6e e7       	ldi	r22, 0x7E	; 126
    78aa:	70 e0       	ldi	r23, 0x00	; 0
    78ac:	40 e0       	ldi	r20, 0x00	; 0
    78ae:	50 e0       	ldi	r21, 0x00	; 0
    78b0:	0e 94 8a 41 	call	0x8314	; 0x8314 <_ZN5Print5printEii>
    78b4:	8f e7       	ldi	r24, 0x7F	; 127
    78b6:	99 e0       	ldi	r25, 0x09	; 9
    78b8:	60 e0       	ldi	r22, 0x00	; 0
    78ba:	70 e0       	ldi	r23, 0x00	; 0
    78bc:	40 e0       	ldi	r20, 0x00	; 0
    78be:	50 e0       	ldi	r21, 0x00	; 0
    78c0:	0e 94 8a 41 	call	0x8314	; 0x8314 <_ZN5Print5printEii>
    78c4:	0e 5f       	subi	r16, 0xFE	; 254
    78c6:	1f 4f       	sbci	r17, 0xFF	; 255
    78c8:	8f e7       	ldi	r24, 0x7F	; 127
    78ca:	99 e0       	ldi	r25, 0x09	; 9
    78cc:	b8 01       	movw	r22, r16
    78ce:	40 e0       	ldi	r20, 0x00	; 0
    78d0:	50 e0       	ldi	r21, 0x00	; 0
    78d2:	0e 94 8a 41 	call	0x8314	; 0x8314 <_ZN5Print5printEii>
    78d6:	8f e7       	ldi	r24, 0x7F	; 127
    78d8:	99 e0       	ldi	r25, 0x09	; 9
    78da:	68 e0       	ldi	r22, 0x08	; 8
    78dc:	70 e0       	ldi	r23, 0x00	; 0
    78de:	40 e0       	ldi	r20, 0x00	; 0
    78e0:	50 e0       	ldi	r21, 0x00	; 0
    78e2:	0e 94 8a 41 	call	0x8314	; 0x8314 <_ZN5Print5printEii>
    78e6:	8f e7       	ldi	r24, 0x7F	; 127
    78e8:	99 e0       	ldi	r25, 0x09	; 9
    78ea:	60 91 56 05 	lds	r22, 0x0556
    78ee:	40 e0       	ldi	r20, 0x00	; 0
    78f0:	50 e0       	ldi	r21, 0x00	; 0
    78f2:	0e 94 42 41 	call	0x8284	; 0x8284 <_ZN5Print5printEhi>
    78f6:	17 ef       	ldi	r17, 0xF7	; 247
    78f8:	80 91 56 05 	lds	r24, 0x0556
    78fc:	18 1b       	sub	r17, r24
    78fe:	8f e7       	ldi	r24, 0x7F	; 127
    7900:	99 e0       	ldi	r25, 0x09	; 9
    7902:	68 81       	ld	r22, Y
    7904:	40 e0       	ldi	r20, 0x00	; 0
    7906:	50 e0       	ldi	r21, 0x00	; 0
    7908:	0e 94 9d 41 	call	0x833a	; 0x833a <_ZN5Print5printEci>
    790c:	88 81       	ld	r24, Y
    790e:	18 1b       	sub	r17, r24
    7910:	8f e7       	ldi	r24, 0x7F	; 127
    7912:	99 e0       	ldi	r25, 0x09	; 9
    7914:	69 81       	ldd	r22, Y+1	; 0x01
    7916:	40 e0       	ldi	r20, 0x00	; 0
    7918:	50 e0       	ldi	r21, 0x00	; 0
    791a:	0e 94 9d 41 	call	0x833a	; 0x833a <_ZN5Print5printEci>
    791e:	89 81       	ldd	r24, Y+1	; 0x01
    7920:	18 1b       	sub	r17, r24
    7922:	8f e7       	ldi	r24, 0x7F	; 127
    7924:	99 e0       	ldi	r25, 0x09	; 9
    7926:	61 2f       	mov	r22, r17
    7928:	40 e0       	ldi	r20, 0x00	; 0
    792a:	50 e0       	ldi	r21, 0x00	; 0
    792c:	0e 94 42 41 	call	0x8284	; 0x8284 <_ZN5Print5printEhi>
    7930:	81 e0       	ldi	r24, 0x01	; 1
    7932:	df 91       	pop	r29
    7934:	cf 91       	pop	r28
    7936:	1f 91       	pop	r17
    7938:	0f 91       	pop	r16
    793a:	08 95       	ret

0000793c <_ZN8xbeeATso29sendLocalAtCommandWithOptionsEPcS0_i>:
    793c:	bf 92       	push	r11
    793e:	cf 92       	push	r12
    7940:	df 92       	push	r13
    7942:	ef 92       	push	r14
    7944:	ff 92       	push	r15
    7946:	0f 93       	push	r16
    7948:	1f 93       	push	r17
    794a:	cf 93       	push	r28
    794c:	df 93       	push	r29
    794e:	eb 01       	movw	r28, r22
    7950:	e4 2e       	mov	r14, r20
    7952:	b5 2e       	mov	r11, r21
    7954:	69 01       	movw	r12, r18
    7956:	80 91 57 05 	lds	r24, 0x0557
    795a:	8f 5f       	subi	r24, 0xFF	; 255
    795c:	80 93 57 05 	sts	0x0557, r24
    7960:	88 23       	and	r24, r24
    7962:	19 f4       	brne	.+6      	; 0x796a <_ZN8xbeeATso29sendLocalAtCommandWithOptionsEPcS0_i+0x2e>
    7964:	81 e0       	ldi	r24, 0x01	; 1
    7966:	80 93 57 05 	sts	0x0557, r24
    796a:	de 01       	movw	r26, r28
    796c:	0d 90       	ld	r0, X+
    796e:	00 20       	and	r0, r0
    7970:	e9 f7       	brne	.-6      	; 0x796c <_ZN8xbeeATso29sendLocalAtCommandWithOptionsEPcS0_i+0x30>
    7972:	8d 01       	movw	r16, r26
    7974:	01 50       	subi	r16, 0x01	; 1
    7976:	10 40       	sbci	r17, 0x00	; 0
    7978:	0c 1b       	sub	r16, r28
    797a:	1d 0b       	sbc	r17, r29
    797c:	8f e7       	ldi	r24, 0x7F	; 127
    797e:	99 e0       	ldi	r25, 0x09	; 9
    7980:	6e e7       	ldi	r22, 0x7E	; 126
    7982:	70 e0       	ldi	r23, 0x00	; 0
    7984:	40 e0       	ldi	r20, 0x00	; 0
    7986:	50 e0       	ldi	r21, 0x00	; 0
    7988:	0e 94 8a 41 	call	0x8314	; 0x8314 <_ZN5Print5printEii>
    798c:	8f e7       	ldi	r24, 0x7F	; 127
    798e:	99 e0       	ldi	r25, 0x09	; 9
    7990:	60 e0       	ldi	r22, 0x00	; 0
    7992:	70 e0       	ldi	r23, 0x00	; 0
    7994:	40 e0       	ldi	r20, 0x00	; 0
    7996:	50 e0       	ldi	r21, 0x00	; 0
    7998:	0e 94 8a 41 	call	0x8314	; 0x8314 <_ZN5Print5printEii>
    799c:	0e 5f       	subi	r16, 0xFE	; 254
    799e:	1f 4f       	sbci	r17, 0xFF	; 255
    79a0:	0c 0d       	add	r16, r12
    79a2:	1d 1d       	adc	r17, r13
    79a4:	8f e7       	ldi	r24, 0x7F	; 127
    79a6:	99 e0       	ldi	r25, 0x09	; 9
    79a8:	b8 01       	movw	r22, r16
    79aa:	40 e0       	ldi	r20, 0x00	; 0
    79ac:	50 e0       	ldi	r21, 0x00	; 0
    79ae:	0e 94 8a 41 	call	0x8314	; 0x8314 <_ZN5Print5printEii>
    79b2:	8f e7       	ldi	r24, 0x7F	; 127
    79b4:	99 e0       	ldi	r25, 0x09	; 9
    79b6:	68 e0       	ldi	r22, 0x08	; 8
    79b8:	70 e0       	ldi	r23, 0x00	; 0
    79ba:	40 e0       	ldi	r20, 0x00	; 0
    79bc:	50 e0       	ldi	r21, 0x00	; 0
    79be:	0e 94 8a 41 	call	0x8314	; 0x8314 <_ZN5Print5printEii>
    79c2:	8f e7       	ldi	r24, 0x7F	; 127
    79c4:	99 e0       	ldi	r25, 0x09	; 9
    79c6:	60 91 57 05 	lds	r22, 0x0557
    79ca:	40 e0       	ldi	r20, 0x00	; 0
    79cc:	50 e0       	ldi	r21, 0x00	; 0
    79ce:	0e 94 42 41 	call	0x8284	; 0x8284 <_ZN5Print5printEhi>
    79d2:	87 ef       	ldi	r24, 0xF7	; 247
    79d4:	f8 2e       	mov	r15, r24
    79d6:	80 91 57 05 	lds	r24, 0x0557
    79da:	f8 1a       	sub	r15, r24
    79dc:	8f e7       	ldi	r24, 0x7F	; 127
    79de:	99 e0       	ldi	r25, 0x09	; 9
    79e0:	68 81       	ld	r22, Y
    79e2:	40 e0       	ldi	r20, 0x00	; 0
    79e4:	50 e0       	ldi	r21, 0x00	; 0
    79e6:	0e 94 9d 41 	call	0x833a	; 0x833a <_ZN5Print5printEci>
    79ea:	88 81       	ld	r24, Y
    79ec:	f8 1a       	sub	r15, r24
    79ee:	8f e7       	ldi	r24, 0x7F	; 127
    79f0:	99 e0       	ldi	r25, 0x09	; 9
    79f2:	69 81       	ldd	r22, Y+1	; 0x01
    79f4:	40 e0       	ldi	r20, 0x00	; 0
    79f6:	50 e0       	ldi	r21, 0x00	; 0
    79f8:	0e 94 9d 41 	call	0x833a	; 0x833a <_ZN5Print5printEci>
    79fc:	89 81       	ldd	r24, Y+1	; 0x01
    79fe:	f8 1a       	sub	r15, r24
    7a00:	c1 14       	cp	r12, r1
    7a02:	d1 04       	cpc	r13, r1
    7a04:	b9 f0       	breq	.+46     	; 0x7a34 <_ZN8xbeeATso29sendLocalAtCommandWithOptionsEPcS0_i+0xf8>
    7a06:	8e 2d       	mov	r24, r14
    7a08:	9b 2d       	mov	r25, r11
    7a0a:	9c 01       	movw	r18, r24
    7a0c:	89 01       	movw	r16, r18
    7a0e:	c0 e0       	ldi	r28, 0x00	; 0
    7a10:	d0 e0       	ldi	r29, 0x00	; 0
    7a12:	0d c0       	rjmp	.+26     	; 0x7a2e <_ZN8xbeeATso29sendLocalAtCommandWithOptionsEPcS0_i+0xf2>
    7a14:	8f e7       	ldi	r24, 0x7F	; 127
    7a16:	99 e0       	ldi	r25, 0x09	; 9
    7a18:	f8 01       	movw	r30, r16
    7a1a:	60 81       	ld	r22, Z
    7a1c:	40 e0       	ldi	r20, 0x00	; 0
    7a1e:	50 e0       	ldi	r21, 0x00	; 0
    7a20:	0e 94 9d 41 	call	0x833a	; 0x833a <_ZN5Print5printEci>
    7a24:	d8 01       	movw	r26, r16
    7a26:	8d 91       	ld	r24, X+
    7a28:	8d 01       	movw	r16, r26
    7a2a:	f8 1a       	sub	r15, r24
    7a2c:	21 96       	adiw	r28, 0x01	; 1
    7a2e:	cc 15       	cp	r28, r12
    7a30:	dd 05       	cpc	r29, r13
    7a32:	84 f3       	brlt	.-32     	; 0x7a14 <_ZN8xbeeATso29sendLocalAtCommandWithOptionsEPcS0_i+0xd8>
    7a34:	8f e7       	ldi	r24, 0x7F	; 127
    7a36:	99 e0       	ldi	r25, 0x09	; 9
    7a38:	6f 2d       	mov	r22, r15
    7a3a:	40 e0       	ldi	r20, 0x00	; 0
    7a3c:	50 e0       	ldi	r21, 0x00	; 0
    7a3e:	0e 94 42 41 	call	0x8284	; 0x8284 <_ZN5Print5printEhi>
    7a42:	81 e0       	ldi	r24, 0x01	; 1
    7a44:	df 91       	pop	r29
    7a46:	cf 91       	pop	r28
    7a48:	1f 91       	pop	r17
    7a4a:	0f 91       	pop	r16
    7a4c:	ff 90       	pop	r15
    7a4e:	ef 90       	pop	r14
    7a50:	df 90       	pop	r13
    7a52:	cf 90       	pop	r12
    7a54:	bf 90       	pop	r11
    7a56:	08 95       	ret

00007a58 <__vector_25>:
    7a58:	1f 92       	push	r1
    7a5a:	0f 92       	push	r0
    7a5c:	0f b6       	in	r0, 0x3f	; 63
    7a5e:	0f 92       	push	r0
    7a60:	0b b6       	in	r0, 0x3b	; 59
    7a62:	0f 92       	push	r0
    7a64:	11 24       	eor	r1, r1
    7a66:	2f 93       	push	r18
    7a68:	3f 93       	push	r19
    7a6a:	4f 93       	push	r20
    7a6c:	8f 93       	push	r24
    7a6e:	9f 93       	push	r25
    7a70:	ef 93       	push	r30
    7a72:	ff 93       	push	r31
    7a74:	40 91 c6 00 	lds	r20, 0x00C6
    7a78:	e0 91 ef 07 	lds	r30, 0x07EF
    7a7c:	f0 91 f0 07 	lds	r31, 0x07F0
    7a80:	31 96       	adiw	r30, 0x01	; 1
    7a82:	9f 01       	movw	r18, r30
    7a84:	2f 77       	andi	r18, 0x7F	; 127
    7a86:	30 70       	andi	r19, 0x00	; 0
    7a88:	31 97       	sbiw	r30, 0x01	; 1
    7a8a:	80 91 f1 07 	lds	r24, 0x07F1
    7a8e:	90 91 f2 07 	lds	r25, 0x07F2
    7a92:	28 17       	cp	r18, r24
    7a94:	39 07       	cpc	r19, r25
    7a96:	39 f0       	breq	.+14     	; 0x7aa6 <__vector_25+0x4e>
    7a98:	e1 59       	subi	r30, 0x91	; 145
    7a9a:	f8 4f       	sbci	r31, 0xF8	; 248
    7a9c:	40 83       	st	Z, r20
    7a9e:	30 93 f0 07 	sts	0x07F0, r19
    7aa2:	20 93 ef 07 	sts	0x07EF, r18
    7aa6:	ff 91       	pop	r31
    7aa8:	ef 91       	pop	r30
    7aaa:	9f 91       	pop	r25
    7aac:	8f 91       	pop	r24
    7aae:	4f 91       	pop	r20
    7ab0:	3f 91       	pop	r19
    7ab2:	2f 91       	pop	r18
    7ab4:	0f 90       	pop	r0
    7ab6:	0b be       	out	0x3b, r0	; 59
    7ab8:	0f 90       	pop	r0
    7aba:	0f be       	out	0x3f, r0	; 63
    7abc:	0f 90       	pop	r0
    7abe:	1f 90       	pop	r1
    7ac0:	18 95       	reti

00007ac2 <__vector_36>:
    7ac2:	1f 92       	push	r1
    7ac4:	0f 92       	push	r0
    7ac6:	0f b6       	in	r0, 0x3f	; 63
    7ac8:	0f 92       	push	r0
    7aca:	0b b6       	in	r0, 0x3b	; 59
    7acc:	0f 92       	push	r0
    7ace:	11 24       	eor	r1, r1
    7ad0:	2f 93       	push	r18
    7ad2:	3f 93       	push	r19
    7ad4:	4f 93       	push	r20
    7ad6:	8f 93       	push	r24
    7ad8:	9f 93       	push	r25
    7ada:	ef 93       	push	r30
    7adc:	ff 93       	push	r31
    7ade:	40 91 ce 00 	lds	r20, 0x00CE
    7ae2:	e0 91 73 08 	lds	r30, 0x0873
    7ae6:	f0 91 74 08 	lds	r31, 0x0874
    7aea:	31 96       	adiw	r30, 0x01	; 1
    7aec:	9f 01       	movw	r18, r30
    7aee:	2f 77       	andi	r18, 0x7F	; 127
    7af0:	30 70       	andi	r19, 0x00	; 0
    7af2:	31 97       	sbiw	r30, 0x01	; 1
    7af4:	80 91 75 08 	lds	r24, 0x0875
    7af8:	90 91 76 08 	lds	r25, 0x0876
    7afc:	28 17       	cp	r18, r24
    7afe:	39 07       	cpc	r19, r25
    7b00:	39 f0       	breq	.+14     	; 0x7b10 <__vector_36+0x4e>
    7b02:	ed 50       	subi	r30, 0x0D	; 13
    7b04:	f8 4f       	sbci	r31, 0xF8	; 248
    7b06:	40 83       	st	Z, r20
    7b08:	30 93 74 08 	sts	0x0874, r19
    7b0c:	20 93 73 08 	sts	0x0873, r18
    7b10:	ff 91       	pop	r31
    7b12:	ef 91       	pop	r30
    7b14:	9f 91       	pop	r25
    7b16:	8f 91       	pop	r24
    7b18:	4f 91       	pop	r20
    7b1a:	3f 91       	pop	r19
    7b1c:	2f 91       	pop	r18
    7b1e:	0f 90       	pop	r0
    7b20:	0b be       	out	0x3b, r0	; 59
    7b22:	0f 90       	pop	r0
    7b24:	0f be       	out	0x3f, r0	; 63
    7b26:	0f 90       	pop	r0
    7b28:	1f 90       	pop	r1
    7b2a:	18 95       	reti

00007b2c <__vector_51>:
    7b2c:	1f 92       	push	r1
    7b2e:	0f 92       	push	r0
    7b30:	0f b6       	in	r0, 0x3f	; 63
    7b32:	0f 92       	push	r0
    7b34:	0b b6       	in	r0, 0x3b	; 59
    7b36:	0f 92       	push	r0
    7b38:	11 24       	eor	r1, r1
    7b3a:	2f 93       	push	r18
    7b3c:	3f 93       	push	r19
    7b3e:	4f 93       	push	r20
    7b40:	8f 93       	push	r24
    7b42:	9f 93       	push	r25
    7b44:	ef 93       	push	r30
    7b46:	ff 93       	push	r31
    7b48:	40 91 d6 00 	lds	r20, 0x00D6
    7b4c:	e0 91 f7 08 	lds	r30, 0x08F7
    7b50:	f0 91 f8 08 	lds	r31, 0x08F8
    7b54:	31 96       	adiw	r30, 0x01	; 1
    7b56:	9f 01       	movw	r18, r30
    7b58:	2f 77       	andi	r18, 0x7F	; 127
    7b5a:	30 70       	andi	r19, 0x00	; 0
    7b5c:	31 97       	sbiw	r30, 0x01	; 1
    7b5e:	80 91 f9 08 	lds	r24, 0x08F9
    7b62:	90 91 fa 08 	lds	r25, 0x08FA
    7b66:	28 17       	cp	r18, r24
    7b68:	39 07       	cpc	r19, r25
    7b6a:	39 f0       	breq	.+14     	; 0x7b7a <__vector_51+0x4e>
    7b6c:	e9 58       	subi	r30, 0x89	; 137
    7b6e:	f7 4f       	sbci	r31, 0xF7	; 247
    7b70:	40 83       	st	Z, r20
    7b72:	30 93 f8 08 	sts	0x08F8, r19
    7b76:	20 93 f7 08 	sts	0x08F7, r18
    7b7a:	ff 91       	pop	r31
    7b7c:	ef 91       	pop	r30
    7b7e:	9f 91       	pop	r25
    7b80:	8f 91       	pop	r24
    7b82:	4f 91       	pop	r20
    7b84:	3f 91       	pop	r19
    7b86:	2f 91       	pop	r18
    7b88:	0f 90       	pop	r0
    7b8a:	0b be       	out	0x3b, r0	; 59
    7b8c:	0f 90       	pop	r0
    7b8e:	0f be       	out	0x3f, r0	; 63
    7b90:	0f 90       	pop	r0
    7b92:	1f 90       	pop	r1
    7b94:	18 95       	reti

00007b96 <__vector_54>:
    7b96:	1f 92       	push	r1
    7b98:	0f 92       	push	r0
    7b9a:	0f b6       	in	r0, 0x3f	; 63
    7b9c:	0f 92       	push	r0
    7b9e:	0b b6       	in	r0, 0x3b	; 59
    7ba0:	0f 92       	push	r0
    7ba2:	11 24       	eor	r1, r1
    7ba4:	2f 93       	push	r18
    7ba6:	3f 93       	push	r19
    7ba8:	4f 93       	push	r20
    7baa:	8f 93       	push	r24
    7bac:	9f 93       	push	r25
    7bae:	ef 93       	push	r30
    7bb0:	ff 93       	push	r31
    7bb2:	40 91 36 01 	lds	r20, 0x0136
    7bb6:	e0 91 7b 09 	lds	r30, 0x097B
    7bba:	f0 91 7c 09 	lds	r31, 0x097C
    7bbe:	31 96       	adiw	r30, 0x01	; 1
    7bc0:	9f 01       	movw	r18, r30
    7bc2:	2f 77       	andi	r18, 0x7F	; 127
    7bc4:	30 70       	andi	r19, 0x00	; 0
    7bc6:	31 97       	sbiw	r30, 0x01	; 1
    7bc8:	80 91 7d 09 	lds	r24, 0x097D
    7bcc:	90 91 7e 09 	lds	r25, 0x097E
    7bd0:	28 17       	cp	r18, r24
    7bd2:	39 07       	cpc	r19, r25
    7bd4:	39 f0       	breq	.+14     	; 0x7be4 <__vector_54+0x4e>
    7bd6:	e5 50       	subi	r30, 0x05	; 5
    7bd8:	f7 4f       	sbci	r31, 0xF7	; 247
    7bda:	40 83       	st	Z, r20
    7bdc:	30 93 7c 09 	sts	0x097C, r19
    7be0:	20 93 7b 09 	sts	0x097B, r18
    7be4:	ff 91       	pop	r31
    7be6:	ef 91       	pop	r30
    7be8:	9f 91       	pop	r25
    7bea:	8f 91       	pop	r24
    7bec:	4f 91       	pop	r20
    7bee:	3f 91       	pop	r19
    7bf0:	2f 91       	pop	r18
    7bf2:	0f 90       	pop	r0
    7bf4:	0b be       	out	0x3b, r0	; 59
    7bf6:	0f 90       	pop	r0
    7bf8:	0f be       	out	0x3f, r0	; 63
    7bfa:	0f 90       	pop	r0
    7bfc:	1f 90       	pop	r1
    7bfe:	18 95       	reti

00007c00 <_ZN14HardwareSerialC2EP11ring_bufferPVhS3_S3_S3_S3_hhhhh>:
    7c00:	8f 92       	push	r8
    7c02:	af 92       	push	r10
    7c04:	cf 92       	push	r12
    7c06:	df 92       	push	r13
    7c08:	ef 92       	push	r14
    7c0a:	ff 92       	push	r15
    7c0c:	0f 93       	push	r16
    7c0e:	1f 93       	push	r17
    7c10:	df 93       	push	r29
    7c12:	cf 93       	push	r28
    7c14:	cd b7       	in	r28, 0x3d	; 61
    7c16:	de b7       	in	r29, 0x3e	; 62
    7c18:	fc 01       	movw	r30, r24
    7c1a:	89 ee       	ldi	r24, 0xE9	; 233
    7c1c:	95 e0       	ldi	r25, 0x05	; 5
    7c1e:	91 83       	std	Z+1, r25	; 0x01
    7c20:	80 83       	st	Z, r24
    7c22:	73 83       	std	Z+3, r23	; 0x03
    7c24:	62 83       	std	Z+2, r22	; 0x02
    7c26:	55 83       	std	Z+5, r21	; 0x05
    7c28:	44 83       	std	Z+4, r20	; 0x04
    7c2a:	37 83       	std	Z+7, r19	; 0x07
    7c2c:	26 83       	std	Z+6, r18	; 0x06
    7c2e:	11 87       	std	Z+9, r17	; 0x09
    7c30:	00 87       	std	Z+8, r16	; 0x08
    7c32:	f3 86       	std	Z+11, r15	; 0x0b
    7c34:	e2 86       	std	Z+10, r14	; 0x0a
    7c36:	d5 86       	std	Z+13, r13	; 0x0d
    7c38:	c4 86       	std	Z+12, r12	; 0x0c
    7c3a:	a6 86       	std	Z+14, r10	; 0x0e
    7c3c:	87 86       	std	Z+15, r8	; 0x0f
    7c3e:	8d 85       	ldd	r24, Y+13	; 0x0d
    7c40:	80 8b       	std	Z+16, r24	; 0x10
    7c42:	8e 85       	ldd	r24, Y+14	; 0x0e
    7c44:	81 8b       	std	Z+17, r24	; 0x11
    7c46:	8f 85       	ldd	r24, Y+15	; 0x0f
    7c48:	82 8b       	std	Z+18, r24	; 0x12
    7c4a:	cf 91       	pop	r28
    7c4c:	df 91       	pop	r29
    7c4e:	1f 91       	pop	r17
    7c50:	0f 91       	pop	r16
    7c52:	ff 90       	pop	r15
    7c54:	ef 90       	pop	r14
    7c56:	df 90       	pop	r13
    7c58:	cf 90       	pop	r12
    7c5a:	af 90       	pop	r10
    7c5c:	8f 90       	pop	r8
    7c5e:	08 95       	ret

00007c60 <_ZN14HardwareSerialC1EP11ring_bufferPVhS3_S3_S3_S3_hhhhh>:
    7c60:	8f 92       	push	r8
    7c62:	af 92       	push	r10
    7c64:	cf 92       	push	r12
    7c66:	df 92       	push	r13
    7c68:	ef 92       	push	r14
    7c6a:	ff 92       	push	r15
    7c6c:	0f 93       	push	r16
    7c6e:	1f 93       	push	r17
    7c70:	df 93       	push	r29
    7c72:	cf 93       	push	r28
    7c74:	cd b7       	in	r28, 0x3d	; 61
    7c76:	de b7       	in	r29, 0x3e	; 62
    7c78:	fc 01       	movw	r30, r24
    7c7a:	89 ee       	ldi	r24, 0xE9	; 233
    7c7c:	95 e0       	ldi	r25, 0x05	; 5
    7c7e:	91 83       	std	Z+1, r25	; 0x01
    7c80:	80 83       	st	Z, r24
    7c82:	73 83       	std	Z+3, r23	; 0x03
    7c84:	62 83       	std	Z+2, r22	; 0x02
    7c86:	55 83       	std	Z+5, r21	; 0x05
    7c88:	44 83       	std	Z+4, r20	; 0x04
    7c8a:	37 83       	std	Z+7, r19	; 0x07
    7c8c:	26 83       	std	Z+6, r18	; 0x06
    7c8e:	11 87       	std	Z+9, r17	; 0x09
    7c90:	00 87       	std	Z+8, r16	; 0x08
    7c92:	f3 86       	std	Z+11, r15	; 0x0b
    7c94:	e2 86       	std	Z+10, r14	; 0x0a
    7c96:	d5 86       	std	Z+13, r13	; 0x0d
    7c98:	c4 86       	std	Z+12, r12	; 0x0c
    7c9a:	a6 86       	std	Z+14, r10	; 0x0e
    7c9c:	87 86       	std	Z+15, r8	; 0x0f
    7c9e:	8d 85       	ldd	r24, Y+13	; 0x0d
    7ca0:	80 8b       	std	Z+16, r24	; 0x10
    7ca2:	8e 85       	ldd	r24, Y+14	; 0x0e
    7ca4:	81 8b       	std	Z+17, r24	; 0x11
    7ca6:	8f 85       	ldd	r24, Y+15	; 0x0f
    7ca8:	82 8b       	std	Z+18, r24	; 0x12
    7caa:	cf 91       	pop	r28
    7cac:	df 91       	pop	r29
    7cae:	1f 91       	pop	r17
    7cb0:	0f 91       	pop	r16
    7cb2:	ff 90       	pop	r15
    7cb4:	ef 90       	pop	r14
    7cb6:	df 90       	pop	r13
    7cb8:	cf 90       	pop	r12
    7cba:	af 90       	pop	r10
    7cbc:	8f 90       	pop	r8
    7cbe:	08 95       	ret

00007cc0 <_ZN14HardwareSerial5beginEl>:
    7cc0:	cf 93       	push	r28
    7cc2:	df 93       	push	r29
    7cc4:	ec 01       	movw	r28, r24
    7cc6:	9a 01       	movw	r18, r20
    7cc8:	ab 01       	movw	r20, r22
    7cca:	e8 85       	ldd	r30, Y+8	; 0x08
    7ccc:	f9 85       	ldd	r31, Y+9	; 0x09
    7cce:	20 30       	cpi	r18, 0x00	; 0
    7cd0:	81 ee       	ldi	r24, 0xE1	; 225
    7cd2:	38 07       	cpc	r19, r24
    7cd4:	80 e0       	ldi	r24, 0x00	; 0
    7cd6:	48 07       	cpc	r20, r24
    7cd8:	80 e0       	ldi	r24, 0x00	; 0
    7cda:	58 07       	cpc	r21, r24
    7cdc:	09 f4       	brne	.+2      	; 0x7ce0 <_ZN14HardwareSerial5beginEl+0x20>
    7cde:	45 c0       	rjmp	.+138    	; 0x7d6a <_ZN14HardwareSerial5beginEl+0xaa>
    7ce0:	81 e0       	ldi	r24, 0x01	; 1
    7ce2:	90 e0       	ldi	r25, 0x00	; 0
    7ce4:	0a 88       	ldd	r0, Y+18	; 0x12
    7ce6:	02 c0       	rjmp	.+4      	; 0x7cec <_ZN14HardwareSerial5beginEl+0x2c>
    7ce8:	88 0f       	add	r24, r24
    7cea:	99 1f       	adc	r25, r25
    7cec:	0a 94       	dec	r0
    7cee:	e2 f7       	brpl	.-8      	; 0x7ce8 <_ZN14HardwareSerial5beginEl+0x28>
    7cf0:	80 83       	st	Z, r24
    7cf2:	60 e0       	ldi	r22, 0x00	; 0
    7cf4:	79 e0       	ldi	r23, 0x09	; 9
    7cf6:	8d e3       	ldi	r24, 0x3D	; 61
    7cf8:	90 e0       	ldi	r25, 0x00	; 0
    7cfa:	0e 94 0a 4f 	call	0x9e14	; 0x9e14 <__udivmodsi4>
    7cfe:	21 50       	subi	r18, 0x01	; 1
    7d00:	30 40       	sbci	r19, 0x00	; 0
    7d02:	40 40       	sbci	r20, 0x00	; 0
    7d04:	50 40       	sbci	r21, 0x00	; 0
    7d06:	56 95       	lsr	r21
    7d08:	47 95       	ror	r20
    7d0a:	37 95       	ror	r19
    7d0c:	27 95       	ror	r18
    7d0e:	ec 81       	ldd	r30, Y+4	; 0x04
    7d10:	fd 81       	ldd	r31, Y+5	; 0x05
    7d12:	30 83       	st	Z, r19
    7d14:	ee 81       	ldd	r30, Y+6	; 0x06
    7d16:	ff 81       	ldd	r31, Y+7	; 0x07
    7d18:	20 83       	st	Z, r18
    7d1a:	ea 85       	ldd	r30, Y+10	; 0x0a
    7d1c:	fb 85       	ldd	r31, Y+11	; 0x0b
    7d1e:	20 81       	ld	r18, Z
    7d20:	41 e0       	ldi	r20, 0x01	; 1
    7d22:	50 e0       	ldi	r21, 0x00	; 0
    7d24:	ca 01       	movw	r24, r20
    7d26:	0e 84       	ldd	r0, Y+14	; 0x0e
    7d28:	02 c0       	rjmp	.+4      	; 0x7d2e <_ZN14HardwareSerial5beginEl+0x6e>
    7d2a:	88 0f       	add	r24, r24
    7d2c:	99 1f       	adc	r25, r25
    7d2e:	0a 94       	dec	r0
    7d30:	e2 f7       	brpl	.-8      	; 0x7d2a <_ZN14HardwareSerial5beginEl+0x6a>
    7d32:	28 2b       	or	r18, r24
    7d34:	20 83       	st	Z, r18
    7d36:	ea 85       	ldd	r30, Y+10	; 0x0a
    7d38:	fb 85       	ldd	r31, Y+11	; 0x0b
    7d3a:	20 81       	ld	r18, Z
    7d3c:	ca 01       	movw	r24, r20
    7d3e:	0f 84       	ldd	r0, Y+15	; 0x0f
    7d40:	02 c0       	rjmp	.+4      	; 0x7d46 <_ZN14HardwareSerial5beginEl+0x86>
    7d42:	88 0f       	add	r24, r24
    7d44:	99 1f       	adc	r25, r25
    7d46:	0a 94       	dec	r0
    7d48:	e2 f7       	brpl	.-8      	; 0x7d42 <_ZN14HardwareSerial5beginEl+0x82>
    7d4a:	28 2b       	or	r18, r24
    7d4c:	20 83       	st	Z, r18
    7d4e:	ea 85       	ldd	r30, Y+10	; 0x0a
    7d50:	fb 85       	ldd	r31, Y+11	; 0x0b
    7d52:	80 81       	ld	r24, Z
    7d54:	08 88       	ldd	r0, Y+16	; 0x10
    7d56:	02 c0       	rjmp	.+4      	; 0x7d5c <_ZN14HardwareSerial5beginEl+0x9c>
    7d58:	44 0f       	add	r20, r20
    7d5a:	55 1f       	adc	r21, r21
    7d5c:	0a 94       	dec	r0
    7d5e:	e2 f7       	brpl	.-8      	; 0x7d58 <_ZN14HardwareSerial5beginEl+0x98>
    7d60:	84 2b       	or	r24, r20
    7d62:	80 83       	st	Z, r24
    7d64:	df 91       	pop	r29
    7d66:	cf 91       	pop	r28
    7d68:	08 95       	ret
    7d6a:	10 82       	st	Z, r1
    7d6c:	20 e1       	ldi	r18, 0x10	; 16
    7d6e:	30 e0       	ldi	r19, 0x00	; 0
    7d70:	ce cf       	rjmp	.-100    	; 0x7d0e <_ZN14HardwareSerial5beginEl+0x4e>

00007d72 <_ZN14HardwareSerial3endEv>:
    7d72:	fc 01       	movw	r30, r24
    7d74:	a2 85       	ldd	r26, Z+10	; 0x0a
    7d76:	b3 85       	ldd	r27, Z+11	; 0x0b
    7d78:	4c 91       	ld	r20, X
    7d7a:	21 e0       	ldi	r18, 0x01	; 1
    7d7c:	30 e0       	ldi	r19, 0x00	; 0
    7d7e:	c9 01       	movw	r24, r18
    7d80:	06 84       	ldd	r0, Z+14	; 0x0e
    7d82:	02 c0       	rjmp	.+4      	; 0x7d88 <_ZN14HardwareSerial3endEv+0x16>
    7d84:	88 0f       	add	r24, r24
    7d86:	99 1f       	adc	r25, r25
    7d88:	0a 94       	dec	r0
    7d8a:	e2 f7       	brpl	.-8      	; 0x7d84 <_ZN14HardwareSerial3endEv+0x12>
    7d8c:	80 95       	com	r24
    7d8e:	84 23       	and	r24, r20
    7d90:	8c 93       	st	X, r24
    7d92:	a2 85       	ldd	r26, Z+10	; 0x0a
    7d94:	b3 85       	ldd	r27, Z+11	; 0x0b
    7d96:	4c 91       	ld	r20, X
    7d98:	c9 01       	movw	r24, r18
    7d9a:	07 84       	ldd	r0, Z+15	; 0x0f
    7d9c:	02 c0       	rjmp	.+4      	; 0x7da2 <_ZN14HardwareSerial3endEv+0x30>
    7d9e:	88 0f       	add	r24, r24
    7da0:	99 1f       	adc	r25, r25
    7da2:	0a 94       	dec	r0
    7da4:	e2 f7       	brpl	.-8      	; 0x7d9e <_ZN14HardwareSerial3endEv+0x2c>
    7da6:	80 95       	com	r24
    7da8:	84 23       	and	r24, r20
    7daa:	8c 93       	st	X, r24
    7dac:	a2 85       	ldd	r26, Z+10	; 0x0a
    7dae:	b3 85       	ldd	r27, Z+11	; 0x0b
    7db0:	8c 91       	ld	r24, X
    7db2:	00 88       	ldd	r0, Z+16	; 0x10
    7db4:	02 c0       	rjmp	.+4      	; 0x7dba <_ZN14HardwareSerial3endEv+0x48>
    7db6:	22 0f       	add	r18, r18
    7db8:	33 1f       	adc	r19, r19
    7dba:	0a 94       	dec	r0
    7dbc:	e2 f7       	brpl	.-8      	; 0x7db6 <_ZN14HardwareSerial3endEv+0x44>
    7dbe:	20 95       	com	r18
    7dc0:	28 23       	and	r18, r24
    7dc2:	2c 93       	st	X, r18
    7dc4:	08 95       	ret

00007dc6 <_ZN14HardwareSerial9availableEv>:
    7dc6:	dc 01       	movw	r26, r24
    7dc8:	12 96       	adiw	r26, 0x02	; 2
    7dca:	ed 91       	ld	r30, X+
    7dcc:	fc 91       	ld	r31, X
    7dce:	13 97       	sbiw	r26, 0x03	; 3
    7dd0:	e0 58       	subi	r30, 0x80	; 128
    7dd2:	ff 4f       	sbci	r31, 0xFF	; 255
    7dd4:	21 91       	ld	r18, Z+
    7dd6:	31 91       	ld	r19, Z+
    7dd8:	80 81       	ld	r24, Z
    7dda:	91 81       	ldd	r25, Z+1	; 0x01
    7ddc:	28 1b       	sub	r18, r24
    7dde:	39 0b       	sbc	r19, r25
    7de0:	2f 77       	andi	r18, 0x7F	; 127
    7de2:	30 70       	andi	r19, 0x00	; 0
    7de4:	c9 01       	movw	r24, r18
    7de6:	08 95       	ret

00007de8 <_ZN14HardwareSerial4peekEv>:
    7de8:	dc 01       	movw	r26, r24
    7dea:	12 96       	adiw	r26, 0x02	; 2
    7dec:	ed 91       	ld	r30, X+
    7dee:	fc 91       	ld	r31, X
    7df0:	13 97       	sbiw	r26, 0x03	; 3
    7df2:	ee 57       	subi	r30, 0x7E	; 126
    7df4:	ff 4f       	sbci	r31, 0xFF	; 255
    7df6:	20 81       	ld	r18, Z
    7df8:	31 81       	ldd	r19, Z+1	; 0x01
    7dfa:	92 91       	ld	r25, -Z
    7dfc:	82 91       	ld	r24, -Z
    7dfe:	e0 58       	subi	r30, 0x80	; 128
    7e00:	f0 40       	sbci	r31, 0x00	; 0
    7e02:	82 17       	cp	r24, r18
    7e04:	93 07       	cpc	r25, r19
    7e06:	19 f4       	brne	.+6      	; 0x7e0e <_ZN14HardwareSerial4peekEv+0x26>
    7e08:	2f ef       	ldi	r18, 0xFF	; 255
    7e0a:	3f ef       	ldi	r19, 0xFF	; 255
    7e0c:	05 c0       	rjmp	.+10     	; 0x7e18 <_ZN14HardwareSerial4peekEv+0x30>
    7e0e:	e2 0f       	add	r30, r18
    7e10:	f3 1f       	adc	r31, r19
    7e12:	80 81       	ld	r24, Z
    7e14:	28 2f       	mov	r18, r24
    7e16:	30 e0       	ldi	r19, 0x00	; 0
    7e18:	c9 01       	movw	r24, r18
    7e1a:	08 95       	ret

00007e1c <_ZN14HardwareSerial4readEv>:
    7e1c:	dc 01       	movw	r26, r24
    7e1e:	12 96       	adiw	r26, 0x02	; 2
    7e20:	ed 91       	ld	r30, X+
    7e22:	fc 91       	ld	r31, X
    7e24:	13 97       	sbiw	r26, 0x03	; 3
    7e26:	df 01       	movw	r26, r30
    7e28:	ae 57       	subi	r26, 0x7E	; 126
    7e2a:	bf 4f       	sbci	r27, 0xFF	; 255
    7e2c:	2d 91       	ld	r18, X+
    7e2e:	3c 91       	ld	r19, X
    7e30:	11 97       	sbiw	r26, 0x01	; 1
    7e32:	e0 58       	subi	r30, 0x80	; 128
    7e34:	ff 4f       	sbci	r31, 0xFF	; 255
    7e36:	80 81       	ld	r24, Z
    7e38:	91 81       	ldd	r25, Z+1	; 0x01
    7e3a:	e0 58       	subi	r30, 0x80	; 128
    7e3c:	f0 40       	sbci	r31, 0x00	; 0
    7e3e:	82 17       	cp	r24, r18
    7e40:	93 07       	cpc	r25, r19
    7e42:	19 f4       	brne	.+6      	; 0x7e4a <_ZN14HardwareSerial4readEv+0x2e>
    7e44:	2f ef       	ldi	r18, 0xFF	; 255
    7e46:	3f ef       	ldi	r19, 0xFF	; 255
    7e48:	0b c0       	rjmp	.+22     	; 0x7e60 <_ZN14HardwareSerial4readEv+0x44>
    7e4a:	e2 0f       	add	r30, r18
    7e4c:	f3 1f       	adc	r31, r19
    7e4e:	80 81       	ld	r24, Z
    7e50:	2f 5f       	subi	r18, 0xFF	; 255
    7e52:	3f 4f       	sbci	r19, 0xFF	; 255
    7e54:	2f 77       	andi	r18, 0x7F	; 127
    7e56:	30 70       	andi	r19, 0x00	; 0
    7e58:	2d 93       	st	X+, r18
    7e5a:	3c 93       	st	X, r19
    7e5c:	28 2f       	mov	r18, r24
    7e5e:	30 e0       	ldi	r19, 0x00	; 0
    7e60:	c9 01       	movw	r24, r18
    7e62:	08 95       	ret

00007e64 <_ZN14HardwareSerial5flushEv>:
    7e64:	dc 01       	movw	r26, r24
    7e66:	12 96       	adiw	r26, 0x02	; 2
    7e68:	ed 91       	ld	r30, X+
    7e6a:	fc 91       	ld	r31, X
    7e6c:	13 97       	sbiw	r26, 0x03	; 3
    7e6e:	ee 57       	subi	r30, 0x7E	; 126
    7e70:	ff 4f       	sbci	r31, 0xFF	; 255
    7e72:	80 81       	ld	r24, Z
    7e74:	91 81       	ldd	r25, Z+1	; 0x01
    7e76:	92 93       	st	-Z, r25
    7e78:	82 93       	st	-Z, r24
    7e7a:	08 95       	ret

00007e7c <_ZN14HardwareSerial5writeEh>:
    7e7c:	fc 01       	movw	r30, r24
    7e7e:	a0 85       	ldd	r26, Z+8	; 0x08
    7e80:	b1 85       	ldd	r27, Z+9	; 0x09
    7e82:	21 89       	ldd	r18, Z+17	; 0x11
    7e84:	8c 91       	ld	r24, X
    7e86:	90 e0       	ldi	r25, 0x00	; 0
    7e88:	02 2e       	mov	r0, r18
    7e8a:	02 c0       	rjmp	.+4      	; 0x7e90 <_ZN14HardwareSerial5writeEh+0x14>
    7e8c:	95 95       	asr	r25
    7e8e:	87 95       	ror	r24
    7e90:	0a 94       	dec	r0
    7e92:	e2 f7       	brpl	.-8      	; 0x7e8c <_ZN14HardwareSerial5writeEh+0x10>
    7e94:	80 ff       	sbrs	r24, 0
    7e96:	f6 cf       	rjmp	.-20     	; 0x7e84 <_ZN14HardwareSerial5writeEh+0x8>
    7e98:	04 84       	ldd	r0, Z+12	; 0x0c
    7e9a:	f5 85       	ldd	r31, Z+13	; 0x0d
    7e9c:	e0 2d       	mov	r30, r0
    7e9e:	60 83       	st	Z, r22
    7ea0:	08 95       	ret

00007ea2 <_GLOBAL__I_rx_buffer>:
    7ea2:	29 ee       	ldi	r18, 0xE9	; 233
    7ea4:	35 e0       	ldi	r19, 0x05	; 5
    7ea6:	30 93 80 09 	sts	0x0980, r19
    7eaa:	20 93 7f 09 	sts	0x097F, r18
    7eae:	8f e6       	ldi	r24, 0x6F	; 111
    7eb0:	97 e0       	ldi	r25, 0x07	; 7
    7eb2:	90 93 82 09 	sts	0x0982, r25
    7eb6:	80 93 81 09 	sts	0x0981, r24
    7eba:	85 ec       	ldi	r24, 0xC5	; 197
    7ebc:	90 e0       	ldi	r25, 0x00	; 0
    7ebe:	90 93 84 09 	sts	0x0984, r25
    7ec2:	80 93 83 09 	sts	0x0983, r24
    7ec6:	84 ec       	ldi	r24, 0xC4	; 196
    7ec8:	90 e0       	ldi	r25, 0x00	; 0
    7eca:	90 93 86 09 	sts	0x0986, r25
    7ece:	80 93 85 09 	sts	0x0985, r24
    7ed2:	80 ec       	ldi	r24, 0xC0	; 192
    7ed4:	90 e0       	ldi	r25, 0x00	; 0
    7ed6:	90 93 88 09 	sts	0x0988, r25
    7eda:	80 93 87 09 	sts	0x0987, r24
    7ede:	81 ec       	ldi	r24, 0xC1	; 193
    7ee0:	90 e0       	ldi	r25, 0x00	; 0
    7ee2:	90 93 8a 09 	sts	0x098A, r25
    7ee6:	80 93 89 09 	sts	0x0989, r24
    7eea:	86 ec       	ldi	r24, 0xC6	; 198
    7eec:	90 e0       	ldi	r25, 0x00	; 0
    7eee:	90 93 8c 09 	sts	0x098C, r25
    7ef2:	80 93 8b 09 	sts	0x098B, r24
    7ef6:	e4 e0       	ldi	r30, 0x04	; 4
    7ef8:	e0 93 8d 09 	sts	0x098D, r30
    7efc:	73 e0       	ldi	r23, 0x03	; 3
    7efe:	70 93 8e 09 	sts	0x098E, r23
    7f02:	67 e0       	ldi	r22, 0x07	; 7
    7f04:	60 93 8f 09 	sts	0x098F, r22
    7f08:	55 e0       	ldi	r21, 0x05	; 5
    7f0a:	50 93 90 09 	sts	0x0990, r21
    7f0e:	41 e0       	ldi	r20, 0x01	; 1
    7f10:	40 93 91 09 	sts	0x0991, r20
    7f14:	30 93 93 09 	sts	0x0993, r19
    7f18:	20 93 92 09 	sts	0x0992, r18
    7f1c:	83 ef       	ldi	r24, 0xF3	; 243
    7f1e:	97 e0       	ldi	r25, 0x07	; 7
    7f20:	90 93 95 09 	sts	0x0995, r25
    7f24:	80 93 94 09 	sts	0x0994, r24
    7f28:	8d ec       	ldi	r24, 0xCD	; 205
    7f2a:	90 e0       	ldi	r25, 0x00	; 0
    7f2c:	90 93 97 09 	sts	0x0997, r25
    7f30:	80 93 96 09 	sts	0x0996, r24
    7f34:	8c ec       	ldi	r24, 0xCC	; 204
    7f36:	90 e0       	ldi	r25, 0x00	; 0
    7f38:	90 93 99 09 	sts	0x0999, r25
    7f3c:	80 93 98 09 	sts	0x0998, r24
    7f40:	88 ec       	ldi	r24, 0xC8	; 200
    7f42:	90 e0       	ldi	r25, 0x00	; 0
    7f44:	90 93 9b 09 	sts	0x099B, r25
    7f48:	80 93 9a 09 	sts	0x099A, r24
    7f4c:	89 ec       	ldi	r24, 0xC9	; 201
    7f4e:	90 e0       	ldi	r25, 0x00	; 0
    7f50:	90 93 9d 09 	sts	0x099D, r25
    7f54:	80 93 9c 09 	sts	0x099C, r24
    7f58:	8e ec       	ldi	r24, 0xCE	; 206
    7f5a:	90 e0       	ldi	r25, 0x00	; 0
    7f5c:	90 93 9f 09 	sts	0x099F, r25
    7f60:	80 93 9e 09 	sts	0x099E, r24
    7f64:	e0 93 a0 09 	sts	0x09A0, r30
    7f68:	70 93 a1 09 	sts	0x09A1, r23
    7f6c:	60 93 a2 09 	sts	0x09A2, r22
    7f70:	50 93 a3 09 	sts	0x09A3, r21
    7f74:	40 93 a4 09 	sts	0x09A4, r20
    7f78:	30 93 a6 09 	sts	0x09A6, r19
    7f7c:	20 93 a5 09 	sts	0x09A5, r18
    7f80:	87 e7       	ldi	r24, 0x77	; 119
    7f82:	98 e0       	ldi	r25, 0x08	; 8
    7f84:	90 93 a8 09 	sts	0x09A8, r25
    7f88:	80 93 a7 09 	sts	0x09A7, r24
    7f8c:	85 ed       	ldi	r24, 0xD5	; 213
    7f8e:	90 e0       	ldi	r25, 0x00	; 0
    7f90:	90 93 aa 09 	sts	0x09AA, r25
    7f94:	80 93 a9 09 	sts	0x09A9, r24
    7f98:	84 ed       	ldi	r24, 0xD4	; 212
    7f9a:	90 e0       	ldi	r25, 0x00	; 0
    7f9c:	90 93 ac 09 	sts	0x09AC, r25
    7fa0:	80 93 ab 09 	sts	0x09AB, r24
    7fa4:	80 ed       	ldi	r24, 0xD0	; 208
    7fa6:	90 e0       	ldi	r25, 0x00	; 0
    7fa8:	90 93 ae 09 	sts	0x09AE, r25
    7fac:	80 93 ad 09 	sts	0x09AD, r24
    7fb0:	81 ed       	ldi	r24, 0xD1	; 209
    7fb2:	90 e0       	ldi	r25, 0x00	; 0
    7fb4:	90 93 b0 09 	sts	0x09B0, r25
    7fb8:	80 93 af 09 	sts	0x09AF, r24
    7fbc:	86 ed       	ldi	r24, 0xD6	; 214
    7fbe:	90 e0       	ldi	r25, 0x00	; 0
    7fc0:	90 93 b2 09 	sts	0x09B2, r25
    7fc4:	80 93 b1 09 	sts	0x09B1, r24
    7fc8:	e0 93 b3 09 	sts	0x09B3, r30
    7fcc:	70 93 b4 09 	sts	0x09B4, r23
    7fd0:	60 93 b5 09 	sts	0x09B5, r22
    7fd4:	50 93 b6 09 	sts	0x09B6, r21
    7fd8:	40 93 b7 09 	sts	0x09B7, r20
    7fdc:	30 93 b9 09 	sts	0x09B9, r19
    7fe0:	20 93 b8 09 	sts	0x09B8, r18
    7fe4:	8b ef       	ldi	r24, 0xFB	; 251
    7fe6:	98 e0       	ldi	r25, 0x08	; 8
    7fe8:	90 93 bb 09 	sts	0x09BB, r25
    7fec:	80 93 ba 09 	sts	0x09BA, r24
    7ff0:	85 e3       	ldi	r24, 0x35	; 53
    7ff2:	91 e0       	ldi	r25, 0x01	; 1
    7ff4:	90 93 bd 09 	sts	0x09BD, r25
    7ff8:	80 93 bc 09 	sts	0x09BC, r24
    7ffc:	84 e3       	ldi	r24, 0x34	; 52
    7ffe:	91 e0       	ldi	r25, 0x01	; 1
    8000:	90 93 bf 09 	sts	0x09BF, r25
    8004:	80 93 be 09 	sts	0x09BE, r24
    8008:	80 e3       	ldi	r24, 0x30	; 48
    800a:	91 e0       	ldi	r25, 0x01	; 1
    800c:	90 93 c1 09 	sts	0x09C1, r25
    8010:	80 93 c0 09 	sts	0x09C0, r24
    8014:	81 e3       	ldi	r24, 0x31	; 49
    8016:	91 e0       	ldi	r25, 0x01	; 1
    8018:	90 93 c3 09 	sts	0x09C3, r25
    801c:	80 93 c2 09 	sts	0x09C2, r24
    8020:	86 e3       	ldi	r24, 0x36	; 54
    8022:	91 e0       	ldi	r25, 0x01	; 1
    8024:	90 93 c5 09 	sts	0x09C5, r25
    8028:	80 93 c4 09 	sts	0x09C4, r24
    802c:	e0 93 c6 09 	sts	0x09C6, r30
    8030:	70 93 c7 09 	sts	0x09C7, r23
    8034:	60 93 c8 09 	sts	0x09C8, r22
    8038:	50 93 c9 09 	sts	0x09C9, r21
    803c:	40 93 ca 09 	sts	0x09CA, r20
    8040:	08 95       	ret

00008042 <_ZN5Print5writeEPKc>:
    8042:	0f 93       	push	r16
    8044:	1f 93       	push	r17
    8046:	cf 93       	push	r28
    8048:	df 93       	push	r29
    804a:	8c 01       	movw	r16, r24
    804c:	eb 01       	movw	r28, r22
    804e:	09 c0       	rjmp	.+18     	; 0x8062 <_ZN5Print5writeEPKc+0x20>
    8050:	21 96       	adiw	r28, 0x01	; 1
    8052:	d8 01       	movw	r26, r16
    8054:	ed 91       	ld	r30, X+
    8056:	fc 91       	ld	r31, X
    8058:	01 90       	ld	r0, Z+
    805a:	f0 81       	ld	r31, Z
    805c:	e0 2d       	mov	r30, r0
    805e:	c8 01       	movw	r24, r16
    8060:	09 95       	icall
    8062:	68 81       	ld	r22, Y
    8064:	66 23       	and	r22, r22
    8066:	a1 f7       	brne	.-24     	; 0x8050 <_ZN5Print5writeEPKc+0xe>
    8068:	df 91       	pop	r29
    806a:	cf 91       	pop	r28
    806c:	1f 91       	pop	r17
    806e:	0f 91       	pop	r16
    8070:	08 95       	ret

00008072 <_ZN5Print5writeEPKhj>:
    8072:	ef 92       	push	r14
    8074:	ff 92       	push	r15
    8076:	0f 93       	push	r16
    8078:	1f 93       	push	r17
    807a:	cf 93       	push	r28
    807c:	df 93       	push	r29
    807e:	8c 01       	movw	r16, r24
    8080:	7b 01       	movw	r14, r22
    8082:	ea 01       	movw	r28, r20
    8084:	0c c0       	rjmp	.+24     	; 0x809e <_ZN5Print5writeEPKhj+0x2c>
    8086:	d7 01       	movw	r26, r14
    8088:	6d 91       	ld	r22, X+
    808a:	7d 01       	movw	r14, r26
    808c:	d8 01       	movw	r26, r16
    808e:	ed 91       	ld	r30, X+
    8090:	fc 91       	ld	r31, X
    8092:	01 90       	ld	r0, Z+
    8094:	f0 81       	ld	r31, Z
    8096:	e0 2d       	mov	r30, r0
    8098:	c8 01       	movw	r24, r16
    809a:	09 95       	icall
    809c:	21 97       	sbiw	r28, 0x01	; 1
    809e:	20 97       	sbiw	r28, 0x00	; 0
    80a0:	91 f7       	brne	.-28     	; 0x8086 <_ZN5Print5writeEPKhj+0x14>
    80a2:	df 91       	pop	r29
    80a4:	cf 91       	pop	r28
    80a6:	1f 91       	pop	r17
    80a8:	0f 91       	pop	r16
    80aa:	ff 90       	pop	r15
    80ac:	ef 90       	pop	r14
    80ae:	08 95       	ret

000080b0 <_ZN5Print5printEPKc>:
    80b0:	dc 01       	movw	r26, r24
    80b2:	ed 91       	ld	r30, X+
    80b4:	fc 91       	ld	r31, X
    80b6:	02 80       	ldd	r0, Z+2	; 0x02
    80b8:	f3 81       	ldd	r31, Z+3	; 0x03
    80ba:	e0 2d       	mov	r30, r0
    80bc:	09 95       	icall
    80be:	08 95       	ret

000080c0 <_ZN5Print5printERK6String>:
    80c0:	cf 92       	push	r12
    80c2:	df 92       	push	r13
    80c4:	ef 92       	push	r14
    80c6:	ff 92       	push	r15
    80c8:	0f 93       	push	r16
    80ca:	1f 93       	push	r17
    80cc:	cf 93       	push	r28
    80ce:	df 93       	push	r29
    80d0:	6c 01       	movw	r12, r24
    80d2:	7b 01       	movw	r14, r22
    80d4:	c0 e0       	ldi	r28, 0x00	; 0
    80d6:	d0 e0       	ldi	r29, 0x00	; 0
    80d8:	0e c0       	rjmp	.+28     	; 0x80f6 <_ZN5Print5printERK6String+0x36>
    80da:	d6 01       	movw	r26, r12
    80dc:	ed 91       	ld	r30, X+
    80de:	fc 91       	ld	r31, X
    80e0:	00 81       	ld	r16, Z
    80e2:	11 81       	ldd	r17, Z+1	; 0x01
    80e4:	c7 01       	movw	r24, r14
    80e6:	be 01       	movw	r22, r28
    80e8:	0e 94 bb 43 	call	0x8776	; 0x8776 <_ZNK6StringixEj>
    80ec:	68 2f       	mov	r22, r24
    80ee:	c6 01       	movw	r24, r12
    80f0:	f8 01       	movw	r30, r16
    80f2:	09 95       	icall
    80f4:	21 96       	adiw	r28, 0x01	; 1
    80f6:	f7 01       	movw	r30, r14
    80f8:	84 81       	ldd	r24, Z+4	; 0x04
    80fa:	95 81       	ldd	r25, Z+5	; 0x05
    80fc:	c8 17       	cp	r28, r24
    80fe:	d9 07       	cpc	r29, r25
    8100:	60 f3       	brcs	.-40     	; 0x80da <_ZN5Print5printERK6String+0x1a>
    8102:	df 91       	pop	r29
    8104:	cf 91       	pop	r28
    8106:	1f 91       	pop	r17
    8108:	0f 91       	pop	r16
    810a:	ff 90       	pop	r15
    810c:	ef 90       	pop	r14
    810e:	df 90       	pop	r13
    8110:	cf 90       	pop	r12
    8112:	08 95       	ret

00008114 <_ZN5Print11printNumberEmh>:
    8114:	2f 92       	push	r2
    8116:	3f 92       	push	r3
    8118:	4f 92       	push	r4
    811a:	5f 92       	push	r5
    811c:	6f 92       	push	r6
    811e:	7f 92       	push	r7
    8120:	8f 92       	push	r8
    8122:	9f 92       	push	r9
    8124:	af 92       	push	r10
    8126:	bf 92       	push	r11
    8128:	cf 92       	push	r12
    812a:	df 92       	push	r13
    812c:	ef 92       	push	r14
    812e:	ff 92       	push	r15
    8130:	0f 93       	push	r16
    8132:	1f 93       	push	r17
    8134:	df 93       	push	r29
    8136:	cf 93       	push	r28
    8138:	cd b7       	in	r28, 0x3d	; 61
    813a:	de b7       	in	r29, 0x3e	; 62
    813c:	a0 97       	sbiw	r28, 0x20	; 32
    813e:	0f b6       	in	r0, 0x3f	; 63
    8140:	f8 94       	cli
    8142:	de bf       	out	0x3e, r29	; 62
    8144:	0f be       	out	0x3f, r0	; 63
    8146:	cd bf       	out	0x3d, r28	; 61
    8148:	1c 01       	movw	r2, r24
    814a:	6a 01       	movw	r12, r20
    814c:	7b 01       	movw	r14, r22
    814e:	41 15       	cp	r20, r1
    8150:	51 05       	cpc	r21, r1
    8152:	61 05       	cpc	r22, r1
    8154:	71 05       	cpc	r23, r1
    8156:	49 f4       	brne	.+18     	; 0x816a <_ZN5Print11printNumberEmh+0x56>
    8158:	40 e3       	ldi	r20, 0x30	; 48
    815a:	50 e0       	ldi	r21, 0x00	; 0
    815c:	60 e0       	ldi	r22, 0x00	; 0
    815e:	70 e0       	ldi	r23, 0x00	; 0
    8160:	20 e0       	ldi	r18, 0x00	; 0
    8162:	30 e0       	ldi	r19, 0x00	; 0
    8164:	0e 94 54 41 	call	0x82a8	; 0x82a8 <_ZN5Print5printEli>
    8168:	54 c0       	rjmp	.+168    	; 0x8212 <_ZN5Print11printNumberEmh+0xfe>
    816a:	88 24       	eor	r8, r8
    816c:	99 24       	eor	r9, r9
    816e:	54 01       	movw	r10, r8
    8170:	42 2e       	mov	r4, r18
    8172:	55 24       	eor	r5, r5
    8174:	66 24       	eor	r6, r6
    8176:	77 24       	eor	r7, r7
    8178:	01 e0       	ldi	r16, 0x01	; 1
    817a:	10 e0       	ldi	r17, 0x00	; 0
    817c:	0c 0f       	add	r16, r28
    817e:	1d 1f       	adc	r17, r29
    8180:	08 0d       	add	r16, r8
    8182:	19 1d       	adc	r17, r9
    8184:	c7 01       	movw	r24, r14
    8186:	b6 01       	movw	r22, r12
    8188:	a3 01       	movw	r20, r6
    818a:	92 01       	movw	r18, r4
    818c:	0e 94 0a 4f 	call	0x9e14	; 0x9e14 <__udivmodsi4>
    8190:	f8 01       	movw	r30, r16
    8192:	60 83       	st	Z, r22
    8194:	08 94       	sec
    8196:	81 1c       	adc	r8, r1
    8198:	91 1c       	adc	r9, r1
    819a:	a1 1c       	adc	r10, r1
    819c:	b1 1c       	adc	r11, r1
    819e:	c7 01       	movw	r24, r14
    81a0:	b6 01       	movw	r22, r12
    81a2:	a3 01       	movw	r20, r6
    81a4:	92 01       	movw	r18, r4
    81a6:	0e 94 0a 4f 	call	0x9e14	; 0x9e14 <__udivmodsi4>
    81aa:	c9 01       	movw	r24, r18
    81ac:	da 01       	movw	r26, r20
    81ae:	6c 01       	movw	r12, r24
    81b0:	7d 01       	movw	r14, r26
    81b2:	c1 14       	cp	r12, r1
    81b4:	d1 04       	cpc	r13, r1
    81b6:	e1 04       	cpc	r14, r1
    81b8:	f1 04       	cpc	r15, r1
    81ba:	f1 f6       	brne	.-68     	; 0x8178 <_ZN5Print11printNumberEmh+0x64>
    81bc:	81 e0       	ldi	r24, 0x01	; 1
    81be:	e8 2e       	mov	r14, r24
    81c0:	f1 2c       	mov	r15, r1
    81c2:	ec 0e       	add	r14, r28
    81c4:	fd 1e       	adc	r15, r29
    81c6:	e8 0c       	add	r14, r8
    81c8:	f9 1c       	adc	r15, r9
    81ca:	3e 01       	movw	r6, r28
    81cc:	08 94       	sec
    81ce:	61 1c       	adc	r6, r1
    81d0:	71 1c       	adc	r7, r1
    81d2:	d5 01       	movw	r26, r10
    81d4:	c4 01       	movw	r24, r8
    81d6:	01 97       	sbiw	r24, 0x01	; 1
    81d8:	a1 09       	sbc	r26, r1
    81da:	b1 09       	sbc	r27, r1
    81dc:	6c 01       	movw	r12, r24
    81de:	c8 18       	sub	r12, r8
    81e0:	d9 08       	sbc	r13, r9
    81e2:	14 c0       	rjmp	.+40     	; 0x820c <_ZN5Print11printNumberEmh+0xf8>
    81e4:	f6 01       	movw	r30, r12
    81e6:	ee 0d       	add	r30, r14
    81e8:	ff 1d       	adc	r31, r15
    81ea:	40 81       	ld	r20, Z
    81ec:	4a 30       	cpi	r20, 0x0A	; 10
    81ee:	10 f4       	brcc	.+4      	; 0x81f4 <_ZN5Print11printNumberEmh+0xe0>
    81f0:	40 5d       	subi	r20, 0xD0	; 208
    81f2:	01 c0       	rjmp	.+2      	; 0x81f6 <_ZN5Print11printNumberEmh+0xe2>
    81f4:	49 5c       	subi	r20, 0xC9	; 201
    81f6:	50 e0       	ldi	r21, 0x00	; 0
    81f8:	60 e0       	ldi	r22, 0x00	; 0
    81fa:	70 e0       	ldi	r23, 0x00	; 0
    81fc:	c1 01       	movw	r24, r2
    81fe:	20 e0       	ldi	r18, 0x00	; 0
    8200:	30 e0       	ldi	r19, 0x00	; 0
    8202:	0e 94 54 41 	call	0x82a8	; 0x82a8 <_ZN5Print5printEli>
    8206:	08 94       	sec
    8208:	e1 08       	sbc	r14, r1
    820a:	f1 08       	sbc	r15, r1
    820c:	6e 14       	cp	r6, r14
    820e:	7f 04       	cpc	r7, r15
    8210:	49 f7       	brne	.-46     	; 0x81e4 <_ZN5Print11printNumberEmh+0xd0>
    8212:	a0 96       	adiw	r28, 0x20	; 32
    8214:	0f b6       	in	r0, 0x3f	; 63
    8216:	f8 94       	cli
    8218:	de bf       	out	0x3e, r29	; 62
    821a:	0f be       	out	0x3f, r0	; 63
    821c:	cd bf       	out	0x3d, r28	; 61
    821e:	cf 91       	pop	r28
    8220:	df 91       	pop	r29
    8222:	1f 91       	pop	r17
    8224:	0f 91       	pop	r16
    8226:	ff 90       	pop	r15
    8228:	ef 90       	pop	r14
    822a:	df 90       	pop	r13
    822c:	cf 90       	pop	r12
    822e:	bf 90       	pop	r11
    8230:	af 90       	pop	r10
    8232:	9f 90       	pop	r9
    8234:	8f 90       	pop	r8
    8236:	7f 90       	pop	r7
    8238:	6f 90       	pop	r6
    823a:	5f 90       	pop	r5
    823c:	4f 90       	pop	r4
    823e:	3f 90       	pop	r3
    8240:	2f 90       	pop	r2
    8242:	08 95       	ret

00008244 <_ZN5Print5printEmi>:
    8244:	dc 01       	movw	r26, r24
    8246:	21 15       	cp	r18, r1
    8248:	31 05       	cpc	r19, r1
    824a:	41 f4       	brne	.+16     	; 0x825c <_ZN5Print5printEmi+0x18>
    824c:	ed 91       	ld	r30, X+
    824e:	fc 91       	ld	r31, X
    8250:	01 90       	ld	r0, Z+
    8252:	f0 81       	ld	r31, Z
    8254:	e0 2d       	mov	r30, r0
    8256:	64 2f       	mov	r22, r20
    8258:	09 95       	icall
    825a:	08 95       	ret
    825c:	0e 94 8a 40 	call	0x8114	; 0x8114 <_ZN5Print11printNumberEmh>
    8260:	08 95       	ret

00008262 <_ZN5Print5printEji>:
    8262:	ef 92       	push	r14
    8264:	ff 92       	push	r15
    8266:	0f 93       	push	r16
    8268:	1f 93       	push	r17
    826a:	9a 01       	movw	r18, r20
    826c:	7b 01       	movw	r14, r22
    826e:	00 e0       	ldi	r16, 0x00	; 0
    8270:	10 e0       	ldi	r17, 0x00	; 0
    8272:	b8 01       	movw	r22, r16
    8274:	a7 01       	movw	r20, r14
    8276:	0e 94 22 41 	call	0x8244	; 0x8244 <_ZN5Print5printEmi>
    827a:	1f 91       	pop	r17
    827c:	0f 91       	pop	r16
    827e:	ff 90       	pop	r15
    8280:	ef 90       	pop	r14
    8282:	08 95       	ret

00008284 <_ZN5Print5printEhi>:
    8284:	ef 92       	push	r14
    8286:	ff 92       	push	r15
    8288:	0f 93       	push	r16
    828a:	1f 93       	push	r17
    828c:	9a 01       	movw	r18, r20
    828e:	e6 2e       	mov	r14, r22
    8290:	ff 24       	eor	r15, r15
    8292:	00 e0       	ldi	r16, 0x00	; 0
    8294:	10 e0       	ldi	r17, 0x00	; 0
    8296:	b8 01       	movw	r22, r16
    8298:	a7 01       	movw	r20, r14
    829a:	0e 94 22 41 	call	0x8244	; 0x8244 <_ZN5Print5printEmi>
    829e:	1f 91       	pop	r17
    82a0:	0f 91       	pop	r16
    82a2:	ff 90       	pop	r15
    82a4:	ef 90       	pop	r14
    82a6:	08 95       	ret

000082a8 <_ZN5Print5printEli>:
    82a8:	ef 92       	push	r14
    82aa:	ff 92       	push	r15
    82ac:	0f 93       	push	r16
    82ae:	1f 93       	push	r17
    82b0:	cf 93       	push	r28
    82b2:	df 93       	push	r29
    82b4:	ec 01       	movw	r28, r24
    82b6:	7a 01       	movw	r14, r20
    82b8:	8b 01       	movw	r16, r22
    82ba:	21 15       	cp	r18, r1
    82bc:	31 05       	cpc	r19, r1
    82be:	41 f4       	brne	.+16     	; 0x82d0 <_ZN5Print5printEli+0x28>
    82c0:	e8 81       	ld	r30, Y
    82c2:	f9 81       	ldd	r31, Y+1	; 0x01
    82c4:	01 90       	ld	r0, Z+
    82c6:	f0 81       	ld	r31, Z
    82c8:	e0 2d       	mov	r30, r0
    82ca:	64 2f       	mov	r22, r20
    82cc:	09 95       	icall
    82ce:	1b c0       	rjmp	.+54     	; 0x8306 <_ZN5Print5printEli+0x5e>
    82d0:	2a 30       	cpi	r18, 0x0A	; 10
    82d2:	31 05       	cpc	r19, r1
    82d4:	b1 f4       	brne	.+44     	; 0x8302 <_ZN5Print5printEli+0x5a>
    82d6:	77 ff       	sbrs	r23, 7
    82d8:	10 c0       	rjmp	.+32     	; 0x82fa <_ZN5Print5printEli+0x52>
    82da:	4d e2       	ldi	r20, 0x2D	; 45
    82dc:	50 e0       	ldi	r21, 0x00	; 0
    82de:	60 e0       	ldi	r22, 0x00	; 0
    82e0:	70 e0       	ldi	r23, 0x00	; 0
    82e2:	20 e0       	ldi	r18, 0x00	; 0
    82e4:	30 e0       	ldi	r19, 0x00	; 0
    82e6:	0e 94 54 41 	call	0x82a8	; 0x82a8 <_ZN5Print5printEli>
    82ea:	10 95       	com	r17
    82ec:	00 95       	com	r16
    82ee:	f0 94       	com	r15
    82f0:	e0 94       	com	r14
    82f2:	e1 1c       	adc	r14, r1
    82f4:	f1 1c       	adc	r15, r1
    82f6:	01 1d       	adc	r16, r1
    82f8:	11 1d       	adc	r17, r1
    82fa:	ce 01       	movw	r24, r28
    82fc:	b8 01       	movw	r22, r16
    82fe:	a7 01       	movw	r20, r14
    8300:	2a e0       	ldi	r18, 0x0A	; 10
    8302:	0e 94 8a 40 	call	0x8114	; 0x8114 <_ZN5Print11printNumberEmh>
    8306:	df 91       	pop	r29
    8308:	cf 91       	pop	r28
    830a:	1f 91       	pop	r17
    830c:	0f 91       	pop	r16
    830e:	ff 90       	pop	r15
    8310:	ef 90       	pop	r14
    8312:	08 95       	ret

00008314 <_ZN5Print5printEii>:
    8314:	ef 92       	push	r14
    8316:	ff 92       	push	r15
    8318:	0f 93       	push	r16
    831a:	1f 93       	push	r17
    831c:	7b 01       	movw	r14, r22
    831e:	9a 01       	movw	r18, r20
    8320:	00 27       	eor	r16, r16
    8322:	f7 fc       	sbrc	r15, 7
    8324:	00 95       	com	r16
    8326:	10 2f       	mov	r17, r16
    8328:	b8 01       	movw	r22, r16
    832a:	a7 01       	movw	r20, r14
    832c:	0e 94 54 41 	call	0x82a8	; 0x82a8 <_ZN5Print5printEli>
    8330:	1f 91       	pop	r17
    8332:	0f 91       	pop	r16
    8334:	ff 90       	pop	r15
    8336:	ef 90       	pop	r14
    8338:	08 95       	ret

0000833a <_ZN5Print5printEci>:
    833a:	ef 92       	push	r14
    833c:	ff 92       	push	r15
    833e:	0f 93       	push	r16
    8340:	1f 93       	push	r17
    8342:	9a 01       	movw	r18, r20
    8344:	e6 2e       	mov	r14, r22
    8346:	ff 24       	eor	r15, r15
    8348:	00 e0       	ldi	r16, 0x00	; 0
    834a:	10 e0       	ldi	r17, 0x00	; 0
    834c:	b8 01       	movw	r22, r16
    834e:	a7 01       	movw	r20, r14
    8350:	0e 94 54 41 	call	0x82a8	; 0x82a8 <_ZN5Print5printEli>
    8354:	1f 91       	pop	r17
    8356:	0f 91       	pop	r16
    8358:	ff 90       	pop	r15
    835a:	ef 90       	pop	r14
    835c:	08 95       	ret

0000835e <_ZN5Print7printlnEv>:
    835e:	0f 93       	push	r16
    8360:	1f 93       	push	r17
    8362:	8c 01       	movw	r16, r24
    8364:	4d e0       	ldi	r20, 0x0D	; 13
    8366:	50 e0       	ldi	r21, 0x00	; 0
    8368:	60 e0       	ldi	r22, 0x00	; 0
    836a:	70 e0       	ldi	r23, 0x00	; 0
    836c:	20 e0       	ldi	r18, 0x00	; 0
    836e:	30 e0       	ldi	r19, 0x00	; 0
    8370:	0e 94 54 41 	call	0x82a8	; 0x82a8 <_ZN5Print5printEli>
    8374:	c8 01       	movw	r24, r16
    8376:	4a e0       	ldi	r20, 0x0A	; 10
    8378:	50 e0       	ldi	r21, 0x00	; 0
    837a:	60 e0       	ldi	r22, 0x00	; 0
    837c:	70 e0       	ldi	r23, 0x00	; 0
    837e:	20 e0       	ldi	r18, 0x00	; 0
    8380:	30 e0       	ldi	r19, 0x00	; 0
    8382:	0e 94 54 41 	call	0x82a8	; 0x82a8 <_ZN5Print5printEli>
    8386:	1f 91       	pop	r17
    8388:	0f 91       	pop	r16
    838a:	08 95       	ret

0000838c <_ZN5Print7printlnEmi>:
    838c:	0f 93       	push	r16
    838e:	1f 93       	push	r17
    8390:	8c 01       	movw	r16, r24
    8392:	0e 94 22 41 	call	0x8244	; 0x8244 <_ZN5Print5printEmi>
    8396:	c8 01       	movw	r24, r16
    8398:	0e 94 af 41 	call	0x835e	; 0x835e <_ZN5Print7printlnEv>
    839c:	1f 91       	pop	r17
    839e:	0f 91       	pop	r16
    83a0:	08 95       	ret

000083a2 <_ZN5Print7printlnEji>:
    83a2:	cf 92       	push	r12
    83a4:	df 92       	push	r13
    83a6:	ef 92       	push	r14
    83a8:	ff 92       	push	r15
    83aa:	0f 93       	push	r16
    83ac:	1f 93       	push	r17
    83ae:	8c 01       	movw	r16, r24
    83b0:	9a 01       	movw	r18, r20
    83b2:	6b 01       	movw	r12, r22
    83b4:	ee 24       	eor	r14, r14
    83b6:	ff 24       	eor	r15, r15
    83b8:	b7 01       	movw	r22, r14
    83ba:	a6 01       	movw	r20, r12
    83bc:	0e 94 22 41 	call	0x8244	; 0x8244 <_ZN5Print5printEmi>
    83c0:	c8 01       	movw	r24, r16
    83c2:	0e 94 af 41 	call	0x835e	; 0x835e <_ZN5Print7printlnEv>
    83c6:	1f 91       	pop	r17
    83c8:	0f 91       	pop	r16
    83ca:	ff 90       	pop	r15
    83cc:	ef 90       	pop	r14
    83ce:	df 90       	pop	r13
    83d0:	cf 90       	pop	r12
    83d2:	08 95       	ret

000083d4 <_ZN5Print7printlnEhi>:
    83d4:	cf 92       	push	r12
    83d6:	df 92       	push	r13
    83d8:	ef 92       	push	r14
    83da:	ff 92       	push	r15
    83dc:	0f 93       	push	r16
    83de:	1f 93       	push	r17
    83e0:	8c 01       	movw	r16, r24
    83e2:	9a 01       	movw	r18, r20
    83e4:	c6 2e       	mov	r12, r22
    83e6:	dd 24       	eor	r13, r13
    83e8:	ee 24       	eor	r14, r14
    83ea:	ff 24       	eor	r15, r15
    83ec:	b7 01       	movw	r22, r14
    83ee:	a6 01       	movw	r20, r12
    83f0:	0e 94 22 41 	call	0x8244	; 0x8244 <_ZN5Print5printEmi>
    83f4:	c8 01       	movw	r24, r16
    83f6:	0e 94 af 41 	call	0x835e	; 0x835e <_ZN5Print7printlnEv>
    83fa:	1f 91       	pop	r17
    83fc:	0f 91       	pop	r16
    83fe:	ff 90       	pop	r15
    8400:	ef 90       	pop	r14
    8402:	df 90       	pop	r13
    8404:	cf 90       	pop	r12
    8406:	08 95       	ret

00008408 <_ZN5Print7printlnEPKc>:
    8408:	0f 93       	push	r16
    840a:	1f 93       	push	r17
    840c:	8c 01       	movw	r16, r24
    840e:	0e 94 58 40 	call	0x80b0	; 0x80b0 <_ZN5Print5printEPKc>
    8412:	c8 01       	movw	r24, r16
    8414:	0e 94 af 41 	call	0x835e	; 0x835e <_ZN5Print7printlnEv>
    8418:	1f 91       	pop	r17
    841a:	0f 91       	pop	r16
    841c:	08 95       	ret

0000841e <_ZN5Print7printlnERK6String>:
    841e:	0f 93       	push	r16
    8420:	1f 93       	push	r17
    8422:	8c 01       	movw	r16, r24
    8424:	0e 94 60 40 	call	0x80c0	; 0x80c0 <_ZN5Print5printERK6String>
    8428:	c8 01       	movw	r24, r16
    842a:	0e 94 af 41 	call	0x835e	; 0x835e <_ZN5Print7printlnEv>
    842e:	1f 91       	pop	r17
    8430:	0f 91       	pop	r16
    8432:	08 95       	ret

00008434 <_ZN5Print7printlnEli>:
    8434:	0f 93       	push	r16
    8436:	1f 93       	push	r17
    8438:	8c 01       	movw	r16, r24
    843a:	0e 94 54 41 	call	0x82a8	; 0x82a8 <_ZN5Print5printEli>
    843e:	c8 01       	movw	r24, r16
    8440:	0e 94 af 41 	call	0x835e	; 0x835e <_ZN5Print7printlnEv>
    8444:	1f 91       	pop	r17
    8446:	0f 91       	pop	r16
    8448:	08 95       	ret

0000844a <_ZN5Print7printlnEii>:
    844a:	cf 92       	push	r12
    844c:	df 92       	push	r13
    844e:	ef 92       	push	r14
    8450:	ff 92       	push	r15
    8452:	0f 93       	push	r16
    8454:	1f 93       	push	r17
    8456:	8c 01       	movw	r16, r24
    8458:	6b 01       	movw	r12, r22
    845a:	9a 01       	movw	r18, r20
    845c:	ee 24       	eor	r14, r14
    845e:	d7 fc       	sbrc	r13, 7
    8460:	e0 94       	com	r14
    8462:	fe 2c       	mov	r15, r14
    8464:	b7 01       	movw	r22, r14
    8466:	a6 01       	movw	r20, r12
    8468:	0e 94 54 41 	call	0x82a8	; 0x82a8 <_ZN5Print5printEli>
    846c:	c8 01       	movw	r24, r16
    846e:	0e 94 af 41 	call	0x835e	; 0x835e <_ZN5Print7printlnEv>
    8472:	1f 91       	pop	r17
    8474:	0f 91       	pop	r16
    8476:	ff 90       	pop	r15
    8478:	ef 90       	pop	r14
    847a:	df 90       	pop	r13
    847c:	cf 90       	pop	r12
    847e:	08 95       	ret

00008480 <_ZN5Print7printlnEci>:
    8480:	cf 92       	push	r12
    8482:	df 92       	push	r13
    8484:	ef 92       	push	r14
    8486:	ff 92       	push	r15
    8488:	0f 93       	push	r16
    848a:	1f 93       	push	r17
    848c:	8c 01       	movw	r16, r24
    848e:	9a 01       	movw	r18, r20
    8490:	c6 2e       	mov	r12, r22
    8492:	dd 24       	eor	r13, r13
    8494:	ee 24       	eor	r14, r14
    8496:	ff 24       	eor	r15, r15
    8498:	b7 01       	movw	r22, r14
    849a:	a6 01       	movw	r20, r12
    849c:	0e 94 54 41 	call	0x82a8	; 0x82a8 <_ZN5Print5printEli>
    84a0:	c8 01       	movw	r24, r16
    84a2:	0e 94 af 41 	call	0x835e	; 0x835e <_ZN5Print7printlnEv>
    84a6:	1f 91       	pop	r17
    84a8:	0f 91       	pop	r16
    84aa:	ff 90       	pop	r15
    84ac:	ef 90       	pop	r14
    84ae:	df 90       	pop	r13
    84b0:	cf 90       	pop	r12
    84b2:	08 95       	ret

000084b4 <_ZN5Print10printFloatEdh>:
    84b4:	9f 92       	push	r9
    84b6:	af 92       	push	r10
    84b8:	bf 92       	push	r11
    84ba:	cf 92       	push	r12
    84bc:	df 92       	push	r13
    84be:	ef 92       	push	r14
    84c0:	ff 92       	push	r15
    84c2:	0f 93       	push	r16
    84c4:	1f 93       	push	r17
    84c6:	cf 93       	push	r28
    84c8:	df 93       	push	r29
    84ca:	ec 01       	movw	r28, r24
    84cc:	7a 01       	movw	r14, r20
    84ce:	8b 01       	movw	r16, r22
    84d0:	92 2e       	mov	r9, r18
    84d2:	cb 01       	movw	r24, r22
    84d4:	ba 01       	movw	r22, r20
    84d6:	20 e0       	ldi	r18, 0x00	; 0
    84d8:	30 e0       	ldi	r19, 0x00	; 0
    84da:	40 e0       	ldi	r20, 0x00	; 0
    84dc:	50 e0       	ldi	r21, 0x00	; 0
    84de:	0e 94 df 04 	call	0x9be	; 0x9be <__ltsf2>
    84e2:	88 23       	and	r24, r24
    84e4:	6c f4       	brge	.+26     	; 0x8500 <_ZN5Print10printFloatEdh+0x4c>
    84e6:	ce 01       	movw	r24, r28
    84e8:	4d e2       	ldi	r20, 0x2D	; 45
    84ea:	50 e0       	ldi	r21, 0x00	; 0
    84ec:	60 e0       	ldi	r22, 0x00	; 0
    84ee:	70 e0       	ldi	r23, 0x00	; 0
    84f0:	20 e0       	ldi	r18, 0x00	; 0
    84f2:	30 e0       	ldi	r19, 0x00	; 0
    84f4:	0e 94 54 41 	call	0x82a8	; 0x82a8 <_ZN5Print5printEli>
    84f8:	17 fb       	bst	r17, 7
    84fa:	10 95       	com	r17
    84fc:	17 f9       	bld	r17, 7
    84fe:	10 95       	com	r17
    8500:	20 e0       	ldi	r18, 0x00	; 0
    8502:	30 e0       	ldi	r19, 0x00	; 0
    8504:	40 e0       	ldi	r20, 0x00	; 0
    8506:	5f e3       	ldi	r21, 0x3F	; 63
    8508:	aa 24       	eor	r10, r10
    850a:	0b c0       	rjmp	.+22     	; 0x8522 <_ZN5Print10printFloatEdh+0x6e>
    850c:	ca 01       	movw	r24, r20
    850e:	b9 01       	movw	r22, r18
    8510:	20 e0       	ldi	r18, 0x00	; 0
    8512:	30 e0       	ldi	r19, 0x00	; 0
    8514:	40 e2       	ldi	r20, 0x20	; 32
    8516:	51 e4       	ldi	r21, 0x41	; 65
    8518:	0e 94 03 04 	call	0x806	; 0x806 <__divsf3>
    851c:	9b 01       	movw	r18, r22
    851e:	ac 01       	movw	r20, r24
    8520:	a3 94       	inc	r10
    8522:	a9 14       	cp	r10, r9
    8524:	98 f3       	brcs	.-26     	; 0x850c <_ZN5Print10printFloatEdh+0x58>
    8526:	c8 01       	movw	r24, r16
    8528:	b7 01       	movw	r22, r14
    852a:	0e 94 dc 02 	call	0x5b8	; 0x5b8 <__addsf3>
    852e:	5b 01       	movw	r10, r22
    8530:	6c 01       	movw	r12, r24
    8532:	0e 94 33 01 	call	0x266	; 0x266 <__fixunssfsi>
    8536:	7b 01       	movw	r14, r22
    8538:	8c 01       	movw	r16, r24
    853a:	ce 01       	movw	r24, r28
    853c:	b8 01       	movw	r22, r16
    853e:	a7 01       	movw	r20, r14
    8540:	2a e0       	ldi	r18, 0x0A	; 10
    8542:	30 e0       	ldi	r19, 0x00	; 0
    8544:	0e 94 22 41 	call	0x8244	; 0x8244 <_ZN5Print5printEmi>
    8548:	99 20       	and	r9, r9
    854a:	29 f0       	breq	.+10     	; 0x8556 <_ZN5Print10printFloatEdh+0xa2>
    854c:	ce 01       	movw	r24, r28
    854e:	65 e2       	ldi	r22, 0x25	; 37
    8550:	74 e0       	ldi	r23, 0x04	; 4
    8552:	0e 94 58 40 	call	0x80b0	; 0x80b0 <_ZN5Print5printEPKc>
    8556:	c8 01       	movw	r24, r16
    8558:	b7 01       	movw	r22, r14
    855a:	0e 94 c1 05 	call	0xb82	; 0xb82 <__floatunsisf>
    855e:	9b 01       	movw	r18, r22
    8560:	ac 01       	movw	r20, r24
    8562:	c6 01       	movw	r24, r12
    8564:	b5 01       	movw	r22, r10
    8566:	0e 94 ab 02 	call	0x556	; 0x556 <__subsf3>
    856a:	22 c0       	rjmp	.+68     	; 0x85b0 <_ZN5Print10printFloatEdh+0xfc>
    856c:	20 e0       	ldi	r18, 0x00	; 0
    856e:	30 e0       	ldi	r19, 0x00	; 0
    8570:	40 e2       	ldi	r20, 0x20	; 32
    8572:	51 e4       	ldi	r21, 0x41	; 65
    8574:	0e 94 09 03 	call	0x612	; 0x612 <__mulsf3>
    8578:	7b 01       	movw	r14, r22
    857a:	8c 01       	movw	r16, r24
    857c:	0e 94 6d 05 	call	0xada	; 0xada <__fixsfsi>
    8580:	5b 01       	movw	r10, r22
    8582:	6c 01       	movw	r12, r24
    8584:	cc 24       	eor	r12, r12
    8586:	b7 fc       	sbrc	r11, 7
    8588:	c0 94       	com	r12
    858a:	dc 2c       	mov	r13, r12
    858c:	ce 01       	movw	r24, r28
    858e:	b6 01       	movw	r22, r12
    8590:	a5 01       	movw	r20, r10
    8592:	2a e0       	ldi	r18, 0x0A	; 10
    8594:	30 e0       	ldi	r19, 0x00	; 0
    8596:	0e 94 54 41 	call	0x82a8	; 0x82a8 <_ZN5Print5printEli>
    859a:	c6 01       	movw	r24, r12
    859c:	b5 01       	movw	r22, r10
    859e:	0e 94 0f 05 	call	0xa1e	; 0xa1e <__floatsisf>
    85a2:	9b 01       	movw	r18, r22
    85a4:	ac 01       	movw	r20, r24
    85a6:	c8 01       	movw	r24, r16
    85a8:	b7 01       	movw	r22, r14
    85aa:	0e 94 ab 02 	call	0x556	; 0x556 <__subsf3>
    85ae:	9a 94       	dec	r9
    85b0:	99 20       	and	r9, r9
    85b2:	e1 f6       	brne	.-72     	; 0x856c <_ZN5Print10printFloatEdh+0xb8>
    85b4:	df 91       	pop	r29
    85b6:	cf 91       	pop	r28
    85b8:	1f 91       	pop	r17
    85ba:	0f 91       	pop	r16
    85bc:	ff 90       	pop	r15
    85be:	ef 90       	pop	r14
    85c0:	df 90       	pop	r13
    85c2:	cf 90       	pop	r12
    85c4:	bf 90       	pop	r11
    85c6:	af 90       	pop	r10
    85c8:	9f 90       	pop	r9
    85ca:	08 95       	ret

000085cc <_ZN5Print5printEdi>:
    85cc:	0e 94 5a 42 	call	0x84b4	; 0x84b4 <_ZN5Print10printFloatEdh>
    85d0:	08 95       	ret

000085d2 <_ZN5Print7printlnEdi>:
    85d2:	0f 93       	push	r16
    85d4:	1f 93       	push	r17
    85d6:	8c 01       	movw	r16, r24
    85d8:	0e 94 5a 42 	call	0x84b4	; 0x84b4 <_ZN5Print10printFloatEdh>
    85dc:	c8 01       	movw	r24, r16
    85de:	0e 94 af 41 	call	0x835e	; 0x835e <_ZN5Print7printlnEv>
    85e2:	1f 91       	pop	r17
    85e4:	0f 91       	pop	r16
    85e6:	08 95       	ret

000085e8 <_Z3maplllll>:
    85e8:	2f 92       	push	r2
    85ea:	3f 92       	push	r3
    85ec:	4f 92       	push	r4
    85ee:	5f 92       	push	r5
    85f0:	6f 92       	push	r6
    85f2:	7f 92       	push	r7
    85f4:	8f 92       	push	r8
    85f6:	9f 92       	push	r9
    85f8:	af 92       	push	r10
    85fa:	bf 92       	push	r11
    85fc:	cf 92       	push	r12
    85fe:	df 92       	push	r13
    8600:	ef 92       	push	r14
    8602:	ff 92       	push	r15
    8604:	0f 93       	push	r16
    8606:	1f 93       	push	r17
    8608:	df 93       	push	r29
    860a:	cf 93       	push	r28
    860c:	cd b7       	in	r28, 0x3d	; 61
    860e:	de b7       	in	r29, 0x3e	; 62
    8610:	3b 01       	movw	r6, r22
    8612:	4c 01       	movw	r8, r24
    8614:	19 01       	movw	r2, r18
    8616:	2a 01       	movw	r4, r20
    8618:	6d 89       	ldd	r22, Y+21	; 0x15
    861a:	7e 89       	ldd	r23, Y+22	; 0x16
    861c:	8f 89       	ldd	r24, Y+23	; 0x17
    861e:	98 8d       	ldd	r25, Y+24	; 0x18
    8620:	6a 19       	sub	r22, r10
    8622:	7b 09       	sbc	r23, r11
    8624:	8c 09       	sbc	r24, r12
    8626:	9d 09       	sbc	r25, r13
    8628:	62 1a       	sub	r6, r18
    862a:	73 0a       	sbc	r7, r19
    862c:	84 0a       	sbc	r8, r20
    862e:	95 0a       	sbc	r9, r21
    8630:	a4 01       	movw	r20, r8
    8632:	93 01       	movw	r18, r6
    8634:	0e 94 eb 4e 	call	0x9dd6	; 0x9dd6 <__mulsi3>
    8638:	e2 18       	sub	r14, r2
    863a:	f3 08       	sbc	r15, r3
    863c:	04 09       	sbc	r16, r4
    863e:	15 09       	sbc	r17, r5
    8640:	a8 01       	movw	r20, r16
    8642:	97 01       	movw	r18, r14
    8644:	0e 94 2c 4f 	call	0x9e58	; 0x9e58 <__divmodsi4>
    8648:	2a 0d       	add	r18, r10
    864a:	3b 1d       	adc	r19, r11
    864c:	4c 1d       	adc	r20, r12
    864e:	5d 1d       	adc	r21, r13
    8650:	b9 01       	movw	r22, r18
    8652:	ca 01       	movw	r24, r20
    8654:	cf 91       	pop	r28
    8656:	df 91       	pop	r29
    8658:	1f 91       	pop	r17
    865a:	0f 91       	pop	r16
    865c:	ff 90       	pop	r15
    865e:	ef 90       	pop	r14
    8660:	df 90       	pop	r13
    8662:	cf 90       	pop	r12
    8664:	bf 90       	pop	r11
    8666:	af 90       	pop	r10
    8668:	9f 90       	pop	r9
    866a:	8f 90       	pop	r8
    866c:	7f 90       	pop	r7
    866e:	6f 90       	pop	r6
    8670:	5f 90       	pop	r5
    8672:	4f 90       	pop	r4
    8674:	3f 90       	pop	r3
    8676:	2f 90       	pop	r2
    8678:	08 95       	ret

0000867a <_Z8makeWordj>:
    867a:	08 95       	ret

0000867c <_Z8makeWordhh>:
    867c:	70 e0       	ldi	r23, 0x00	; 0
    867e:	38 2f       	mov	r19, r24
    8680:	20 e0       	ldi	r18, 0x00	; 0
    8682:	62 2b       	or	r22, r18
    8684:	73 2b       	or	r23, r19
    8686:	cb 01       	movw	r24, r22
    8688:	08 95       	ret

0000868a <_Z6randoml>:
    868a:	ef 92       	push	r14
    868c:	ff 92       	push	r15
    868e:	0f 93       	push	r16
    8690:	1f 93       	push	r17
    8692:	7b 01       	movw	r14, r22
    8694:	8c 01       	movw	r16, r24
    8696:	61 15       	cp	r22, r1
    8698:	71 05       	cpc	r23, r1
    869a:	81 05       	cpc	r24, r1
    869c:	91 05       	cpc	r25, r1
    869e:	29 f4       	brne	.+10     	; 0x86aa <_Z6randoml+0x20>
    86a0:	20 e0       	ldi	r18, 0x00	; 0
    86a2:	30 e0       	ldi	r19, 0x00	; 0
    86a4:	40 e0       	ldi	r20, 0x00	; 0
    86a6:	50 e0       	ldi	r21, 0x00	; 0
    86a8:	0b c0       	rjmp	.+22     	; 0x86c0 <_Z6randoml+0x36>
    86aa:	0e 94 84 09 	call	0x1308	; 0x1308 <random>
    86ae:	a8 01       	movw	r20, r16
    86b0:	97 01       	movw	r18, r14
    86b2:	0e 94 2c 4f 	call	0x9e58	; 0x9e58 <__divmodsi4>
    86b6:	ac 01       	movw	r20, r24
    86b8:	cb 01       	movw	r24, r22
    86ba:	da 01       	movw	r26, r20
    86bc:	9c 01       	movw	r18, r24
    86be:	ad 01       	movw	r20, r26
    86c0:	b9 01       	movw	r22, r18
    86c2:	ca 01       	movw	r24, r20
    86c4:	1f 91       	pop	r17
    86c6:	0f 91       	pop	r16
    86c8:	ff 90       	pop	r15
    86ca:	ef 90       	pop	r14
    86cc:	08 95       	ret

000086ce <_Z6randomll>:
    86ce:	ef 92       	push	r14
    86d0:	ff 92       	push	r15
    86d2:	0f 93       	push	r16
    86d4:	1f 93       	push	r17
    86d6:	7b 01       	movw	r14, r22
    86d8:	8c 01       	movw	r16, r24
    86da:	62 17       	cp	r22, r18
    86dc:	73 07       	cpc	r23, r19
    86de:	84 07       	cpc	r24, r20
    86e0:	95 07       	cpc	r25, r21
    86e2:	64 f4       	brge	.+24     	; 0x86fc <_Z6randomll+0x2e>
    86e4:	26 1b       	sub	r18, r22
    86e6:	37 0b       	sbc	r19, r23
    86e8:	48 0b       	sbc	r20, r24
    86ea:	59 0b       	sbc	r21, r25
    86ec:	ca 01       	movw	r24, r20
    86ee:	b9 01       	movw	r22, r18
    86f0:	0e 94 45 43 	call	0x868a	; 0x868a <_Z6randoml>
    86f4:	e6 0e       	add	r14, r22
    86f6:	f7 1e       	adc	r15, r23
    86f8:	08 1f       	adc	r16, r24
    86fa:	19 1f       	adc	r17, r25
    86fc:	b7 01       	movw	r22, r14
    86fe:	c8 01       	movw	r24, r16
    8700:	1f 91       	pop	r17
    8702:	0f 91       	pop	r16
    8704:	ff 90       	pop	r15
    8706:	ef 90       	pop	r14
    8708:	08 95       	ret

0000870a <_Z10randomSeedj>:
    870a:	00 97       	sbiw	r24, 0x00	; 0
    870c:	29 f0       	breq	.+10     	; 0x8718 <_Z10randomSeedj+0xe>
    870e:	bc 01       	movw	r22, r24
    8710:	80 e0       	ldi	r24, 0x00	; 0
    8712:	90 e0       	ldi	r25, 0x00	; 0
    8714:	0e 94 89 09 	call	0x1312	; 0x1312 <srandom>
    8718:	08 95       	ret

0000871a <_ZNK6String6charAtEj>:
    871a:	fc 01       	movw	r30, r24
    871c:	01 90       	ld	r0, Z+
    871e:	f0 81       	ld	r31, Z
    8720:	e0 2d       	mov	r30, r0
    8722:	e6 0f       	add	r30, r22
    8724:	f7 1f       	adc	r31, r23
    8726:	80 81       	ld	r24, Z
    8728:	08 95       	ret

0000872a <_ZN6String9setCharAtEjc>:
    872a:	dc 01       	movw	r26, r24
    872c:	ed 91       	ld	r30, X+
    872e:	fc 91       	ld	r31, X
    8730:	11 97       	sbiw	r26, 0x01	; 1
    8732:	30 97       	sbiw	r30, 0x00	; 0
    8734:	51 f0       	breq	.+20     	; 0x874a <_ZN6String9setCharAtEjc+0x20>
    8736:	14 96       	adiw	r26, 0x04	; 4
    8738:	8d 91       	ld	r24, X+
    873a:	9c 91       	ld	r25, X
    873c:	15 97       	sbiw	r26, 0x05	; 5
    873e:	68 17       	cp	r22, r24
    8740:	79 07       	cpc	r23, r25
    8742:	18 f4       	brcc	.+6      	; 0x874a <_ZN6String9setCharAtEjc+0x20>
    8744:	e6 0f       	add	r30, r22
    8746:	f7 1f       	adc	r31, r23
    8748:	40 83       	st	Z, r20
    874a:	08 95       	ret

0000874c <_ZN6StringixEj>:
    874c:	fc 01       	movw	r30, r24
    874e:	9b 01       	movw	r18, r22
    8750:	84 81       	ldd	r24, Z+4	; 0x04
    8752:	95 81       	ldd	r25, Z+5	; 0x05
    8754:	68 17       	cp	r22, r24
    8756:	79 07       	cpc	r23, r25
    8758:	28 f4       	brcc	.+10     	; 0x8764 <_ZN6StringixEj+0x18>
    875a:	60 81       	ld	r22, Z
    875c:	71 81       	ldd	r23, Z+1	; 0x01
    875e:	61 15       	cp	r22, r1
    8760:	71 05       	cpc	r23, r1
    8762:	29 f4       	brne	.+10     	; 0x876e <_ZN6StringixEj+0x22>
    8764:	10 92 cb 09 	sts	0x09CB, r1
    8768:	6b ec       	ldi	r22, 0xCB	; 203
    876a:	79 e0       	ldi	r23, 0x09	; 9
    876c:	02 c0       	rjmp	.+4      	; 0x8772 <_ZN6StringixEj+0x26>
    876e:	62 0f       	add	r22, r18
    8770:	73 1f       	adc	r23, r19
    8772:	cb 01       	movw	r24, r22
    8774:	08 95       	ret

00008776 <_ZNK6StringixEj>:
    8776:	fc 01       	movw	r30, r24
    8778:	01 90       	ld	r0, Z+
    877a:	f0 81       	ld	r31, Z
    877c:	e0 2d       	mov	r30, r0
    877e:	e6 0f       	add	r30, r22
    8780:	f7 1f       	adc	r31, r23
    8782:	80 81       	ld	r24, Z
    8784:	08 95       	ret

00008786 <_ZN6String5toIntEv>:
    8786:	fc 01       	movw	r30, r24
    8788:	80 81       	ld	r24, Z
    878a:	91 81       	ldd	r25, Z+1	; 0x01
    878c:	0e 94 67 0a 	call	0x14ce	; 0x14ce <atol>
    8790:	08 95       	ret

00008792 <_ZN6String11toCharArrayEPcj>:
    8792:	0f 93       	push	r16
    8794:	1f 93       	push	r17
    8796:	cf 93       	push	r28
    8798:	df 93       	push	r29
    879a:	fc 01       	movw	r30, r24
    879c:	8b 01       	movw	r16, r22
    879e:	41 15       	cp	r20, r1
    87a0:	51 05       	cpc	r21, r1
    87a2:	a1 f0       	breq	.+40     	; 0x87cc <_ZN6String11toCharArrayEPcj+0x3a>
    87a4:	61 15       	cp	r22, r1
    87a6:	71 05       	cpc	r23, r1
    87a8:	89 f0       	breq	.+34     	; 0x87cc <_ZN6String11toCharArrayEPcj+0x3a>
    87aa:	84 81       	ldd	r24, Z+4	; 0x04
    87ac:	95 81       	ldd	r25, Z+5	; 0x05
    87ae:	ea 01       	movw	r28, r20
    87b0:	21 97       	sbiw	r28, 0x01	; 1
    87b2:	8c 17       	cp	r24, r28
    87b4:	9d 07       	cpc	r25, r29
    87b6:	08 f4       	brcc	.+2      	; 0x87ba <_ZN6String11toCharArrayEPcj+0x28>
    87b8:	ec 01       	movw	r28, r24
    87ba:	60 81       	ld	r22, Z
    87bc:	71 81       	ldd	r23, Z+1	; 0x01
    87be:	c8 01       	movw	r24, r16
    87c0:	ae 01       	movw	r20, r28
    87c2:	0e 94 cb 0a 	call	0x1596	; 0x1596 <strncpy>
    87c6:	c0 0f       	add	r28, r16
    87c8:	d1 1f       	adc	r29, r17
    87ca:	18 82       	st	Y, r1
    87cc:	df 91       	pop	r29
    87ce:	cf 91       	pop	r28
    87d0:	1f 91       	pop	r17
    87d2:	0f 91       	pop	r16
    87d4:	08 95       	ret

000087d6 <_ZN6String8getBytesEPhj>:
    87d6:	0f 93       	push	r16
    87d8:	1f 93       	push	r17
    87da:	cf 93       	push	r28
    87dc:	df 93       	push	r29
    87de:	fc 01       	movw	r30, r24
    87e0:	8b 01       	movw	r16, r22
    87e2:	41 15       	cp	r20, r1
    87e4:	51 05       	cpc	r21, r1
    87e6:	a1 f0       	breq	.+40     	; 0x8810 <_ZN6String8getBytesEPhj+0x3a>
    87e8:	61 15       	cp	r22, r1
    87ea:	71 05       	cpc	r23, r1
    87ec:	89 f0       	breq	.+34     	; 0x8810 <_ZN6String8getBytesEPhj+0x3a>
    87ee:	84 81       	ldd	r24, Z+4	; 0x04
    87f0:	95 81       	ldd	r25, Z+5	; 0x05
    87f2:	ea 01       	movw	r28, r20
    87f4:	21 97       	sbiw	r28, 0x01	; 1
    87f6:	8c 17       	cp	r24, r28
    87f8:	9d 07       	cpc	r25, r29
    87fa:	08 f4       	brcc	.+2      	; 0x87fe <_ZN6String8getBytesEPhj+0x28>
    87fc:	ec 01       	movw	r28, r24
    87fe:	60 81       	ld	r22, Z
    8800:	71 81       	ldd	r23, Z+1	; 0x01
    8802:	c8 01       	movw	r24, r16
    8804:	ae 01       	movw	r20, r28
    8806:	0e 94 cb 0a 	call	0x1596	; 0x1596 <strncpy>
    880a:	c0 0f       	add	r28, r16
    880c:	d1 1f       	adc	r29, r17
    880e:	18 82       	st	Y, r1
    8810:	df 91       	pop	r29
    8812:	cf 91       	pop	r28
    8814:	1f 91       	pop	r17
    8816:	0f 91       	pop	r16
    8818:	08 95       	ret
    881a:	0f 93       	push	r16
    881c:	1f 93       	push	r17
    881e:	8c 01       	movw	r16, r24
    8820:	fc 01       	movw	r30, r24
    8822:	80 81       	ld	r24, Z
    8824:	91 81       	ldd	r25, Z+1	; 0x01
    8826:	0e 94 d9 08 	call	0x11b2	; 0x11b2 <free>
    882a:	f8 01       	movw	r30, r16
    882c:	13 82       	std	Z+3, r1	; 0x03
    882e:	12 82       	std	Z+2, r1	; 0x02
    8830:	15 82       	std	Z+5, r1	; 0x05
    8832:	14 82       	std	Z+4, r1	; 0x04
    8834:	1f 91       	pop	r17
    8836:	0f 91       	pop	r16
    8838:	08 95       	ret

0000883a <_ZNK6String10startsWithERKS_j>:
    883a:	fc 01       	movw	r30, r24
    883c:	db 01       	movw	r26, r22
    883e:	14 96       	adiw	r26, 0x04	; 4
    8840:	2d 91       	ld	r18, X+
    8842:	3c 91       	ld	r19, X
    8844:	15 97       	sbiw	r26, 0x05	; 5
    8846:	84 81       	ldd	r24, Z+4	; 0x04
    8848:	95 81       	ldd	r25, Z+5	; 0x05
    884a:	82 1b       	sub	r24, r18
    884c:	93 0b       	sbc	r25, r19
    884e:	84 17       	cp	r24, r20
    8850:	95 07       	cpc	r25, r21
    8852:	10 f4       	brcc	.+4      	; 0x8858 <_ZNK6String10startsWithERKS_j+0x1e>
    8854:	80 e0       	ldi	r24, 0x00	; 0
    8856:	08 95       	ret
    8858:	80 81       	ld	r24, Z
    885a:	91 81       	ldd	r25, Z+1	; 0x01
    885c:	6d 91       	ld	r22, X+
    885e:	7c 91       	ld	r23, X
    8860:	84 0f       	add	r24, r20
    8862:	95 1f       	adc	r25, r21
    8864:	a9 01       	movw	r20, r18
    8866:	0e 94 bd 0a 	call	0x157a	; 0x157a <strncmp>
    886a:	9c 01       	movw	r18, r24
    886c:	80 e0       	ldi	r24, 0x00	; 0
    886e:	23 2b       	or	r18, r19
    8870:	09 f4       	brne	.+2      	; 0x8874 <_ZNK6String10startsWithERKS_j+0x3a>
    8872:	81 e0       	ldi	r24, 0x01	; 1
    8874:	08 95       	ret

00008876 <_ZNK6String10startsWithERKS_>:
    8876:	fc 01       	movw	r30, r24
    8878:	db 01       	movw	r26, r22
    887a:	24 81       	ldd	r18, Z+4	; 0x04
    887c:	35 81       	ldd	r19, Z+5	; 0x05
    887e:	14 96       	adiw	r26, 0x04	; 4
    8880:	8d 91       	ld	r24, X+
    8882:	9c 91       	ld	r25, X
    8884:	15 97       	sbiw	r26, 0x05	; 5
    8886:	28 17       	cp	r18, r24
    8888:	39 07       	cpc	r19, r25
    888a:	10 f4       	brcc	.+4      	; 0x8890 <_ZNK6String10startsWithERKS_+0x1a>
    888c:	80 e0       	ldi	r24, 0x00	; 0
    888e:	08 95       	ret
    8890:	cf 01       	movw	r24, r30
    8892:	40 e0       	ldi	r20, 0x00	; 0
    8894:	50 e0       	ldi	r21, 0x00	; 0
    8896:	0e 94 1d 44 	call	0x883a	; 0x883a <_ZNK6String10startsWithERKS_j>
    889a:	08 95       	ret

0000889c <_ZNK6String11lastIndexOfEcj>:
    889c:	df 92       	push	r13
    889e:	ef 92       	push	r14
    88a0:	ff 92       	push	r15
    88a2:	0f 93       	push	r16
    88a4:	1f 93       	push	r17
    88a6:	cf 93       	push	r28
    88a8:	df 93       	push	r29
    88aa:	ec 01       	movw	r28, r24
    88ac:	8c 81       	ldd	r24, Y+4	; 0x04
    88ae:	9d 81       	ldd	r25, Y+5	; 0x05
    88b0:	48 17       	cp	r20, r24
    88b2:	59 07       	cpc	r21, r25
    88b4:	b8 f4       	brcc	.+46     	; 0x88e4 <_ZNK6String11lastIndexOfEcj+0x48>
    88b6:	7a 01       	movw	r14, r20
    88b8:	08 94       	sec
    88ba:	e1 1c       	adc	r14, r1
    88bc:	f1 1c       	adc	r15, r1
    88be:	e8 81       	ld	r30, Y
    88c0:	f9 81       	ldd	r31, Y+1	; 0x01
    88c2:	ee 0d       	add	r30, r14
    88c4:	ff 1d       	adc	r31, r15
    88c6:	d0 80       	ld	r13, Z
    88c8:	10 82       	st	Z, r1
    88ca:	08 81       	ld	r16, Y
    88cc:	19 81       	ldd	r17, Y+1	; 0x01
    88ce:	c8 01       	movw	r24, r16
    88d0:	70 e0       	ldi	r23, 0x00	; 0
    88d2:	0e 94 da 0a 	call	0x15b4	; 0x15b4 <strrchr>
    88d6:	9c 01       	movw	r18, r24
    88d8:	0e 0d       	add	r16, r14
    88da:	1f 1d       	adc	r17, r15
    88dc:	f8 01       	movw	r30, r16
    88de:	d0 82       	st	Z, r13
    88e0:	00 97       	sbiw	r24, 0x00	; 0
    88e2:	19 f4       	brne	.+6      	; 0x88ea <_ZNK6String11lastIndexOfEcj+0x4e>
    88e4:	ef ef       	ldi	r30, 0xFF	; 255
    88e6:	ff ef       	ldi	r31, 0xFF	; 255
    88e8:	05 c0       	rjmp	.+10     	; 0x88f4 <_ZNK6String11lastIndexOfEcj+0x58>
    88ea:	88 81       	ld	r24, Y
    88ec:	99 81       	ldd	r25, Y+1	; 0x01
    88ee:	f9 01       	movw	r30, r18
    88f0:	e8 1b       	sub	r30, r24
    88f2:	f9 0b       	sbc	r31, r25
    88f4:	cf 01       	movw	r24, r30
    88f6:	df 91       	pop	r29
    88f8:	cf 91       	pop	r28
    88fa:	1f 91       	pop	r17
    88fc:	0f 91       	pop	r16
    88fe:	ff 90       	pop	r15
    8900:	ef 90       	pop	r14
    8902:	df 90       	pop	r13
    8904:	08 95       	ret

00008906 <_ZNK6String11lastIndexOfEc>:
    8906:	fc 01       	movw	r30, r24
    8908:	44 81       	ldd	r20, Z+4	; 0x04
    890a:	55 81       	ldd	r21, Z+5	; 0x05
    890c:	41 50       	subi	r20, 0x01	; 1
    890e:	50 40       	sbci	r21, 0x00	; 0
    8910:	0e 94 4e 44 	call	0x889c	; 0x889c <_ZNK6String11lastIndexOfEcj>
    8914:	08 95       	ret

00008916 <_ZNK6String7indexOfERKS_j>:
    8916:	cf 93       	push	r28
    8918:	df 93       	push	r29
    891a:	fc 01       	movw	r30, r24
    891c:	db 01       	movw	r26, r22
    891e:	84 81       	ldd	r24, Z+4	; 0x04
    8920:	95 81       	ldd	r25, Z+5	; 0x05
    8922:	48 17       	cp	r20, r24
    8924:	59 07       	cpc	r21, r25
    8926:	60 f4       	brcc	.+24     	; 0x8940 <_ZNK6String7indexOfERKS_j+0x2a>
    8928:	c0 81       	ld	r28, Z
    892a:	d1 81       	ldd	r29, Z+1	; 0x01
    892c:	6d 91       	ld	r22, X+
    892e:	7c 91       	ld	r23, X
    8930:	ce 01       	movw	r24, r28
    8932:	84 0f       	add	r24, r20
    8934:	95 1f       	adc	r25, r21
    8936:	0e 94 e5 0a 	call	0x15ca	; 0x15ca <strstr>
    893a:	9c 01       	movw	r18, r24
    893c:	00 97       	sbiw	r24, 0x00	; 0
    893e:	19 f4       	brne	.+6      	; 0x8946 <_ZNK6String7indexOfERKS_j+0x30>
    8940:	2f ef       	ldi	r18, 0xFF	; 255
    8942:	3f ef       	ldi	r19, 0xFF	; 255
    8944:	02 c0       	rjmp	.+4      	; 0x894a <_ZNK6String7indexOfERKS_j+0x34>
    8946:	2c 1b       	sub	r18, r28
    8948:	3d 0b       	sbc	r19, r29
    894a:	c9 01       	movw	r24, r18
    894c:	df 91       	pop	r29
    894e:	cf 91       	pop	r28
    8950:	08 95       	ret

00008952 <_ZNK6String7indexOfERKS_>:
    8952:	40 e0       	ldi	r20, 0x00	; 0
    8954:	50 e0       	ldi	r21, 0x00	; 0
    8956:	0e 94 8b 44 	call	0x8916	; 0x8916 <_ZNK6String7indexOfERKS_j>
    895a:	08 95       	ret

0000895c <_ZNK6String7indexOfEcj>:
    895c:	cf 93       	push	r28
    895e:	df 93       	push	r29
    8960:	fc 01       	movw	r30, r24
    8962:	84 81       	ldd	r24, Z+4	; 0x04
    8964:	95 81       	ldd	r25, Z+5	; 0x05
    8966:	48 17       	cp	r20, r24
    8968:	59 07       	cpc	r21, r25
    896a:	58 f4       	brcc	.+22     	; 0x8982 <_ZNK6String7indexOfEcj+0x26>
    896c:	c0 81       	ld	r28, Z
    896e:	d1 81       	ldd	r29, Z+1	; 0x01
    8970:	ce 01       	movw	r24, r28
    8972:	84 0f       	add	r24, r20
    8974:	95 1f       	adc	r25, r21
    8976:	70 e0       	ldi	r23, 0x00	; 0
    8978:	0e 94 a2 0a 	call	0x1544	; 0x1544 <strchr>
    897c:	9c 01       	movw	r18, r24
    897e:	00 97       	sbiw	r24, 0x00	; 0
    8980:	19 f4       	brne	.+6      	; 0x8988 <_ZNK6String7indexOfEcj+0x2c>
    8982:	2f ef       	ldi	r18, 0xFF	; 255
    8984:	3f ef       	ldi	r19, 0xFF	; 255
    8986:	02 c0       	rjmp	.+4      	; 0x898c <_ZNK6String7indexOfEcj+0x30>
    8988:	2c 1b       	sub	r18, r28
    898a:	3d 0b       	sbc	r19, r29
    898c:	c9 01       	movw	r24, r18
    898e:	df 91       	pop	r29
    8990:	cf 91       	pop	r28
    8992:	08 95       	ret

00008994 <_ZNK6String7indexOfEc>:
    8994:	40 e0       	ldi	r20, 0x00	; 0
    8996:	50 e0       	ldi	r21, 0x00	; 0
    8998:	0e 94 ae 44 	call	0x895c	; 0x895c <_ZNK6String7indexOfEcj>
    899c:	08 95       	ret

0000899e <_ZNK6String6equalsERKS_>:
    899e:	dc 01       	movw	r26, r24
    89a0:	fb 01       	movw	r30, r22
    89a2:	14 96       	adiw	r26, 0x04	; 4
    89a4:	2d 91       	ld	r18, X+
    89a6:	3c 91       	ld	r19, X
    89a8:	15 97       	sbiw	r26, 0x05	; 5
    89aa:	84 81       	ldd	r24, Z+4	; 0x04
    89ac:	95 81       	ldd	r25, Z+5	; 0x05
    89ae:	28 17       	cp	r18, r24
    89b0:	39 07       	cpc	r19, r25
    89b2:	11 f0       	breq	.+4      	; 0x89b8 <_ZNK6String6equalsERKS_+0x1a>
    89b4:	80 e0       	ldi	r24, 0x00	; 0
    89b6:	08 95       	ret
    89b8:	60 81       	ld	r22, Z
    89ba:	71 81       	ldd	r23, Z+1	; 0x01
    89bc:	8d 91       	ld	r24, X+
    89be:	9c 91       	ld	r25, X
    89c0:	0e 94 ad 0a 	call	0x155a	; 0x155a <strcmp>
    89c4:	9c 01       	movw	r18, r24
    89c6:	80 e0       	ldi	r24, 0x00	; 0
    89c8:	23 2b       	or	r18, r19
    89ca:	09 f4       	brne	.+2      	; 0x89ce <_ZNK6String6equalsERKS_+0x30>
    89cc:	81 e0       	ldi	r24, 0x01	; 1
    89ce:	08 95       	ret

000089d0 <_ZNK6String8endsWithERKS_>:
    89d0:	fc 01       	movw	r30, r24
    89d2:	db 01       	movw	r26, r22
    89d4:	24 81       	ldd	r18, Z+4	; 0x04
    89d6:	35 81       	ldd	r19, Z+5	; 0x05
    89d8:	14 96       	adiw	r26, 0x04	; 4
    89da:	8d 91       	ld	r24, X+
    89dc:	9c 91       	ld	r25, X
    89de:	15 97       	sbiw	r26, 0x05	; 5
    89e0:	28 17       	cp	r18, r24
    89e2:	39 07       	cpc	r19, r25
    89e4:	10 f4       	brcc	.+4      	; 0x89ea <_ZNK6String8endsWithERKS_+0x1a>
    89e6:	80 e0       	ldi	r24, 0x00	; 0
    89e8:	08 95       	ret
    89ea:	28 1b       	sub	r18, r24
    89ec:	39 0b       	sbc	r19, r25
    89ee:	80 81       	ld	r24, Z
    89f0:	91 81       	ldd	r25, Z+1	; 0x01
    89f2:	6d 91       	ld	r22, X+
    89f4:	7c 91       	ld	r23, X
    89f6:	82 0f       	add	r24, r18
    89f8:	93 1f       	adc	r25, r19
    89fa:	0e 94 ad 0a 	call	0x155a	; 0x155a <strcmp>
    89fe:	9c 01       	movw	r18, r24
    8a00:	80 e0       	ldi	r24, 0x00	; 0
    8a02:	23 2b       	or	r18, r19
    8a04:	09 f4       	brne	.+2      	; 0x8a08 <_ZNK6String8endsWithERKS_+0x38>
    8a06:	81 e0       	ldi	r24, 0x01	; 1
    8a08:	08 95       	ret

00008a0a <_ZNK6StringgeERKS_>:
    8a0a:	dc 01       	movw	r26, r24
    8a0c:	fb 01       	movw	r30, r22
    8a0e:	60 81       	ld	r22, Z
    8a10:	71 81       	ldd	r23, Z+1	; 0x01
    8a12:	8d 91       	ld	r24, X+
    8a14:	9c 91       	ld	r25, X
    8a16:	0e 94 ad 0a 	call	0x155a	; 0x155a <strcmp>
    8a1a:	29 2f       	mov	r18, r25
    8a1c:	33 27       	eor	r19, r19
    8a1e:	27 fd       	sbrc	r18, 7
    8a20:	30 95       	com	r19
    8a22:	20 95       	com	r18
    8a24:	30 95       	com	r19
    8a26:	22 27       	eor	r18, r18
    8a28:	33 0f       	add	r19, r19
    8a2a:	22 1f       	adc	r18, r18
    8a2c:	33 27       	eor	r19, r19
    8a2e:	c9 01       	movw	r24, r18
    8a30:	08 95       	ret

00008a32 <_ZNK6StringleERKS_>:
    8a32:	dc 01       	movw	r26, r24
    8a34:	fb 01       	movw	r30, r22
    8a36:	60 81       	ld	r22, Z
    8a38:	71 81       	ldd	r23, Z+1	; 0x01
    8a3a:	8d 91       	ld	r24, X+
    8a3c:	9c 91       	ld	r25, X
    8a3e:	0e 94 ad 0a 	call	0x155a	; 0x155a <strcmp>
    8a42:	40 e0       	ldi	r20, 0x00	; 0
    8a44:	50 e0       	ldi	r21, 0x00	; 0
    8a46:	18 16       	cp	r1, r24
    8a48:	19 06       	cpc	r1, r25
    8a4a:	14 f0       	brlt	.+4      	; 0x8a50 <_ZNK6StringleERKS_+0x1e>
    8a4c:	41 e0       	ldi	r20, 0x01	; 1
    8a4e:	50 e0       	ldi	r21, 0x00	; 0
    8a50:	ca 01       	movw	r24, r20
    8a52:	08 95       	ret

00008a54 <_ZNK6StringgtERKS_>:
    8a54:	dc 01       	movw	r26, r24
    8a56:	fb 01       	movw	r30, r22
    8a58:	60 81       	ld	r22, Z
    8a5a:	71 81       	ldd	r23, Z+1	; 0x01
    8a5c:	8d 91       	ld	r24, X+
    8a5e:	9c 91       	ld	r25, X
    8a60:	0e 94 ad 0a 	call	0x155a	; 0x155a <strcmp>
    8a64:	40 e0       	ldi	r20, 0x00	; 0
    8a66:	50 e0       	ldi	r21, 0x00	; 0
    8a68:	18 16       	cp	r1, r24
    8a6a:	19 06       	cpc	r1, r25
    8a6c:	14 f4       	brge	.+4      	; 0x8a72 <_ZNK6StringgtERKS_+0x1e>
    8a6e:	41 e0       	ldi	r20, 0x01	; 1
    8a70:	50 e0       	ldi	r21, 0x00	; 0
    8a72:	ca 01       	movw	r24, r20
    8a74:	08 95       	ret

00008a76 <_ZNK6StringltERKS_>:
    8a76:	dc 01       	movw	r26, r24
    8a78:	fb 01       	movw	r30, r22
    8a7a:	60 81       	ld	r22, Z
    8a7c:	71 81       	ldd	r23, Z+1	; 0x01
    8a7e:	8d 91       	ld	r24, X+
    8a80:	9c 91       	ld	r25, X
    8a82:	0e 94 ad 0a 	call	0x155a	; 0x155a <strcmp>
    8a86:	29 2f       	mov	r18, r25
    8a88:	33 27       	eor	r19, r19
    8a8a:	27 fd       	sbrc	r18, 7
    8a8c:	30 95       	com	r19
    8a8e:	22 27       	eor	r18, r18
    8a90:	33 0f       	add	r19, r19
    8a92:	22 1f       	adc	r18, r18
    8a94:	33 27       	eor	r19, r19
    8a96:	c9 01       	movw	r24, r18
    8a98:	08 95       	ret

00008a9a <_ZNK6StringneERKS_>:
    8a9a:	dc 01       	movw	r26, r24
    8a9c:	fb 01       	movw	r30, r22
    8a9e:	14 96       	adiw	r26, 0x04	; 4
    8aa0:	2d 91       	ld	r18, X+
    8aa2:	3c 91       	ld	r19, X
    8aa4:	15 97       	sbiw	r26, 0x05	; 5
    8aa6:	84 81       	ldd	r24, Z+4	; 0x04
    8aa8:	95 81       	ldd	r25, Z+5	; 0x05
    8aaa:	28 17       	cp	r18, r24
    8aac:	39 07       	cpc	r19, r25
    8aae:	51 f4       	brne	.+20     	; 0x8ac4 <_ZNK6StringneERKS_+0x2a>
    8ab0:	60 81       	ld	r22, Z
    8ab2:	71 81       	ldd	r23, Z+1	; 0x01
    8ab4:	8d 91       	ld	r24, X+
    8ab6:	9c 91       	ld	r25, X
    8ab8:	0e 94 ad 0a 	call	0x155a	; 0x155a <strcmp>
    8abc:	9c 01       	movw	r18, r24
    8abe:	80 e0       	ldi	r24, 0x00	; 0
    8ac0:	23 2b       	or	r18, r19
    8ac2:	09 f0       	breq	.+2      	; 0x8ac6 <_ZNK6StringneERKS_+0x2c>
    8ac4:	81 e0       	ldi	r24, 0x01	; 1
    8ac6:	90 e0       	ldi	r25, 0x00	; 0
    8ac8:	08 95       	ret

00008aca <_ZNK6StringeqERKS_>:
    8aca:	dc 01       	movw	r26, r24
    8acc:	fb 01       	movw	r30, r22
    8ace:	14 96       	adiw	r26, 0x04	; 4
    8ad0:	2d 91       	ld	r18, X+
    8ad2:	3c 91       	ld	r19, X
    8ad4:	15 97       	sbiw	r26, 0x05	; 5
    8ad6:	84 81       	ldd	r24, Z+4	; 0x04
    8ad8:	95 81       	ldd	r25, Z+5	; 0x05
    8ada:	28 17       	cp	r18, r24
    8adc:	39 07       	cpc	r19, r25
    8ade:	11 f0       	breq	.+4      	; 0x8ae4 <_ZNK6StringeqERKS_+0x1a>
    8ae0:	80 e0       	ldi	r24, 0x00	; 0
    8ae2:	0b c0       	rjmp	.+22     	; 0x8afa <_ZNK6StringeqERKS_+0x30>
    8ae4:	60 81       	ld	r22, Z
    8ae6:	71 81       	ldd	r23, Z+1	; 0x01
    8ae8:	8d 91       	ld	r24, X+
    8aea:	9c 91       	ld	r25, X
    8aec:	0e 94 ad 0a 	call	0x155a	; 0x155a <strcmp>
    8af0:	9c 01       	movw	r18, r24
    8af2:	80 e0       	ldi	r24, 0x00	; 0
    8af4:	23 2b       	or	r18, r19
    8af6:	09 f4       	brne	.+2      	; 0x8afa <_ZNK6StringeqERKS_+0x30>
    8af8:	81 e0       	ldi	r24, 0x01	; 1
    8afa:	90 e0       	ldi	r25, 0x00	; 0
    8afc:	08 95       	ret

00008afe <_ZNK6String9compareToERKS_>:
    8afe:	fc 01       	movw	r30, r24
    8b00:	db 01       	movw	r26, r22
    8b02:	6d 91       	ld	r22, X+
    8b04:	7c 91       	ld	r23, X
    8b06:	80 81       	ld	r24, Z
    8b08:	91 81       	ldd	r25, Z+1	; 0x01
    8b0a:	0e 94 ad 0a 	call	0x155a	; 0x155a <strcmp>
    8b0e:	08 95       	ret

00008b10 <_ZN6StringpLERKS_>:
    8b10:	0f 93       	push	r16
    8b12:	1f 93       	push	r17
    8b14:	cf 93       	push	r28
    8b16:	df 93       	push	r29
    8b18:	ec 01       	movw	r28, r24
    8b1a:	8b 01       	movw	r16, r22
    8b1c:	fb 01       	movw	r30, r22
    8b1e:	64 81       	ldd	r22, Z+4	; 0x04
    8b20:	75 81       	ldd	r23, Z+5	; 0x05
    8b22:	8c 81       	ldd	r24, Y+4	; 0x04
    8b24:	9d 81       	ldd	r25, Y+5	; 0x05
    8b26:	68 0f       	add	r22, r24
    8b28:	79 1f       	adc	r23, r25
    8b2a:	7d 83       	std	Y+5, r23	; 0x05
    8b2c:	6c 83       	std	Y+4, r22	; 0x04
    8b2e:	8a 81       	ldd	r24, Y+2	; 0x02
    8b30:	9b 81       	ldd	r25, Y+3	; 0x03
    8b32:	86 17       	cp	r24, r22
    8b34:	97 07       	cpc	r25, r23
    8b36:	b8 f4       	brcc	.+46     	; 0x8b66 <_ZN6StringpLERKS_+0x56>
    8b38:	6f 5f       	subi	r22, 0xFF	; 255
    8b3a:	7f 4f       	sbci	r23, 0xFF	; 255
    8b3c:	88 81       	ld	r24, Y
    8b3e:	99 81       	ldd	r25, Y+1	; 0x01
    8b40:	0e 94 92 09 	call	0x1324	; 0x1324 <realloc>
    8b44:	4c 81       	ldd	r20, Y+4	; 0x04
    8b46:	5d 81       	ldd	r21, Y+5	; 0x05
    8b48:	00 97       	sbiw	r24, 0x00	; 0
    8b4a:	29 f0       	breq	.+10     	; 0x8b56 <_ZN6StringpLERKS_+0x46>
    8b4c:	99 83       	std	Y+1, r25	; 0x01
    8b4e:	88 83       	st	Y, r24
    8b50:	5b 83       	std	Y+3, r21	; 0x03
    8b52:	4a 83       	std	Y+2, r20	; 0x02
    8b54:	08 c0       	rjmp	.+16     	; 0x8b66 <_ZN6StringpLERKS_+0x56>
    8b56:	f8 01       	movw	r30, r16
    8b58:	84 81       	ldd	r24, Z+4	; 0x04
    8b5a:	95 81       	ldd	r25, Z+5	; 0x05
    8b5c:	48 1b       	sub	r20, r24
    8b5e:	59 0b       	sbc	r21, r25
    8b60:	5d 83       	std	Y+5, r21	; 0x05
    8b62:	4c 83       	std	Y+4, r20	; 0x04
    8b64:	07 c0       	rjmp	.+14     	; 0x8b74 <_ZN6StringpLERKS_+0x64>
    8b66:	f8 01       	movw	r30, r16
    8b68:	60 81       	ld	r22, Z
    8b6a:	71 81       	ldd	r23, Z+1	; 0x01
    8b6c:	88 81       	ld	r24, Y
    8b6e:	99 81       	ldd	r25, Y+1	; 0x01
    8b70:	0e 94 97 0a 	call	0x152e	; 0x152e <strcat>
    8b74:	ce 01       	movw	r24, r28
    8b76:	df 91       	pop	r29
    8b78:	cf 91       	pop	r28
    8b7a:	1f 91       	pop	r17
    8b7c:	0f 91       	pop	r16
    8b7e:	08 95       	ret

00008b80 <_ZN6String6concatERKS_>:
    8b80:	0e 94 88 45 	call	0x8b10	; 0x8b10 <_ZN6StringpLERKS_>
    8b84:	08 95       	ret

00008b86 <_ZN6String9getBufferEj>:
    8b86:	cf 93       	push	r28
    8b88:	df 93       	push	r29
    8b8a:	ec 01       	movw	r28, r24
    8b8c:	cb 01       	movw	r24, r22
    8b8e:	7b 83       	std	Y+3, r23	; 0x03
    8b90:	6a 83       	std	Y+2, r22	; 0x02
    8b92:	01 96       	adiw	r24, 0x01	; 1
    8b94:	0e 94 2f 08 	call	0x105e	; 0x105e <malloc>
    8b98:	99 83       	std	Y+1, r25	; 0x01
    8b9a:	88 83       	st	Y, r24
    8b9c:	00 97       	sbiw	r24, 0x00	; 0
    8b9e:	21 f4       	brne	.+8      	; 0x8ba8 <_ZN6String9getBufferEj+0x22>
    8ba0:	1b 82       	std	Y+3, r1	; 0x03
    8ba2:	1a 82       	std	Y+2, r1	; 0x02
    8ba4:	1d 82       	std	Y+5, r1	; 0x05
    8ba6:	1c 82       	std	Y+4, r1	; 0x04
    8ba8:	df 91       	pop	r29
    8baa:	cf 91       	pop	r28
    8bac:	08 95       	ret

00008bae <_ZN6StringaSERKS_>:
    8bae:	0f 93       	push	r16
    8bb0:	1f 93       	push	r17
    8bb2:	cf 93       	push	r28
    8bb4:	df 93       	push	r29
    8bb6:	ec 01       	movw	r28, r24
    8bb8:	8b 01       	movw	r16, r22
    8bba:	86 17       	cp	r24, r22
    8bbc:	97 07       	cpc	r25, r23
    8bbe:	09 f1       	breq	.+66     	; 0x8c02 <_ZN6StringaSERKS_+0x54>
    8bc0:	fb 01       	movw	r30, r22
    8bc2:	24 81       	ldd	r18, Z+4	; 0x04
    8bc4:	35 81       	ldd	r19, Z+5	; 0x05
    8bc6:	8c 81       	ldd	r24, Y+4	; 0x04
    8bc8:	9d 81       	ldd	r25, Y+5	; 0x05
    8bca:	82 17       	cp	r24, r18
    8bcc:	93 07       	cpc	r25, r19
    8bce:	50 f4       	brcc	.+20     	; 0x8be4 <_ZN6StringaSERKS_+0x36>
    8bd0:	88 81       	ld	r24, Y
    8bd2:	99 81       	ldd	r25, Y+1	; 0x01
    8bd4:	0e 94 d9 08 	call	0x11b2	; 0x11b2 <free>
    8bd8:	f8 01       	movw	r30, r16
    8bda:	64 81       	ldd	r22, Z+4	; 0x04
    8bdc:	75 81       	ldd	r23, Z+5	; 0x05
    8bde:	ce 01       	movw	r24, r28
    8be0:	0e 94 c3 45 	call	0x8b86	; 0x8b86 <_ZN6String9getBufferEj>
    8be4:	28 81       	ld	r18, Y
    8be6:	39 81       	ldd	r19, Y+1	; 0x01
    8be8:	21 15       	cp	r18, r1
    8bea:	31 05       	cpc	r19, r1
    8bec:	51 f0       	breq	.+20     	; 0x8c02 <_ZN6StringaSERKS_+0x54>
    8bee:	f8 01       	movw	r30, r16
    8bf0:	84 81       	ldd	r24, Z+4	; 0x04
    8bf2:	95 81       	ldd	r25, Z+5	; 0x05
    8bf4:	9d 83       	std	Y+5, r25	; 0x05
    8bf6:	8c 83       	std	Y+4, r24	; 0x04
    8bf8:	60 81       	ld	r22, Z
    8bfa:	71 81       	ldd	r23, Z+1	; 0x01
    8bfc:	c9 01       	movw	r24, r18
    8bfe:	0e 94 b6 0a 	call	0x156c	; 0x156c <strcpy>
    8c02:	ce 01       	movw	r24, r28
    8c04:	df 91       	pop	r29
    8c06:	cf 91       	pop	r28
    8c08:	1f 91       	pop	r17
    8c0a:	0f 91       	pop	r16
    8c0c:	08 95       	ret

00008c0e <_ZN6StringC1Eh>:
    8c0e:	1f 93       	push	r17
    8c10:	cf 93       	push	r28
    8c12:	df 93       	push	r29
    8c14:	ec 01       	movw	r28, r24
    8c16:	16 2f       	mov	r17, r22
    8c18:	81 e0       	ldi	r24, 0x01	; 1
    8c1a:	90 e0       	ldi	r25, 0x00	; 0
    8c1c:	9d 83       	std	Y+5, r25	; 0x05
    8c1e:	8c 83       	std	Y+4, r24	; 0x04
    8c20:	ce 01       	movw	r24, r28
    8c22:	61 e0       	ldi	r22, 0x01	; 1
    8c24:	70 e0       	ldi	r23, 0x00	; 0
    8c26:	0e 94 c3 45 	call	0x8b86	; 0x8b86 <_ZN6String9getBufferEj>
    8c2a:	e8 81       	ld	r30, Y
    8c2c:	f9 81       	ldd	r31, Y+1	; 0x01
    8c2e:	30 97       	sbiw	r30, 0x00	; 0
    8c30:	21 f0       	breq	.+8      	; 0x8c3a <_ZN6StringC1Eh+0x2c>
    8c32:	10 83       	st	Z, r17
    8c34:	e8 81       	ld	r30, Y
    8c36:	f9 81       	ldd	r31, Y+1	; 0x01
    8c38:	11 82       	std	Z+1, r1	; 0x01
    8c3a:	df 91       	pop	r29
    8c3c:	cf 91       	pop	r28
    8c3e:	1f 91       	pop	r17
    8c40:	08 95       	ret

00008c42 <_ZN6StringC2Eh>:
    8c42:	1f 93       	push	r17
    8c44:	cf 93       	push	r28
    8c46:	df 93       	push	r29
    8c48:	ec 01       	movw	r28, r24
    8c4a:	16 2f       	mov	r17, r22
    8c4c:	81 e0       	ldi	r24, 0x01	; 1
    8c4e:	90 e0       	ldi	r25, 0x00	; 0
    8c50:	9d 83       	std	Y+5, r25	; 0x05
    8c52:	8c 83       	std	Y+4, r24	; 0x04
    8c54:	ce 01       	movw	r24, r28
    8c56:	61 e0       	ldi	r22, 0x01	; 1
    8c58:	70 e0       	ldi	r23, 0x00	; 0
    8c5a:	0e 94 c3 45 	call	0x8b86	; 0x8b86 <_ZN6String9getBufferEj>
    8c5e:	e8 81       	ld	r30, Y
    8c60:	f9 81       	ldd	r31, Y+1	; 0x01
    8c62:	30 97       	sbiw	r30, 0x00	; 0
    8c64:	21 f0       	breq	.+8      	; 0x8c6e <_ZN6StringC2Eh+0x2c>
    8c66:	10 83       	st	Z, r17
    8c68:	e8 81       	ld	r30, Y
    8c6a:	f9 81       	ldd	r31, Y+1	; 0x01
    8c6c:	11 82       	std	Z+1, r1	; 0x01
    8c6e:	df 91       	pop	r29
    8c70:	cf 91       	pop	r28
    8c72:	1f 91       	pop	r17
    8c74:	08 95       	ret

00008c76 <_ZN6StringC1Ec>:
    8c76:	1f 93       	push	r17
    8c78:	cf 93       	push	r28
    8c7a:	df 93       	push	r29
    8c7c:	ec 01       	movw	r28, r24
    8c7e:	16 2f       	mov	r17, r22
    8c80:	81 e0       	ldi	r24, 0x01	; 1
    8c82:	90 e0       	ldi	r25, 0x00	; 0
    8c84:	9d 83       	std	Y+5, r25	; 0x05
    8c86:	8c 83       	std	Y+4, r24	; 0x04
    8c88:	ce 01       	movw	r24, r28
    8c8a:	61 e0       	ldi	r22, 0x01	; 1
    8c8c:	70 e0       	ldi	r23, 0x00	; 0
    8c8e:	0e 94 c3 45 	call	0x8b86	; 0x8b86 <_ZN6String9getBufferEj>
    8c92:	e8 81       	ld	r30, Y
    8c94:	f9 81       	ldd	r31, Y+1	; 0x01
    8c96:	30 97       	sbiw	r30, 0x00	; 0
    8c98:	21 f0       	breq	.+8      	; 0x8ca2 <_ZN6StringC1Ec+0x2c>
    8c9a:	10 83       	st	Z, r17
    8c9c:	e8 81       	ld	r30, Y
    8c9e:	f9 81       	ldd	r31, Y+1	; 0x01
    8ca0:	11 82       	std	Z+1, r1	; 0x01
    8ca2:	df 91       	pop	r29
    8ca4:	cf 91       	pop	r28
    8ca6:	1f 91       	pop	r17
    8ca8:	08 95       	ret

00008caa <_ZN6StringC2Ec>:
    8caa:	1f 93       	push	r17
    8cac:	cf 93       	push	r28
    8cae:	df 93       	push	r29
    8cb0:	ec 01       	movw	r28, r24
    8cb2:	16 2f       	mov	r17, r22
    8cb4:	81 e0       	ldi	r24, 0x01	; 1
    8cb6:	90 e0       	ldi	r25, 0x00	; 0
    8cb8:	9d 83       	std	Y+5, r25	; 0x05
    8cba:	8c 83       	std	Y+4, r24	; 0x04
    8cbc:	ce 01       	movw	r24, r28
    8cbe:	61 e0       	ldi	r22, 0x01	; 1
    8cc0:	70 e0       	ldi	r23, 0x00	; 0
    8cc2:	0e 94 c3 45 	call	0x8b86	; 0x8b86 <_ZN6String9getBufferEj>
    8cc6:	e8 81       	ld	r30, Y
    8cc8:	f9 81       	ldd	r31, Y+1	; 0x01
    8cca:	30 97       	sbiw	r30, 0x00	; 0
    8ccc:	21 f0       	breq	.+8      	; 0x8cd6 <_ZN6StringC2Ec+0x2c>
    8cce:	10 83       	st	Z, r17
    8cd0:	e8 81       	ld	r30, Y
    8cd2:	f9 81       	ldd	r31, Y+1	; 0x01
    8cd4:	11 82       	std	Z+1, r1	; 0x01
    8cd6:	df 91       	pop	r29
    8cd8:	cf 91       	pop	r28
    8cda:	1f 91       	pop	r17
    8cdc:	08 95       	ret

00008cde <_ZN6StringC1ERKS_>:
    8cde:	0f 93       	push	r16
    8ce0:	1f 93       	push	r17
    8ce2:	cf 93       	push	r28
    8ce4:	df 93       	push	r29
    8ce6:	8c 01       	movw	r16, r24
    8ce8:	eb 01       	movw	r28, r22
    8cea:	6c 81       	ldd	r22, Y+4	; 0x04
    8cec:	7d 81       	ldd	r23, Y+5	; 0x05
    8cee:	fc 01       	movw	r30, r24
    8cf0:	75 83       	std	Z+5, r23	; 0x05
    8cf2:	64 83       	std	Z+4, r22	; 0x04
    8cf4:	0e 94 c3 45 	call	0x8b86	; 0x8b86 <_ZN6String9getBufferEj>
    8cf8:	f8 01       	movw	r30, r16
    8cfa:	80 81       	ld	r24, Z
    8cfc:	91 81       	ldd	r25, Z+1	; 0x01
    8cfe:	00 97       	sbiw	r24, 0x00	; 0
    8d00:	21 f0       	breq	.+8      	; 0x8d0a <_ZN6StringC1ERKS_+0x2c>
    8d02:	68 81       	ld	r22, Y
    8d04:	79 81       	ldd	r23, Y+1	; 0x01
    8d06:	0e 94 b6 0a 	call	0x156c	; 0x156c <strcpy>
    8d0a:	df 91       	pop	r29
    8d0c:	cf 91       	pop	r28
    8d0e:	1f 91       	pop	r17
    8d10:	0f 91       	pop	r16
    8d12:	08 95       	ret

00008d14 <_ZN6StringC2ERKS_>:
    8d14:	0f 93       	push	r16
    8d16:	1f 93       	push	r17
    8d18:	cf 93       	push	r28
    8d1a:	df 93       	push	r29
    8d1c:	8c 01       	movw	r16, r24
    8d1e:	eb 01       	movw	r28, r22
    8d20:	6c 81       	ldd	r22, Y+4	; 0x04
    8d22:	7d 81       	ldd	r23, Y+5	; 0x05
    8d24:	fc 01       	movw	r30, r24
    8d26:	75 83       	std	Z+5, r23	; 0x05
    8d28:	64 83       	std	Z+4, r22	; 0x04
    8d2a:	0e 94 c3 45 	call	0x8b86	; 0x8b86 <_ZN6String9getBufferEj>
    8d2e:	f8 01       	movw	r30, r16
    8d30:	80 81       	ld	r24, Z
    8d32:	91 81       	ldd	r25, Z+1	; 0x01
    8d34:	00 97       	sbiw	r24, 0x00	; 0
    8d36:	21 f0       	breq	.+8      	; 0x8d40 <_ZN6StringC2ERKS_+0x2c>
    8d38:	68 81       	ld	r22, Y
    8d3a:	79 81       	ldd	r23, Y+1	; 0x01
    8d3c:	0e 94 b6 0a 	call	0x156c	; 0x156c <strcpy>
    8d40:	df 91       	pop	r29
    8d42:	cf 91       	pop	r28
    8d44:	1f 91       	pop	r17
    8d46:	0f 91       	pop	r16
    8d48:	08 95       	ret

00008d4a <_ZN6StringC1Emi>:
    8d4a:	ef 92       	push	r14
    8d4c:	ff 92       	push	r15
    8d4e:	0f 93       	push	r16
    8d50:	1f 93       	push	r17
    8d52:	df 93       	push	r29
    8d54:	cf 93       	push	r28
    8d56:	cd b7       	in	r28, 0x3d	; 61
    8d58:	de b7       	in	r29, 0x3e	; 62
    8d5a:	a1 97       	sbiw	r28, 0x21	; 33
    8d5c:	0f b6       	in	r0, 0x3f	; 63
    8d5e:	f8 94       	cli
    8d60:	de bf       	out	0x3e, r29	; 62
    8d62:	0f be       	out	0x3f, r0	; 63
    8d64:	cd bf       	out	0x3d, r28	; 61
    8d66:	8c 01       	movw	r16, r24
    8d68:	cb 01       	movw	r24, r22
    8d6a:	ba 01       	movw	r22, r20
    8d6c:	7e 01       	movw	r14, r28
    8d6e:	08 94       	sec
    8d70:	e1 1c       	adc	r14, r1
    8d72:	f1 1c       	adc	r15, r1
    8d74:	a7 01       	movw	r20, r14
    8d76:	2a e0       	ldi	r18, 0x0A	; 10
    8d78:	30 e0       	ldi	r19, 0x00	; 0
    8d7a:	0e 94 69 0b 	call	0x16d2	; 0x16d2 <ultoa>
    8d7e:	f7 01       	movw	r30, r14
    8d80:	01 90       	ld	r0, Z+
    8d82:	00 20       	and	r0, r0
    8d84:	e9 f7       	brne	.-6      	; 0x8d80 <_ZN6StringC1Emi+0x36>
    8d86:	31 97       	sbiw	r30, 0x01	; 1
    8d88:	ee 19       	sub	r30, r14
    8d8a:	ff 09       	sbc	r31, r15
    8d8c:	d8 01       	movw	r26, r16
    8d8e:	15 96       	adiw	r26, 0x05	; 5
    8d90:	fc 93       	st	X, r31
    8d92:	ee 93       	st	-X, r30
    8d94:	14 97       	sbiw	r26, 0x04	; 4
    8d96:	c8 01       	movw	r24, r16
    8d98:	bf 01       	movw	r22, r30
    8d9a:	0e 94 c3 45 	call	0x8b86	; 0x8b86 <_ZN6String9getBufferEj>
    8d9e:	f8 01       	movw	r30, r16
    8da0:	80 81       	ld	r24, Z
    8da2:	91 81       	ldd	r25, Z+1	; 0x01
    8da4:	00 97       	sbiw	r24, 0x00	; 0
    8da6:	19 f0       	breq	.+6      	; 0x8dae <_ZN6StringC1Emi+0x64>
    8da8:	b7 01       	movw	r22, r14
    8daa:	0e 94 b6 0a 	call	0x156c	; 0x156c <strcpy>
    8dae:	a1 96       	adiw	r28, 0x21	; 33
    8db0:	0f b6       	in	r0, 0x3f	; 63
    8db2:	f8 94       	cli
    8db4:	de bf       	out	0x3e, r29	; 62
    8db6:	0f be       	out	0x3f, r0	; 63
    8db8:	cd bf       	out	0x3d, r28	; 61
    8dba:	cf 91       	pop	r28
    8dbc:	df 91       	pop	r29
    8dbe:	1f 91       	pop	r17
    8dc0:	0f 91       	pop	r16
    8dc2:	ff 90       	pop	r15
    8dc4:	ef 90       	pop	r14
    8dc6:	08 95       	ret

00008dc8 <_ZN6StringC2Emi>:
    8dc8:	ef 92       	push	r14
    8dca:	ff 92       	push	r15
    8dcc:	0f 93       	push	r16
    8dce:	1f 93       	push	r17
    8dd0:	df 93       	push	r29
    8dd2:	cf 93       	push	r28
    8dd4:	cd b7       	in	r28, 0x3d	; 61
    8dd6:	de b7       	in	r29, 0x3e	; 62
    8dd8:	a1 97       	sbiw	r28, 0x21	; 33
    8dda:	0f b6       	in	r0, 0x3f	; 63
    8ddc:	f8 94       	cli
    8dde:	de bf       	out	0x3e, r29	; 62
    8de0:	0f be       	out	0x3f, r0	; 63
    8de2:	cd bf       	out	0x3d, r28	; 61
    8de4:	8c 01       	movw	r16, r24
    8de6:	cb 01       	movw	r24, r22
    8de8:	ba 01       	movw	r22, r20
    8dea:	7e 01       	movw	r14, r28
    8dec:	08 94       	sec
    8dee:	e1 1c       	adc	r14, r1
    8df0:	f1 1c       	adc	r15, r1
    8df2:	a7 01       	movw	r20, r14
    8df4:	2a e0       	ldi	r18, 0x0A	; 10
    8df6:	30 e0       	ldi	r19, 0x00	; 0
    8df8:	0e 94 69 0b 	call	0x16d2	; 0x16d2 <ultoa>
    8dfc:	f7 01       	movw	r30, r14
    8dfe:	01 90       	ld	r0, Z+
    8e00:	00 20       	and	r0, r0
    8e02:	e9 f7       	brne	.-6      	; 0x8dfe <_ZN6StringC2Emi+0x36>
    8e04:	31 97       	sbiw	r30, 0x01	; 1
    8e06:	ee 19       	sub	r30, r14
    8e08:	ff 09       	sbc	r31, r15
    8e0a:	d8 01       	movw	r26, r16
    8e0c:	15 96       	adiw	r26, 0x05	; 5
    8e0e:	fc 93       	st	X, r31
    8e10:	ee 93       	st	-X, r30
    8e12:	14 97       	sbiw	r26, 0x04	; 4
    8e14:	c8 01       	movw	r24, r16
    8e16:	bf 01       	movw	r22, r30
    8e18:	0e 94 c3 45 	call	0x8b86	; 0x8b86 <_ZN6String9getBufferEj>
    8e1c:	f8 01       	movw	r30, r16
    8e1e:	80 81       	ld	r24, Z
    8e20:	91 81       	ldd	r25, Z+1	; 0x01
    8e22:	00 97       	sbiw	r24, 0x00	; 0
    8e24:	19 f0       	breq	.+6      	; 0x8e2c <_ZN6StringC2Emi+0x64>
    8e26:	b7 01       	movw	r22, r14
    8e28:	0e 94 b6 0a 	call	0x156c	; 0x156c <strcpy>
    8e2c:	a1 96       	adiw	r28, 0x21	; 33
    8e2e:	0f b6       	in	r0, 0x3f	; 63
    8e30:	f8 94       	cli
    8e32:	de bf       	out	0x3e, r29	; 62
    8e34:	0f be       	out	0x3f, r0	; 63
    8e36:	cd bf       	out	0x3d, r28	; 61
    8e38:	cf 91       	pop	r28
    8e3a:	df 91       	pop	r29
    8e3c:	1f 91       	pop	r17
    8e3e:	0f 91       	pop	r16
    8e40:	ff 90       	pop	r15
    8e42:	ef 90       	pop	r14
    8e44:	08 95       	ret

00008e46 <_ZN6StringC1Eji>:
    8e46:	ef 92       	push	r14
    8e48:	ff 92       	push	r15
    8e4a:	0f 93       	push	r16
    8e4c:	1f 93       	push	r17
    8e4e:	df 93       	push	r29
    8e50:	cf 93       	push	r28
    8e52:	cd b7       	in	r28, 0x3d	; 61
    8e54:	de b7       	in	r29, 0x3e	; 62
    8e56:	a1 97       	sbiw	r28, 0x21	; 33
    8e58:	0f b6       	in	r0, 0x3f	; 63
    8e5a:	f8 94       	cli
    8e5c:	de bf       	out	0x3e, r29	; 62
    8e5e:	0f be       	out	0x3f, r0	; 63
    8e60:	cd bf       	out	0x3d, r28	; 61
    8e62:	8c 01       	movw	r16, r24
    8e64:	9a 01       	movw	r18, r20
    8e66:	80 e0       	ldi	r24, 0x00	; 0
    8e68:	90 e0       	ldi	r25, 0x00	; 0
    8e6a:	7e 01       	movw	r14, r28
    8e6c:	08 94       	sec
    8e6e:	e1 1c       	adc	r14, r1
    8e70:	f1 1c       	adc	r15, r1
    8e72:	a7 01       	movw	r20, r14
    8e74:	0e 94 69 0b 	call	0x16d2	; 0x16d2 <ultoa>
    8e78:	f7 01       	movw	r30, r14
    8e7a:	01 90       	ld	r0, Z+
    8e7c:	00 20       	and	r0, r0
    8e7e:	e9 f7       	brne	.-6      	; 0x8e7a <_ZN6StringC1Eji+0x34>
    8e80:	31 97       	sbiw	r30, 0x01	; 1
    8e82:	ee 19       	sub	r30, r14
    8e84:	ff 09       	sbc	r31, r15
    8e86:	d8 01       	movw	r26, r16
    8e88:	15 96       	adiw	r26, 0x05	; 5
    8e8a:	fc 93       	st	X, r31
    8e8c:	ee 93       	st	-X, r30
    8e8e:	14 97       	sbiw	r26, 0x04	; 4
    8e90:	c8 01       	movw	r24, r16
    8e92:	bf 01       	movw	r22, r30
    8e94:	0e 94 c3 45 	call	0x8b86	; 0x8b86 <_ZN6String9getBufferEj>
    8e98:	f8 01       	movw	r30, r16
    8e9a:	80 81       	ld	r24, Z
    8e9c:	91 81       	ldd	r25, Z+1	; 0x01
    8e9e:	00 97       	sbiw	r24, 0x00	; 0
    8ea0:	19 f0       	breq	.+6      	; 0x8ea8 <_ZN6StringC1Eji+0x62>
    8ea2:	b7 01       	movw	r22, r14
    8ea4:	0e 94 b6 0a 	call	0x156c	; 0x156c <strcpy>
    8ea8:	a1 96       	adiw	r28, 0x21	; 33
    8eaa:	0f b6       	in	r0, 0x3f	; 63
    8eac:	f8 94       	cli
    8eae:	de bf       	out	0x3e, r29	; 62
    8eb0:	0f be       	out	0x3f, r0	; 63
    8eb2:	cd bf       	out	0x3d, r28	; 61
    8eb4:	cf 91       	pop	r28
    8eb6:	df 91       	pop	r29
    8eb8:	1f 91       	pop	r17
    8eba:	0f 91       	pop	r16
    8ebc:	ff 90       	pop	r15
    8ebe:	ef 90       	pop	r14
    8ec0:	08 95       	ret

00008ec2 <_ZN6StringC2Eji>:
    8ec2:	ef 92       	push	r14
    8ec4:	ff 92       	push	r15
    8ec6:	0f 93       	push	r16
    8ec8:	1f 93       	push	r17
    8eca:	df 93       	push	r29
    8ecc:	cf 93       	push	r28
    8ece:	cd b7       	in	r28, 0x3d	; 61
    8ed0:	de b7       	in	r29, 0x3e	; 62
    8ed2:	a1 97       	sbiw	r28, 0x21	; 33
    8ed4:	0f b6       	in	r0, 0x3f	; 63
    8ed6:	f8 94       	cli
    8ed8:	de bf       	out	0x3e, r29	; 62
    8eda:	0f be       	out	0x3f, r0	; 63
    8edc:	cd bf       	out	0x3d, r28	; 61
    8ede:	8c 01       	movw	r16, r24
    8ee0:	9a 01       	movw	r18, r20
    8ee2:	80 e0       	ldi	r24, 0x00	; 0
    8ee4:	90 e0       	ldi	r25, 0x00	; 0
    8ee6:	7e 01       	movw	r14, r28
    8ee8:	08 94       	sec
    8eea:	e1 1c       	adc	r14, r1
    8eec:	f1 1c       	adc	r15, r1
    8eee:	a7 01       	movw	r20, r14
    8ef0:	0e 94 69 0b 	call	0x16d2	; 0x16d2 <ultoa>
    8ef4:	f7 01       	movw	r30, r14
    8ef6:	01 90       	ld	r0, Z+
    8ef8:	00 20       	and	r0, r0
    8efa:	e9 f7       	brne	.-6      	; 0x8ef6 <_ZN6StringC2Eji+0x34>
    8efc:	31 97       	sbiw	r30, 0x01	; 1
    8efe:	ee 19       	sub	r30, r14
    8f00:	ff 09       	sbc	r31, r15
    8f02:	d8 01       	movw	r26, r16
    8f04:	15 96       	adiw	r26, 0x05	; 5
    8f06:	fc 93       	st	X, r31
    8f08:	ee 93       	st	-X, r30
    8f0a:	14 97       	sbiw	r26, 0x04	; 4
    8f0c:	c8 01       	movw	r24, r16
    8f0e:	bf 01       	movw	r22, r30
    8f10:	0e 94 c3 45 	call	0x8b86	; 0x8b86 <_ZN6String9getBufferEj>
    8f14:	f8 01       	movw	r30, r16
    8f16:	80 81       	ld	r24, Z
    8f18:	91 81       	ldd	r25, Z+1	; 0x01
    8f1a:	00 97       	sbiw	r24, 0x00	; 0
    8f1c:	19 f0       	breq	.+6      	; 0x8f24 <_ZN6StringC2Eji+0x62>
    8f1e:	b7 01       	movw	r22, r14
    8f20:	0e 94 b6 0a 	call	0x156c	; 0x156c <strcpy>
    8f24:	a1 96       	adiw	r28, 0x21	; 33
    8f26:	0f b6       	in	r0, 0x3f	; 63
    8f28:	f8 94       	cli
    8f2a:	de bf       	out	0x3e, r29	; 62
    8f2c:	0f be       	out	0x3f, r0	; 63
    8f2e:	cd bf       	out	0x3d, r28	; 61
    8f30:	cf 91       	pop	r28
    8f32:	df 91       	pop	r29
    8f34:	1f 91       	pop	r17
    8f36:	0f 91       	pop	r16
    8f38:	ff 90       	pop	r15
    8f3a:	ef 90       	pop	r14
    8f3c:	08 95       	ret

00008f3e <_ZN6StringC1EPKc>:
    8f3e:	0f 93       	push	r16
    8f40:	1f 93       	push	r17
    8f42:	cf 93       	push	r28
    8f44:	df 93       	push	r29
    8f46:	8c 01       	movw	r16, r24
    8f48:	eb 01       	movw	r28, r22
    8f4a:	61 15       	cp	r22, r1
    8f4c:	71 05       	cpc	r23, r1
    8f4e:	11 f4       	brne	.+4      	; 0x8f54 <_ZN6StringC1EPKc+0x16>
    8f50:	c7 e2       	ldi	r28, 0x27	; 39
    8f52:	d4 e0       	ldi	r29, 0x04	; 4
    8f54:	fe 01       	movw	r30, r28
    8f56:	01 90       	ld	r0, Z+
    8f58:	00 20       	and	r0, r0
    8f5a:	e9 f7       	brne	.-6      	; 0x8f56 <_ZN6StringC1EPKc+0x18>
    8f5c:	31 97       	sbiw	r30, 0x01	; 1
    8f5e:	ec 1b       	sub	r30, r28
    8f60:	fd 0b       	sbc	r31, r29
    8f62:	d8 01       	movw	r26, r16
    8f64:	15 96       	adiw	r26, 0x05	; 5
    8f66:	fc 93       	st	X, r31
    8f68:	ee 93       	st	-X, r30
    8f6a:	14 97       	sbiw	r26, 0x04	; 4
    8f6c:	c8 01       	movw	r24, r16
    8f6e:	bf 01       	movw	r22, r30
    8f70:	0e 94 c3 45 	call	0x8b86	; 0x8b86 <_ZN6String9getBufferEj>
    8f74:	f8 01       	movw	r30, r16
    8f76:	80 81       	ld	r24, Z
    8f78:	91 81       	ldd	r25, Z+1	; 0x01
    8f7a:	00 97       	sbiw	r24, 0x00	; 0
    8f7c:	19 f0       	breq	.+6      	; 0x8f84 <_ZN6StringC1EPKc+0x46>
    8f7e:	be 01       	movw	r22, r28
    8f80:	0e 94 b6 0a 	call	0x156c	; 0x156c <strcpy>
    8f84:	df 91       	pop	r29
    8f86:	cf 91       	pop	r28
    8f88:	1f 91       	pop	r17
    8f8a:	0f 91       	pop	r16
    8f8c:	08 95       	ret

00008f8e <_ZNK6String11toUpperCaseEv>:
    8f8e:	af 92       	push	r10
    8f90:	bf 92       	push	r11
    8f92:	cf 92       	push	r12
    8f94:	df 92       	push	r13
    8f96:	ef 92       	push	r14
    8f98:	ff 92       	push	r15
    8f9a:	0f 93       	push	r16
    8f9c:	1f 93       	push	r17
    8f9e:	cf 93       	push	r28
    8fa0:	df 93       	push	r29
    8fa2:	b8 2e       	mov	r11, r24
    8fa4:	a9 2e       	mov	r10, r25
    8fa6:	6b 01       	movw	r12, r22
    8fa8:	c8 2f       	mov	r28, r24
    8faa:	d9 2f       	mov	r29, r25
    8fac:	fb 01       	movw	r30, r22
    8fae:	60 81       	ld	r22, Z
    8fb0:	71 81       	ldd	r23, Z+1	; 0x01
    8fb2:	ce 01       	movw	r24, r28
    8fb4:	0e 94 9f 47 	call	0x8f3e	; 0x8f3e <_ZN6StringC1EPKc>
    8fb8:	ee 24       	eor	r14, r14
    8fba:	ff 24       	eor	r15, r15
    8fbc:	0e c0       	rjmp	.+28     	; 0x8fda <_ZNK6String11toUpperCaseEv+0x4c>
    8fbe:	08 81       	ld	r16, Y
    8fc0:	19 81       	ldd	r17, Y+1	; 0x01
    8fc2:	0e 0d       	add	r16, r14
    8fc4:	1f 1d       	adc	r17, r15
    8fc6:	f8 01       	movw	r30, r16
    8fc8:	80 81       	ld	r24, Z
    8fca:	90 e0       	ldi	r25, 0x00	; 0
    8fcc:	0e 94 94 4f 	call	0x9f28	; 0x9f28 <toupper>
    8fd0:	f8 01       	movw	r30, r16
    8fd2:	80 83       	st	Z, r24
    8fd4:	08 94       	sec
    8fd6:	e1 1c       	adc	r14, r1
    8fd8:	f1 1c       	adc	r15, r1
    8fda:	f6 01       	movw	r30, r12
    8fdc:	84 81       	ldd	r24, Z+4	; 0x04
    8fde:	95 81       	ldd	r25, Z+5	; 0x05
    8fe0:	e8 16       	cp	r14, r24
    8fe2:	f9 06       	cpc	r15, r25
    8fe4:	60 f3       	brcs	.-40     	; 0x8fbe <_ZNK6String11toUpperCaseEv+0x30>
    8fe6:	8b 2d       	mov	r24, r11
    8fe8:	9a 2d       	mov	r25, r10
    8fea:	df 91       	pop	r29
    8fec:	cf 91       	pop	r28
    8fee:	1f 91       	pop	r17
    8ff0:	0f 91       	pop	r16
    8ff2:	ff 90       	pop	r15
    8ff4:	ef 90       	pop	r14
    8ff6:	df 90       	pop	r13
    8ff8:	cf 90       	pop	r12
    8ffa:	bf 90       	pop	r11
    8ffc:	af 90       	pop	r10
    8ffe:	08 95       	ret

00009000 <_ZNK6String11toLowerCaseEv>:
    9000:	af 92       	push	r10
    9002:	bf 92       	push	r11
    9004:	cf 92       	push	r12
    9006:	df 92       	push	r13
    9008:	ef 92       	push	r14
    900a:	ff 92       	push	r15
    900c:	0f 93       	push	r16
    900e:	1f 93       	push	r17
    9010:	cf 93       	push	r28
    9012:	df 93       	push	r29
    9014:	b8 2e       	mov	r11, r24
    9016:	a9 2e       	mov	r10, r25
    9018:	6b 01       	movw	r12, r22
    901a:	c8 2f       	mov	r28, r24
    901c:	d9 2f       	mov	r29, r25
    901e:	fb 01       	movw	r30, r22
    9020:	60 81       	ld	r22, Z
    9022:	71 81       	ldd	r23, Z+1	; 0x01
    9024:	ce 01       	movw	r24, r28
    9026:	0e 94 9f 47 	call	0x8f3e	; 0x8f3e <_ZN6StringC1EPKc>
    902a:	ee 24       	eor	r14, r14
    902c:	ff 24       	eor	r15, r15
    902e:	0e c0       	rjmp	.+28     	; 0x904c <_ZNK6String11toLowerCaseEv+0x4c>
    9030:	08 81       	ld	r16, Y
    9032:	19 81       	ldd	r17, Y+1	; 0x01
    9034:	0e 0d       	add	r16, r14
    9036:	1f 1d       	adc	r17, r15
    9038:	f8 01       	movw	r30, r16
    903a:	80 81       	ld	r24, Z
    903c:	90 e0       	ldi	r25, 0x00	; 0
    903e:	0e 94 8c 4f 	call	0x9f18	; 0x9f18 <tolower>
    9042:	f8 01       	movw	r30, r16
    9044:	80 83       	st	Z, r24
    9046:	08 94       	sec
    9048:	e1 1c       	adc	r14, r1
    904a:	f1 1c       	adc	r15, r1
    904c:	f6 01       	movw	r30, r12
    904e:	84 81       	ldd	r24, Z+4	; 0x04
    9050:	95 81       	ldd	r25, Z+5	; 0x05
    9052:	e8 16       	cp	r14, r24
    9054:	f9 06       	cpc	r15, r25
    9056:	60 f3       	brcs	.-40     	; 0x9030 <_ZNK6String11toLowerCaseEv+0x30>
    9058:	8b 2d       	mov	r24, r11
    905a:	9a 2d       	mov	r25, r10
    905c:	df 91       	pop	r29
    905e:	cf 91       	pop	r28
    9060:	1f 91       	pop	r17
    9062:	0f 91       	pop	r16
    9064:	ff 90       	pop	r15
    9066:	ef 90       	pop	r14
    9068:	df 90       	pop	r13
    906a:	cf 90       	pop	r12
    906c:	bf 90       	pop	r11
    906e:	af 90       	pop	r10
    9070:	08 95       	ret

00009072 <_ZNK6String16equalsIgnoreCaseERKS_>:
    9072:	ef 92       	push	r14
    9074:	ff 92       	push	r15
    9076:	0f 93       	push	r16
    9078:	1f 93       	push	r17
    907a:	df 93       	push	r29
    907c:	cf 93       	push	r28
    907e:	cd b7       	in	r28, 0x3d	; 61
    9080:	de b7       	in	r29, 0x3e	; 62
    9082:	2c 97       	sbiw	r28, 0x0c	; 12
    9084:	0f b6       	in	r0, 0x3f	; 63
    9086:	f8 94       	cli
    9088:	de bf       	out	0x3e, r29	; 62
    908a:	0f be       	out	0x3f, r0	; 63
    908c:	cd bf       	out	0x3d, r28	; 61
    908e:	fc 01       	movw	r30, r24
    9090:	7b 01       	movw	r14, r22
    9092:	86 17       	cp	r24, r22
    9094:	97 07       	cpc	r25, r23
    9096:	11 f4       	brne	.+4      	; 0x909c <_ZNK6String16equalsIgnoreCaseERKS_+0x2a>
    9098:	01 e0       	ldi	r16, 0x01	; 1
    909a:	29 c0       	rjmp	.+82     	; 0x90ee <_ZNK6String16equalsIgnoreCaseERKS_+0x7c>
    909c:	24 81       	ldd	r18, Z+4	; 0x04
    909e:	35 81       	ldd	r19, Z+5	; 0x05
    90a0:	db 01       	movw	r26, r22
    90a2:	14 96       	adiw	r26, 0x04	; 4
    90a4:	8d 91       	ld	r24, X+
    90a6:	9c 91       	ld	r25, X
    90a8:	15 97       	sbiw	r26, 0x05	; 5
    90aa:	28 17       	cp	r18, r24
    90ac:	39 07       	cpc	r19, r25
    90ae:	11 f0       	breq	.+4      	; 0x90b4 <_ZNK6String16equalsIgnoreCaseERKS_+0x42>
    90b0:	00 e0       	ldi	r16, 0x00	; 0
    90b2:	1d c0       	rjmp	.+58     	; 0x90ee <_ZNK6String16equalsIgnoreCaseERKS_+0x7c>
    90b4:	ce 01       	movw	r24, r28
    90b6:	01 96       	adiw	r24, 0x01	; 1
    90b8:	bf 01       	movw	r22, r30
    90ba:	0e 94 00 48 	call	0x9000	; 0x9000 <_ZNK6String11toLowerCaseEv>
    90be:	09 81       	ldd	r16, Y+1	; 0x01
    90c0:	1a 81       	ldd	r17, Y+2	; 0x02
    90c2:	ce 01       	movw	r24, r28
    90c4:	07 96       	adiw	r24, 0x07	; 7
    90c6:	b7 01       	movw	r22, r14
    90c8:	0e 94 00 48 	call	0x9000	; 0x9000 <_ZNK6String11toLowerCaseEv>
    90cc:	6f 81       	ldd	r22, Y+7	; 0x07
    90ce:	78 85       	ldd	r23, Y+8	; 0x08
    90d0:	c8 01       	movw	r24, r16
    90d2:	0e 94 ad 0a 	call	0x155a	; 0x155a <strcmp>
    90d6:	00 e0       	ldi	r16, 0x00	; 0
    90d8:	00 97       	sbiw	r24, 0x00	; 0
    90da:	09 f4       	brne	.+2      	; 0x90de <_ZNK6String16equalsIgnoreCaseERKS_+0x6c>
    90dc:	01 e0       	ldi	r16, 0x01	; 1
    90de:	ce 01       	movw	r24, r28
    90e0:	07 96       	adiw	r24, 0x07	; 7
    90e2:	0e 94 d9 0b 	call	0x17b2	; 0x17b2 <_ZN6StringD1Ev>
    90e6:	ce 01       	movw	r24, r28
    90e8:	01 96       	adiw	r24, 0x01	; 1
    90ea:	0e 94 d9 0b 	call	0x17b2	; 0x17b2 <_ZN6StringD1Ev>
    90ee:	80 2f       	mov	r24, r16
    90f0:	2c 96       	adiw	r28, 0x0c	; 12
    90f2:	0f b6       	in	r0, 0x3f	; 63
    90f4:	f8 94       	cli
    90f6:	de bf       	out	0x3e, r29	; 62
    90f8:	0f be       	out	0x3f, r0	; 63
    90fa:	cd bf       	out	0x3d, r28	; 61
    90fc:	cf 91       	pop	r28
    90fe:	df 91       	pop	r29
    9100:	1f 91       	pop	r17
    9102:	0f 91       	pop	r16
    9104:	ff 90       	pop	r15
    9106:	ef 90       	pop	r14
    9108:	08 95       	ret

0000910a <_ZNK6String9substringEjj>:
    910a:	cf 92       	push	r12
    910c:	df 92       	push	r13
    910e:	ef 92       	push	r14
    9110:	ff 92       	push	r15
    9112:	1f 93       	push	r17
    9114:	cf 93       	push	r28
    9116:	df 93       	push	r29
    9118:	6c 01       	movw	r12, r24
    911a:	7b 01       	movw	r14, r22
    911c:	b9 01       	movw	r22, r18
    911e:	24 17       	cp	r18, r20
    9120:	35 07       	cpc	r19, r21
    9122:	10 f4       	brcc	.+4      	; 0x9128 <_ZNK6String9substringEjj+0x1e>
    9124:	ba 01       	movw	r22, r20
    9126:	a9 01       	movw	r20, r18
    9128:	d7 01       	movw	r26, r14
    912a:	14 96       	adiw	r26, 0x04	; 4
    912c:	8d 91       	ld	r24, X+
    912e:	9c 91       	ld	r25, X
    9130:	15 97       	sbiw	r26, 0x05	; 5
    9132:	eb 01       	movw	r28, r22
    9134:	86 17       	cp	r24, r22
    9136:	97 07       	cpc	r25, r23
    9138:	08 f4       	brcc	.+2      	; 0x913c <_ZNK6String9substringEjj+0x32>
    913a:	ec 01       	movw	r28, r24
    913c:	d7 01       	movw	r26, r14
    913e:	ed 91       	ld	r30, X+
    9140:	fc 91       	ld	r31, X
    9142:	11 97       	sbiw	r26, 0x01	; 1
    9144:	ec 0f       	add	r30, r28
    9146:	fd 1f       	adc	r31, r29
    9148:	10 81       	ld	r17, Z
    914a:	10 82       	st	Z, r1
    914c:	6d 91       	ld	r22, X+
    914e:	7c 91       	ld	r23, X
    9150:	64 0f       	add	r22, r20
    9152:	75 1f       	adc	r23, r21
    9154:	c6 01       	movw	r24, r12
    9156:	0e 94 9f 47 	call	0x8f3e	; 0x8f3e <_ZN6StringC1EPKc>
    915a:	d7 01       	movw	r26, r14
    915c:	ed 91       	ld	r30, X+
    915e:	fc 91       	ld	r31, X
    9160:	ec 0f       	add	r30, r28
    9162:	fd 1f       	adc	r31, r29
    9164:	10 83       	st	Z, r17
    9166:	c6 01       	movw	r24, r12
    9168:	df 91       	pop	r29
    916a:	cf 91       	pop	r28
    916c:	1f 91       	pop	r17
    916e:	ff 90       	pop	r15
    9170:	ef 90       	pop	r14
    9172:	df 90       	pop	r13
    9174:	cf 90       	pop	r12
    9176:	08 95       	ret

00009178 <_ZNK6String9substringEj>:
    9178:	0f 93       	push	r16
    917a:	1f 93       	push	r17
    917c:	8c 01       	movw	r16, r24
    917e:	fb 01       	movw	r30, r22
    9180:	24 81       	ldd	r18, Z+4	; 0x04
    9182:	35 81       	ldd	r19, Z+5	; 0x05
    9184:	0e 94 85 48 	call	0x910a	; 0x910a <_ZNK6String9substringEjj>
    9188:	c8 01       	movw	r24, r16
    918a:	1f 91       	pop	r17
    918c:	0f 91       	pop	r16
    918e:	08 95       	ret

00009190 <_ZNK6String11lastIndexOfERKS_j>:
    9190:	8f 92       	push	r8
    9192:	9f 92       	push	r9
    9194:	af 92       	push	r10
    9196:	bf 92       	push	r11
    9198:	cf 92       	push	r12
    919a:	df 92       	push	r13
    919c:	ef 92       	push	r14
    919e:	ff 92       	push	r15
    91a0:	0f 93       	push	r16
    91a2:	1f 93       	push	r17
    91a4:	df 93       	push	r29
    91a6:	cf 93       	push	r28
    91a8:	00 d0       	rcall	.+0      	; 0x91aa <_ZNK6String11lastIndexOfERKS_j+0x1a>
    91aa:	00 d0       	rcall	.+0      	; 0x91ac <_ZNK6String11lastIndexOfERKS_j+0x1c>
    91ac:	00 d0       	rcall	.+0      	; 0x91ae <_ZNK6String11lastIndexOfERKS_j+0x1e>
    91ae:	cd b7       	in	r28, 0x3d	; 61
    91b0:	de b7       	in	r29, 0x3e	; 62
    91b2:	5c 01       	movw	r10, r24
    91b4:	6b 01       	movw	r12, r22
    91b6:	db 01       	movw	r26, r22
    91b8:	14 96       	adiw	r26, 0x04	; 4
    91ba:	8d 91       	ld	r24, X+
    91bc:	9c 91       	ld	r25, X
    91be:	15 97       	sbiw	r26, 0x05	; 5
    91c0:	00 97       	sbiw	r24, 0x00	; 0
    91c2:	a1 f1       	breq	.+104    	; 0x922c <_ZNK6String11lastIndexOfERKS_j+0x9c>
    91c4:	01 97       	sbiw	r24, 0x01	; 1
    91c6:	48 17       	cp	r20, r24
    91c8:	59 07       	cpc	r21, r25
    91ca:	80 f1       	brcs	.+96     	; 0x922c <_ZNK6String11lastIndexOfERKS_j+0x9c>
    91cc:	f5 01       	movw	r30, r10
    91ce:	84 81       	ldd	r24, Z+4	; 0x04
    91d0:	95 81       	ldd	r25, Z+5	; 0x05
    91d2:	48 17       	cp	r20, r24
    91d4:	59 07       	cpc	r21, r25
    91d6:	50 f5       	brcc	.+84     	; 0x922c <_ZNK6String11lastIndexOfERKS_j+0x9c>
    91d8:	ed 91       	ld	r30, X+
    91da:	fc 91       	ld	r31, X
    91dc:	00 81       	ld	r16, Z
    91de:	7a 01       	movw	r14, r20
    91e0:	4e 01       	movw	r8, r28
    91e2:	08 94       	sec
    91e4:	81 1c       	adc	r8, r1
    91e6:	91 1c       	adc	r9, r1
    91e8:	1f c0       	rjmp	.+62     	; 0x9228 <_ZNK6String11lastIndexOfERKS_j+0x98>
    91ea:	d5 01       	movw	r26, r10
    91ec:	ed 91       	ld	r30, X+
    91ee:	fc 91       	ld	r31, X
    91f0:	ee 0d       	add	r30, r14
    91f2:	ff 1d       	adc	r31, r15
    91f4:	80 81       	ld	r24, Z
    91f6:	80 17       	cp	r24, r16
    91f8:	a1 f4       	brne	.+40     	; 0x9222 <_ZNK6String11lastIndexOfERKS_j+0x92>
    91fa:	f6 01       	movw	r30, r12
    91fc:	24 81       	ldd	r18, Z+4	; 0x04
    91fe:	35 81       	ldd	r19, Z+5	; 0x05
    9200:	2e 0d       	add	r18, r14
    9202:	3f 1d       	adc	r19, r15
    9204:	c4 01       	movw	r24, r8
    9206:	b5 01       	movw	r22, r10
    9208:	a7 01       	movw	r20, r14
    920a:	0e 94 85 48 	call	0x910a	; 0x910a <_ZNK6String9substringEjj>
    920e:	c4 01       	movw	r24, r8
    9210:	b6 01       	movw	r22, r12
    9212:	0e 94 cf 44 	call	0x899e	; 0x899e <_ZNK6String6equalsERKS_>
    9216:	18 2f       	mov	r17, r24
    9218:	c4 01       	movw	r24, r8
    921a:	0e 94 d9 0b 	call	0x17b2	; 0x17b2 <_ZN6StringD1Ev>
    921e:	11 23       	and	r17, r17
    9220:	41 f4       	brne	.+16     	; 0x9232 <_ZNK6String11lastIndexOfERKS_j+0xa2>
    9222:	08 94       	sec
    9224:	e1 08       	sbc	r14, r1
    9226:	f1 08       	sbc	r15, r1
    9228:	f7 fe       	sbrs	r15, 7
    922a:	df cf       	rjmp	.-66     	; 0x91ea <_ZNK6String11lastIndexOfERKS_j+0x5a>
    922c:	ee 24       	eor	r14, r14
    922e:	ea 94       	dec	r14
    9230:	fe 2c       	mov	r15, r14
    9232:	c7 01       	movw	r24, r14
    9234:	26 96       	adiw	r28, 0x06	; 6
    9236:	0f b6       	in	r0, 0x3f	; 63
    9238:	f8 94       	cli
    923a:	de bf       	out	0x3e, r29	; 62
    923c:	0f be       	out	0x3f, r0	; 63
    923e:	cd bf       	out	0x3d, r28	; 61
    9240:	cf 91       	pop	r28
    9242:	df 91       	pop	r29
    9244:	1f 91       	pop	r17
    9246:	0f 91       	pop	r16
    9248:	ff 90       	pop	r15
    924a:	ef 90       	pop	r14
    924c:	df 90       	pop	r13
    924e:	cf 90       	pop	r12
    9250:	bf 90       	pop	r11
    9252:	af 90       	pop	r10
    9254:	9f 90       	pop	r9
    9256:	8f 90       	pop	r8
    9258:	08 95       	ret

0000925a <_ZNK6String11lastIndexOfERKS_>:
    925a:	fc 01       	movw	r30, r24
    925c:	db 01       	movw	r26, r22
    925e:	44 81       	ldd	r20, Z+4	; 0x04
    9260:	55 81       	ldd	r21, Z+5	; 0x05
    9262:	14 96       	adiw	r26, 0x04	; 4
    9264:	8d 91       	ld	r24, X+
    9266:	9c 91       	ld	r25, X
    9268:	15 97       	sbiw	r26, 0x05	; 5
    926a:	48 1b       	sub	r20, r24
    926c:	59 0b       	sbc	r21, r25
    926e:	cf 01       	movw	r24, r30
    9270:	0e 94 c8 48 	call	0x9190	; 0x9190 <_ZNK6String11lastIndexOfERKS_j>
    9274:	08 95       	ret

00009276 <_ZNK6String4trimEv>:
    9276:	af 92       	push	r10
    9278:	bf 92       	push	r11
    927a:	cf 92       	push	r12
    927c:	df 92       	push	r13
    927e:	ef 92       	push	r14
    9280:	ff 92       	push	r15
    9282:	0f 93       	push	r16
    9284:	1f 93       	push	r17
    9286:	df 93       	push	r29
    9288:	cf 93       	push	r28
    928a:	00 d0       	rcall	.+0      	; 0x928c <_ZNK6String4trimEv+0x16>
    928c:	00 d0       	rcall	.+0      	; 0x928e <_ZNK6String4trimEv+0x18>
    928e:	00 d0       	rcall	.+0      	; 0x9290 <_ZNK6String4trimEv+0x1a>
    9290:	cd b7       	in	r28, 0x3d	; 61
    9292:	de b7       	in	r29, 0x3e	; 62
    9294:	5c 01       	movw	r10, r24
    9296:	8b 01       	movw	r16, r22
    9298:	db 01       	movw	r26, r22
    929a:	6d 91       	ld	r22, X+
    929c:	7c 91       	ld	r23, X
    929e:	61 15       	cp	r22, r1
    92a0:	71 05       	cpc	r23, r1
    92a2:	21 f4       	brne	.+8      	; 0x92ac <_ZNK6String4trimEv+0x36>
    92a4:	b8 01       	movw	r22, r16
    92a6:	0e 94 6f 46 	call	0x8cde	; 0x8cde <_ZN6StringC1ERKS_>
    92aa:	3e c0       	rjmp	.+124    	; 0x9328 <_ZNK6String4trimEv+0xb2>
    92ac:	ce 01       	movw	r24, r28
    92ae:	01 96       	adiw	r24, 0x01	; 1
    92b0:	0e 94 9f 47 	call	0x8f3e	; 0x8f3e <_ZN6StringC1EPKc>
    92b4:	f8 01       	movw	r30, r16
    92b6:	e4 80       	ldd	r14, Z+4	; 0x04
    92b8:	f5 80       	ldd	r15, Z+5	; 0x05
    92ba:	cc 24       	eor	r12, r12
    92bc:	dd 24       	eor	r13, r13
    92be:	0e c0       	rjmp	.+28     	; 0x92dc <_ZNK6String4trimEv+0x66>
    92c0:	d8 01       	movw	r26, r16
    92c2:	ed 91       	ld	r30, X+
    92c4:	fc 91       	ld	r31, X
    92c6:	ec 0d       	add	r30, r12
    92c8:	fd 1d       	adc	r31, r13
    92ca:	80 81       	ld	r24, Z
    92cc:	90 e0       	ldi	r25, 0x00	; 0
    92ce:	0e 94 84 4f 	call	0x9f08	; 0x9f08 <isspace>
    92d2:	89 2b       	or	r24, r25
    92d4:	31 f0       	breq	.+12     	; 0x92e2 <_ZNK6String4trimEv+0x6c>
    92d6:	08 94       	sec
    92d8:	c1 1c       	adc	r12, r1
    92da:	d1 1c       	adc	r13, r1
    92dc:	ce 14       	cp	r12, r14
    92de:	df 04       	cpc	r13, r15
    92e0:	78 f3       	brcs	.-34     	; 0x92c0 <_ZNK6String4trimEv+0x4a>
    92e2:	ed 80       	ldd	r14, Y+5	; 0x05
    92e4:	fe 80       	ldd	r15, Y+6	; 0x06
    92e6:	0b c0       	rjmp	.+22     	; 0x92fe <_ZNK6String4trimEv+0x88>
    92e8:	d8 01       	movw	r26, r16
    92ea:	ed 91       	ld	r30, X+
    92ec:	fc 91       	ld	r31, X
    92ee:	ee 0d       	add	r30, r14
    92f0:	ff 1d       	adc	r31, r15
    92f2:	80 81       	ld	r24, Z
    92f4:	90 e0       	ldi	r25, 0x00	; 0
    92f6:	0e 94 84 4f 	call	0x9f08	; 0x9f08 <isspace>
    92fa:	89 2b       	or	r24, r25
    92fc:	31 f0       	breq	.+12     	; 0x930a <_ZNK6String4trimEv+0x94>
    92fe:	08 94       	sec
    9300:	e1 08       	sbc	r14, r1
    9302:	f1 08       	sbc	r15, r1
    9304:	ce 14       	cp	r12, r14
    9306:	df 04       	cpc	r13, r15
    9308:	78 f3       	brcs	.-34     	; 0x92e8 <_ZNK6String4trimEv+0x72>
    930a:	08 94       	sec
    930c:	e1 1c       	adc	r14, r1
    930e:	f1 1c       	adc	r15, r1
    9310:	c5 01       	movw	r24, r10
    9312:	8e 01       	movw	r16, r28
    9314:	0f 5f       	subi	r16, 0xFF	; 255
    9316:	1f 4f       	sbci	r17, 0xFF	; 255
    9318:	b8 01       	movw	r22, r16
    931a:	a6 01       	movw	r20, r12
    931c:	97 01       	movw	r18, r14
    931e:	0e 94 85 48 	call	0x910a	; 0x910a <_ZNK6String9substringEjj>
    9322:	c8 01       	movw	r24, r16
    9324:	0e 94 d9 0b 	call	0x17b2	; 0x17b2 <_ZN6StringD1Ev>
    9328:	c5 01       	movw	r24, r10
    932a:	26 96       	adiw	r28, 0x06	; 6
    932c:	0f b6       	in	r0, 0x3f	; 63
    932e:	f8 94       	cli
    9330:	de bf       	out	0x3e, r29	; 62
    9332:	0f be       	out	0x3f, r0	; 63
    9334:	cd bf       	out	0x3d, r28	; 61
    9336:	cf 91       	pop	r28
    9338:	df 91       	pop	r29
    933a:	1f 91       	pop	r17
    933c:	0f 91       	pop	r16
    933e:	ff 90       	pop	r15
    9340:	ef 90       	pop	r14
    9342:	df 90       	pop	r13
    9344:	cf 90       	pop	r12
    9346:	bf 90       	pop	r11
    9348:	af 90       	pop	r10
    934a:	08 95       	ret

0000934c <_ZN6String7replaceERKS_S1_>:
    934c:	2f 92       	push	r2
    934e:	3f 92       	push	r3
    9350:	4f 92       	push	r4
    9352:	5f 92       	push	r5
    9354:	6f 92       	push	r6
    9356:	7f 92       	push	r7
    9358:	8f 92       	push	r8
    935a:	9f 92       	push	r9
    935c:	af 92       	push	r10
    935e:	bf 92       	push	r11
    9360:	cf 92       	push	r12
    9362:	df 92       	push	r13
    9364:	ef 92       	push	r14
    9366:	ff 92       	push	r15
    9368:	0f 93       	push	r16
    936a:	1f 93       	push	r17
    936c:	df 93       	push	r29
    936e:	cf 93       	push	r28
    9370:	cd b7       	in	r28, 0x3d	; 61
    9372:	de b7       	in	r29, 0x3e	; 62
    9374:	68 97       	sbiw	r28, 0x18	; 24
    9376:	0f b6       	in	r0, 0x3f	; 63
    9378:	f8 94       	cli
    937a:	de bf       	out	0x3e, r29	; 62
    937c:	0f be       	out	0x3f, r0	; 63
    937e:	cd bf       	out	0x3d, r28	; 61
    9380:	3c 01       	movw	r6, r24
    9382:	fb 01       	movw	r30, r22
    9384:	2a 01       	movw	r4, r20
    9386:	19 01       	movw	r2, r18
    9388:	60 81       	ld	r22, Z
    938a:	71 81       	ldd	r23, Z+1	; 0x01
    938c:	61 15       	cp	r22, r1
    938e:	71 05       	cpc	r23, r1
    9390:	21 f4       	brne	.+8      	; 0x939a <_ZN6String7replaceERKS_S1_+0x4e>
    9392:	bf 01       	movw	r22, r30
    9394:	0e 94 6f 46 	call	0x8cde	; 0x8cde <_ZN6StringC1ERKS_>
    9398:	5a c0       	rjmp	.+180    	; 0x944e <_ZN6String7replaceERKS_S1_+0x102>
    939a:	7e 01       	movw	r14, r28
    939c:	08 94       	sec
    939e:	e1 1c       	adc	r14, r1
    93a0:	f1 1c       	adc	r15, r1
    93a2:	c7 01       	movw	r24, r14
    93a4:	0e 94 9f 47 	call	0x8f3e	; 0x8f3e <_ZN6StringC1EPKc>
    93a8:	8e 01       	movw	r16, r28
    93aa:	09 5f       	subi	r16, 0xF9	; 249
    93ac:	1f 4f       	sbci	r17, 0xFF	; 255
    93ae:	c8 01       	movw	r24, r16
    93b0:	67 e2       	ldi	r22, 0x27	; 39
    93b2:	74 e0       	ldi	r23, 0x04	; 4
    93b4:	0e 94 9f 47 	call	0x8f3e	; 0x8f3e <_ZN6StringC1EPKc>
    93b8:	d0 2e       	mov	r13, r16
    93ba:	c1 2e       	mov	r12, r17
    93bc:	3d e0       	ldi	r19, 0x0D	; 13
    93be:	83 2e       	mov	r8, r19
    93c0:	91 2c       	mov	r9, r1
    93c2:	8c 0e       	add	r8, r28
    93c4:	9d 1e       	adc	r9, r29
    93c6:	23 e1       	ldi	r18, 0x13	; 19
    93c8:	a2 2e       	mov	r10, r18
    93ca:	b1 2c       	mov	r11, r1
    93cc:	ac 0e       	add	r10, r28
    93ce:	bd 1e       	adc	r11, r29
    93d0:	24 c0       	rjmp	.+72     	; 0x941a <_ZN6String7replaceERKS_S1_+0xce>
    93d2:	c4 01       	movw	r24, r8
    93d4:	b7 01       	movw	r22, r14
    93d6:	40 e0       	ldi	r20, 0x00	; 0
    93d8:	50 e0       	ldi	r21, 0x00	; 0
    93da:	98 01       	movw	r18, r16
    93dc:	0e 94 85 48 	call	0x910a	; 0x910a <_ZNK6String9substringEjj>
    93e0:	8d 2d       	mov	r24, r13
    93e2:	9c 2d       	mov	r25, r12
    93e4:	b4 01       	movw	r22, r8
    93e6:	0e 94 88 45 	call	0x8b10	; 0x8b10 <_ZN6StringpLERKS_>
    93ea:	c4 01       	movw	r24, r8
    93ec:	0e 94 d9 0b 	call	0x17b2	; 0x17b2 <_ZN6StringD1Ev>
    93f0:	8d 2d       	mov	r24, r13
    93f2:	9c 2d       	mov	r25, r12
    93f4:	b1 01       	movw	r22, r2
    93f6:	0e 94 88 45 	call	0x8b10	; 0x8b10 <_ZN6StringpLERKS_>
    93fa:	f2 01       	movw	r30, r4
    93fc:	44 81       	ldd	r20, Z+4	; 0x04
    93fe:	55 81       	ldd	r21, Z+5	; 0x05
    9400:	40 0f       	add	r20, r16
    9402:	51 1f       	adc	r21, r17
    9404:	c5 01       	movw	r24, r10
    9406:	b7 01       	movw	r22, r14
    9408:	0e 94 bc 48 	call	0x9178	; 0x9178 <_ZNK6String9substringEj>
    940c:	c7 01       	movw	r24, r14
    940e:	b5 01       	movw	r22, r10
    9410:	0e 94 d7 45 	call	0x8bae	; 0x8bae <_ZN6StringaSERKS_>
    9414:	c5 01       	movw	r24, r10
    9416:	0e 94 d9 0b 	call	0x17b2	; 0x17b2 <_ZN6StringD1Ev>
    941a:	c7 01       	movw	r24, r14
    941c:	b2 01       	movw	r22, r4
    941e:	0e 94 a9 44 	call	0x8952	; 0x8952 <_ZNK6String7indexOfERKS_>
    9422:	8c 01       	movw	r16, r24
    9424:	ff ef       	ldi	r31, 0xFF	; 255
    9426:	8f 3f       	cpi	r24, 0xFF	; 255
    9428:	9f 07       	cpc	r25, r31
    942a:	99 f6       	brne	.-90     	; 0x93d2 <_ZN6String7replaceERKS_S1_+0x86>
    942c:	8d 2d       	mov	r24, r13
    942e:	9c 2d       	mov	r25, r12
    9430:	b7 01       	movw	r22, r14
    9432:	0e 94 88 45 	call	0x8b10	; 0x8b10 <_ZN6StringpLERKS_>
    9436:	c3 01       	movw	r24, r6
    9438:	6d 2d       	mov	r22, r13
    943a:	7c 2d       	mov	r23, r12
    943c:	0e 94 6f 46 	call	0x8cde	; 0x8cde <_ZN6StringC1ERKS_>
    9440:	8d 2d       	mov	r24, r13
    9442:	9c 2d       	mov	r25, r12
    9444:	0e 94 d9 0b 	call	0x17b2	; 0x17b2 <_ZN6StringD1Ev>
    9448:	c7 01       	movw	r24, r14
    944a:	0e 94 d9 0b 	call	0x17b2	; 0x17b2 <_ZN6StringD1Ev>
    944e:	c3 01       	movw	r24, r6
    9450:	68 96       	adiw	r28, 0x18	; 24
    9452:	0f b6       	in	r0, 0x3f	; 63
    9454:	f8 94       	cli
    9456:	de bf       	out	0x3e, r29	; 62
    9458:	0f be       	out	0x3f, r0	; 63
    945a:	cd bf       	out	0x3d, r28	; 61
    945c:	cf 91       	pop	r28
    945e:	df 91       	pop	r29
    9460:	1f 91       	pop	r17
    9462:	0f 91       	pop	r16
    9464:	ff 90       	pop	r15
    9466:	ef 90       	pop	r14
    9468:	df 90       	pop	r13
    946a:	cf 90       	pop	r12
    946c:	bf 90       	pop	r11
    946e:	af 90       	pop	r10
    9470:	9f 90       	pop	r9
    9472:	8f 90       	pop	r8
    9474:	7f 90       	pop	r7
    9476:	6f 90       	pop	r6
    9478:	5f 90       	pop	r5
    947a:	4f 90       	pop	r4
    947c:	3f 90       	pop	r3
    947e:	2f 90       	pop	r2
    9480:	08 95       	ret

00009482 <_ZN6String7replaceEcc>:
    9482:	ef 92       	push	r14
    9484:	ff 92       	push	r15
    9486:	0f 93       	push	r16
    9488:	1f 93       	push	r17
    948a:	df 93       	push	r29
    948c:	cf 93       	push	r28
    948e:	00 d0       	rcall	.+0      	; 0x9490 <_ZN6String7replaceEcc+0xe>
    9490:	00 d0       	rcall	.+0      	; 0x9492 <_ZN6String7replaceEcc+0x10>
    9492:	00 d0       	rcall	.+0      	; 0x9494 <_ZN6String7replaceEcc+0x12>
    9494:	cd b7       	in	r28, 0x3d	; 61
    9496:	de b7       	in	r29, 0x3e	; 62
    9498:	7c 01       	movw	r14, r24
    949a:	fb 01       	movw	r30, r22
    949c:	14 2f       	mov	r17, r20
    949e:	02 2f       	mov	r16, r18
    94a0:	60 81       	ld	r22, Z
    94a2:	71 81       	ldd	r23, Z+1	; 0x01
    94a4:	61 15       	cp	r22, r1
    94a6:	71 05       	cpc	r23, r1
    94a8:	21 f4       	brne	.+8      	; 0x94b2 <_ZN6String7replaceEcc+0x30>
    94aa:	bf 01       	movw	r22, r30
    94ac:	0e 94 6f 46 	call	0x8cde	; 0x8cde <_ZN6StringC1ERKS_>
    94b0:	19 c0       	rjmp	.+50     	; 0x94e4 <_ZN6String7replaceEcc+0x62>
    94b2:	ce 01       	movw	r24, r28
    94b4:	01 96       	adiw	r24, 0x01	; 1
    94b6:	0e 94 9f 47 	call	0x8f3e	; 0x8f3e <_ZN6StringC1EPKc>
    94ba:	89 81       	ldd	r24, Y+1	; 0x01
    94bc:	9a 81       	ldd	r25, Y+2	; 0x02
    94be:	01 c0       	rjmp	.+2      	; 0x94c2 <_ZN6String7replaceEcc+0x40>
    94c0:	00 83       	st	Z, r16
    94c2:	61 2f       	mov	r22, r17
    94c4:	70 e0       	ldi	r23, 0x00	; 0
    94c6:	0e 94 a2 0a 	call	0x1544	; 0x1544 <strchr>
    94ca:	fc 01       	movw	r30, r24
    94cc:	00 97       	sbiw	r24, 0x00	; 0
    94ce:	c1 f7       	brne	.-16     	; 0x94c0 <_ZN6String7replaceEcc+0x3e>
    94d0:	c7 01       	movw	r24, r14
    94d2:	8e 01       	movw	r16, r28
    94d4:	0f 5f       	subi	r16, 0xFF	; 255
    94d6:	1f 4f       	sbci	r17, 0xFF	; 255
    94d8:	b8 01       	movw	r22, r16
    94da:	0e 94 6f 46 	call	0x8cde	; 0x8cde <_ZN6StringC1ERKS_>
    94de:	c8 01       	movw	r24, r16
    94e0:	0e 94 d9 0b 	call	0x17b2	; 0x17b2 <_ZN6StringD1Ev>
    94e4:	c7 01       	movw	r24, r14
    94e6:	26 96       	adiw	r28, 0x06	; 6
    94e8:	0f b6       	in	r0, 0x3f	; 63
    94ea:	f8 94       	cli
    94ec:	de bf       	out	0x3e, r29	; 62
    94ee:	0f be       	out	0x3f, r0	; 63
    94f0:	cd bf       	out	0x3d, r28	; 61
    94f2:	cf 91       	pop	r28
    94f4:	df 91       	pop	r29
    94f6:	1f 91       	pop	r17
    94f8:	0f 91       	pop	r16
    94fa:	ff 90       	pop	r15
    94fc:	ef 90       	pop	r14
    94fe:	08 95       	ret

00009500 <_ZN6StringC2EPKc>:
    9500:	0f 93       	push	r16
    9502:	1f 93       	push	r17
    9504:	cf 93       	push	r28
    9506:	df 93       	push	r29
    9508:	8c 01       	movw	r16, r24
    950a:	eb 01       	movw	r28, r22
    950c:	61 15       	cp	r22, r1
    950e:	71 05       	cpc	r23, r1
    9510:	11 f4       	brne	.+4      	; 0x9516 <_ZN6StringC2EPKc+0x16>
    9512:	c7 e2       	ldi	r28, 0x27	; 39
    9514:	d4 e0       	ldi	r29, 0x04	; 4
    9516:	fe 01       	movw	r30, r28
    9518:	01 90       	ld	r0, Z+
    951a:	00 20       	and	r0, r0
    951c:	e9 f7       	brne	.-6      	; 0x9518 <_ZN6StringC2EPKc+0x18>
    951e:	31 97       	sbiw	r30, 0x01	; 1
    9520:	ec 1b       	sub	r30, r28
    9522:	fd 0b       	sbc	r31, r29
    9524:	d8 01       	movw	r26, r16
    9526:	15 96       	adiw	r26, 0x05	; 5
    9528:	fc 93       	st	X, r31
    952a:	ee 93       	st	-X, r30
    952c:	14 97       	sbiw	r26, 0x04	; 4
    952e:	c8 01       	movw	r24, r16
    9530:	bf 01       	movw	r22, r30
    9532:	0e 94 c3 45 	call	0x8b86	; 0x8b86 <_ZN6String9getBufferEj>
    9536:	f8 01       	movw	r30, r16
    9538:	80 81       	ld	r24, Z
    953a:	91 81       	ldd	r25, Z+1	; 0x01
    953c:	00 97       	sbiw	r24, 0x00	; 0
    953e:	19 f0       	breq	.+6      	; 0x9546 <_ZN6StringC2EPKc+0x46>
    9540:	be 01       	movw	r22, r28
    9542:	0e 94 b6 0a 	call	0x156c	; 0x156c <strcpy>
    9546:	df 91       	pop	r29
    9548:	cf 91       	pop	r28
    954a:	1f 91       	pop	r17
    954c:	0f 91       	pop	r16
    954e:	08 95       	ret

00009550 <_ZN6StringC1Eli>:
    9550:	ef 92       	push	r14
    9552:	ff 92       	push	r15
    9554:	0f 93       	push	r16
    9556:	1f 93       	push	r17
    9558:	df 93       	push	r29
    955a:	cf 93       	push	r28
    955c:	cd b7       	in	r28, 0x3d	; 61
    955e:	de b7       	in	r29, 0x3e	; 62
    9560:	a1 97       	sbiw	r28, 0x21	; 33
    9562:	0f b6       	in	r0, 0x3f	; 63
    9564:	f8 94       	cli
    9566:	de bf       	out	0x3e, r29	; 62
    9568:	0f be       	out	0x3f, r0	; 63
    956a:	cd bf       	out	0x3d, r28	; 61
    956c:	8c 01       	movw	r16, r24
    956e:	cb 01       	movw	r24, r22
    9570:	ba 01       	movw	r22, r20
    9572:	7e 01       	movw	r14, r28
    9574:	08 94       	sec
    9576:	e1 1c       	adc	r14, r1
    9578:	f1 1c       	adc	r15, r1
    957a:	a7 01       	movw	r20, r14
    957c:	0e 94 20 0b 	call	0x1640	; 0x1640 <ltoa>
    9580:	f7 01       	movw	r30, r14
    9582:	01 90       	ld	r0, Z+
    9584:	00 20       	and	r0, r0
    9586:	e9 f7       	brne	.-6      	; 0x9582 <_ZN6StringC1Eli+0x32>
    9588:	31 97       	sbiw	r30, 0x01	; 1
    958a:	ee 19       	sub	r30, r14
    958c:	ff 09       	sbc	r31, r15
    958e:	d8 01       	movw	r26, r16
    9590:	15 96       	adiw	r26, 0x05	; 5
    9592:	fc 93       	st	X, r31
    9594:	ee 93       	st	-X, r30
    9596:	14 97       	sbiw	r26, 0x04	; 4
    9598:	c8 01       	movw	r24, r16
    959a:	bf 01       	movw	r22, r30
    959c:	0e 94 c3 45 	call	0x8b86	; 0x8b86 <_ZN6String9getBufferEj>
    95a0:	f8 01       	movw	r30, r16
    95a2:	80 81       	ld	r24, Z
    95a4:	91 81       	ldd	r25, Z+1	; 0x01
    95a6:	00 97       	sbiw	r24, 0x00	; 0
    95a8:	19 f0       	breq	.+6      	; 0x95b0 <_ZN6StringC1Eli+0x60>
    95aa:	b7 01       	movw	r22, r14
    95ac:	0e 94 b6 0a 	call	0x156c	; 0x156c <strcpy>
    95b0:	a1 96       	adiw	r28, 0x21	; 33
    95b2:	0f b6       	in	r0, 0x3f	; 63
    95b4:	f8 94       	cli
    95b6:	de bf       	out	0x3e, r29	; 62
    95b8:	0f be       	out	0x3f, r0	; 63
    95ba:	cd bf       	out	0x3d, r28	; 61
    95bc:	cf 91       	pop	r28
    95be:	df 91       	pop	r29
    95c0:	1f 91       	pop	r17
    95c2:	0f 91       	pop	r16
    95c4:	ff 90       	pop	r15
    95c6:	ef 90       	pop	r14
    95c8:	08 95       	ret

000095ca <_ZN6StringC2Eli>:
    95ca:	ef 92       	push	r14
    95cc:	ff 92       	push	r15
    95ce:	0f 93       	push	r16
    95d0:	1f 93       	push	r17
    95d2:	df 93       	push	r29
    95d4:	cf 93       	push	r28
    95d6:	cd b7       	in	r28, 0x3d	; 61
    95d8:	de b7       	in	r29, 0x3e	; 62
    95da:	a1 97       	sbiw	r28, 0x21	; 33
    95dc:	0f b6       	in	r0, 0x3f	; 63
    95de:	f8 94       	cli
    95e0:	de bf       	out	0x3e, r29	; 62
    95e2:	0f be       	out	0x3f, r0	; 63
    95e4:	cd bf       	out	0x3d, r28	; 61
    95e6:	8c 01       	movw	r16, r24
    95e8:	cb 01       	movw	r24, r22
    95ea:	ba 01       	movw	r22, r20
    95ec:	7e 01       	movw	r14, r28
    95ee:	08 94       	sec
    95f0:	e1 1c       	adc	r14, r1
    95f2:	f1 1c       	adc	r15, r1
    95f4:	a7 01       	movw	r20, r14
    95f6:	0e 94 20 0b 	call	0x1640	; 0x1640 <ltoa>
    95fa:	f7 01       	movw	r30, r14
    95fc:	01 90       	ld	r0, Z+
    95fe:	00 20       	and	r0, r0
    9600:	e9 f7       	brne	.-6      	; 0x95fc <_ZN6StringC2Eli+0x32>
    9602:	31 97       	sbiw	r30, 0x01	; 1
    9604:	ee 19       	sub	r30, r14
    9606:	ff 09       	sbc	r31, r15
    9608:	d8 01       	movw	r26, r16
    960a:	15 96       	adiw	r26, 0x05	; 5
    960c:	fc 93       	st	X, r31
    960e:	ee 93       	st	-X, r30
    9610:	14 97       	sbiw	r26, 0x04	; 4
    9612:	c8 01       	movw	r24, r16
    9614:	bf 01       	movw	r22, r30
    9616:	0e 94 c3 45 	call	0x8b86	; 0x8b86 <_ZN6String9getBufferEj>
    961a:	f8 01       	movw	r30, r16
    961c:	80 81       	ld	r24, Z
    961e:	91 81       	ldd	r25, Z+1	; 0x01
    9620:	00 97       	sbiw	r24, 0x00	; 0
    9622:	19 f0       	breq	.+6      	; 0x962a <_ZN6StringC2Eli+0x60>
    9624:	b7 01       	movw	r22, r14
    9626:	0e 94 b6 0a 	call	0x156c	; 0x156c <strcpy>
    962a:	a1 96       	adiw	r28, 0x21	; 33
    962c:	0f b6       	in	r0, 0x3f	; 63
    962e:	f8 94       	cli
    9630:	de bf       	out	0x3e, r29	; 62
    9632:	0f be       	out	0x3f, r0	; 63
    9634:	cd bf       	out	0x3d, r28	; 61
    9636:	cf 91       	pop	r28
    9638:	df 91       	pop	r29
    963a:	1f 91       	pop	r17
    963c:	0f 91       	pop	r16
    963e:	ff 90       	pop	r15
    9640:	ef 90       	pop	r14
    9642:	08 95       	ret

00009644 <_ZN6StringC1Eii>:
    9644:	ef 92       	push	r14
    9646:	ff 92       	push	r15
    9648:	0f 93       	push	r16
    964a:	1f 93       	push	r17
    964c:	df 93       	push	r29
    964e:	cf 93       	push	r28
    9650:	cd b7       	in	r28, 0x3d	; 61
    9652:	de b7       	in	r29, 0x3e	; 62
    9654:	a1 97       	sbiw	r28, 0x21	; 33
    9656:	0f b6       	in	r0, 0x3f	; 63
    9658:	f8 94       	cli
    965a:	de bf       	out	0x3e, r29	; 62
    965c:	0f be       	out	0x3f, r0	; 63
    965e:	cd bf       	out	0x3d, r28	; 61
    9660:	8c 01       	movw	r16, r24
    9662:	cb 01       	movw	r24, r22
    9664:	7e 01       	movw	r14, r28
    9666:	08 94       	sec
    9668:	e1 1c       	adc	r14, r1
    966a:	f1 1c       	adc	r15, r1
    966c:	b7 01       	movw	r22, r14
    966e:	0e 94 ff 0a 	call	0x15fe	; 0x15fe <itoa>
    9672:	f7 01       	movw	r30, r14
    9674:	01 90       	ld	r0, Z+
    9676:	00 20       	and	r0, r0
    9678:	e9 f7       	brne	.-6      	; 0x9674 <_ZN6StringC1Eii+0x30>
    967a:	31 97       	sbiw	r30, 0x01	; 1
    967c:	ee 19       	sub	r30, r14
    967e:	ff 09       	sbc	r31, r15
    9680:	d8 01       	movw	r26, r16
    9682:	15 96       	adiw	r26, 0x05	; 5
    9684:	fc 93       	st	X, r31
    9686:	ee 93       	st	-X, r30
    9688:	14 97       	sbiw	r26, 0x04	; 4
    968a:	c8 01       	movw	r24, r16
    968c:	bf 01       	movw	r22, r30
    968e:	0e 94 c3 45 	call	0x8b86	; 0x8b86 <_ZN6String9getBufferEj>
    9692:	f8 01       	movw	r30, r16
    9694:	80 81       	ld	r24, Z
    9696:	91 81       	ldd	r25, Z+1	; 0x01
    9698:	00 97       	sbiw	r24, 0x00	; 0
    969a:	19 f0       	breq	.+6      	; 0x96a2 <_ZN6StringC1Eii+0x5e>
    969c:	b7 01       	movw	r22, r14
    969e:	0e 94 b6 0a 	call	0x156c	; 0x156c <strcpy>
    96a2:	a1 96       	adiw	r28, 0x21	; 33
    96a4:	0f b6       	in	r0, 0x3f	; 63
    96a6:	f8 94       	cli
    96a8:	de bf       	out	0x3e, r29	; 62
    96aa:	0f be       	out	0x3f, r0	; 63
    96ac:	cd bf       	out	0x3d, r28	; 61
    96ae:	cf 91       	pop	r28
    96b0:	df 91       	pop	r29
    96b2:	1f 91       	pop	r17
    96b4:	0f 91       	pop	r16
    96b6:	ff 90       	pop	r15
    96b8:	ef 90       	pop	r14
    96ba:	08 95       	ret

000096bc <_ZN6StringC2Eii>:
    96bc:	ef 92       	push	r14
    96be:	ff 92       	push	r15
    96c0:	0f 93       	push	r16
    96c2:	1f 93       	push	r17
    96c4:	df 93       	push	r29
    96c6:	cf 93       	push	r28
    96c8:	cd b7       	in	r28, 0x3d	; 61
    96ca:	de b7       	in	r29, 0x3e	; 62
    96cc:	a1 97       	sbiw	r28, 0x21	; 33
    96ce:	0f b6       	in	r0, 0x3f	; 63
    96d0:	f8 94       	cli
    96d2:	de bf       	out	0x3e, r29	; 62
    96d4:	0f be       	out	0x3f, r0	; 63
    96d6:	cd bf       	out	0x3d, r28	; 61
    96d8:	8c 01       	movw	r16, r24
    96da:	cb 01       	movw	r24, r22
    96dc:	7e 01       	movw	r14, r28
    96de:	08 94       	sec
    96e0:	e1 1c       	adc	r14, r1
    96e2:	f1 1c       	adc	r15, r1
    96e4:	b7 01       	movw	r22, r14
    96e6:	0e 94 ff 0a 	call	0x15fe	; 0x15fe <itoa>
    96ea:	f7 01       	movw	r30, r14
    96ec:	01 90       	ld	r0, Z+
    96ee:	00 20       	and	r0, r0
    96f0:	e9 f7       	brne	.-6      	; 0x96ec <_ZN6StringC2Eii+0x30>
    96f2:	31 97       	sbiw	r30, 0x01	; 1
    96f4:	ee 19       	sub	r30, r14
    96f6:	ff 09       	sbc	r31, r15
    96f8:	d8 01       	movw	r26, r16
    96fa:	15 96       	adiw	r26, 0x05	; 5
    96fc:	fc 93       	st	X, r31
    96fe:	ee 93       	st	-X, r30
    9700:	14 97       	sbiw	r26, 0x04	; 4
    9702:	c8 01       	movw	r24, r16
    9704:	bf 01       	movw	r22, r30
    9706:	0e 94 c3 45 	call	0x8b86	; 0x8b86 <_ZN6String9getBufferEj>
    970a:	f8 01       	movw	r30, r16
    970c:	80 81       	ld	r24, Z
    970e:	91 81       	ldd	r25, Z+1	; 0x01
    9710:	00 97       	sbiw	r24, 0x00	; 0
    9712:	19 f0       	breq	.+6      	; 0x971a <_ZN6StringC2Eii+0x5e>
    9714:	b7 01       	movw	r22, r14
    9716:	0e 94 b6 0a 	call	0x156c	; 0x156c <strcpy>
    971a:	a1 96       	adiw	r28, 0x21	; 33
    971c:	0f b6       	in	r0, 0x3f	; 63
    971e:	f8 94       	cli
    9720:	de bf       	out	0x3e, r29	; 62
    9722:	0f be       	out	0x3f, r0	; 63
    9724:	cd bf       	out	0x3d, r28	; 61
    9726:	cf 91       	pop	r28
    9728:	df 91       	pop	r29
    972a:	1f 91       	pop	r17
    972c:	0f 91       	pop	r16
    972e:	ff 90       	pop	r15
    9730:	ef 90       	pop	r14
    9732:	08 95       	ret

00009734 <__vector_23>:
    9734:	1f 92       	push	r1
    9736:	0f 92       	push	r0
    9738:	0f b6       	in	r0, 0x3f	; 63
    973a:	0f 92       	push	r0
    973c:	11 24       	eor	r1, r1
    973e:	2f 93       	push	r18
    9740:	3f 93       	push	r19
    9742:	8f 93       	push	r24
    9744:	9f 93       	push	r25
    9746:	af 93       	push	r26
    9748:	bf 93       	push	r27
    974a:	80 91 d0 09 	lds	r24, 0x09D0
    974e:	90 91 d1 09 	lds	r25, 0x09D1
    9752:	a0 91 d2 09 	lds	r26, 0x09D2
    9756:	b0 91 d3 09 	lds	r27, 0x09D3
    975a:	30 91 d4 09 	lds	r19, 0x09D4
    975e:	01 96       	adiw	r24, 0x01	; 1
    9760:	a1 1d       	adc	r26, r1
    9762:	b1 1d       	adc	r27, r1
    9764:	23 2f       	mov	r18, r19
    9766:	2d 5f       	subi	r18, 0xFD	; 253
    9768:	2d 37       	cpi	r18, 0x7D	; 125
    976a:	20 f0       	brcs	.+8      	; 0x9774 <__vector_23+0x40>
    976c:	2d 57       	subi	r18, 0x7D	; 125
    976e:	01 96       	adiw	r24, 0x01	; 1
    9770:	a1 1d       	adc	r26, r1
    9772:	b1 1d       	adc	r27, r1
    9774:	20 93 d4 09 	sts	0x09D4, r18
    9778:	80 93 d0 09 	sts	0x09D0, r24
    977c:	90 93 d1 09 	sts	0x09D1, r25
    9780:	a0 93 d2 09 	sts	0x09D2, r26
    9784:	b0 93 d3 09 	sts	0x09D3, r27
    9788:	80 91 cc 09 	lds	r24, 0x09CC
    978c:	90 91 cd 09 	lds	r25, 0x09CD
    9790:	a0 91 ce 09 	lds	r26, 0x09CE
    9794:	b0 91 cf 09 	lds	r27, 0x09CF
    9798:	01 96       	adiw	r24, 0x01	; 1
    979a:	a1 1d       	adc	r26, r1
    979c:	b1 1d       	adc	r27, r1
    979e:	80 93 cc 09 	sts	0x09CC, r24
    97a2:	90 93 cd 09 	sts	0x09CD, r25
    97a6:	a0 93 ce 09 	sts	0x09CE, r26
    97aa:	b0 93 cf 09 	sts	0x09CF, r27
    97ae:	bf 91       	pop	r27
    97b0:	af 91       	pop	r26
    97b2:	9f 91       	pop	r25
    97b4:	8f 91       	pop	r24
    97b6:	3f 91       	pop	r19
    97b8:	2f 91       	pop	r18
    97ba:	0f 90       	pop	r0
    97bc:	0f be       	out	0x3f, r0	; 63
    97be:	0f 90       	pop	r0
    97c0:	1f 90       	pop	r1
    97c2:	18 95       	reti

000097c4 <millis>:
    97c4:	8f b7       	in	r24, 0x3f	; 63
    97c6:	f8 94       	cli
    97c8:	20 91 d0 09 	lds	r18, 0x09D0
    97cc:	30 91 d1 09 	lds	r19, 0x09D1
    97d0:	40 91 d2 09 	lds	r20, 0x09D2
    97d4:	50 91 d3 09 	lds	r21, 0x09D3
    97d8:	8f bf       	out	0x3f, r24	; 63
    97da:	b9 01       	movw	r22, r18
    97dc:	ca 01       	movw	r24, r20
    97de:	08 95       	ret

000097e0 <micros>:
    97e0:	9f b7       	in	r25, 0x3f	; 63
    97e2:	f8 94       	cli
    97e4:	20 91 cc 09 	lds	r18, 0x09CC
    97e8:	30 91 cd 09 	lds	r19, 0x09CD
    97ec:	40 91 ce 09 	lds	r20, 0x09CE
    97f0:	50 91 cf 09 	lds	r21, 0x09CF
    97f4:	86 b5       	in	r24, 0x26	; 38
    97f6:	a8 9b       	sbis	0x15, 0	; 21
    97f8:	06 c0       	rjmp	.+12     	; 0x9806 <micros+0x26>
    97fa:	8f 3f       	cpi	r24, 0xFF	; 255
    97fc:	21 f0       	breq	.+8      	; 0x9806 <micros+0x26>
    97fe:	2f 5f       	subi	r18, 0xFF	; 255
    9800:	3f 4f       	sbci	r19, 0xFF	; 255
    9802:	4f 4f       	sbci	r20, 0xFF	; 255
    9804:	5f 4f       	sbci	r21, 0xFF	; 255
    9806:	9f bf       	out	0x3f, r25	; 63
    9808:	54 2f       	mov	r21, r20
    980a:	43 2f       	mov	r20, r19
    980c:	32 2f       	mov	r19, r18
    980e:	22 27       	eor	r18, r18
    9810:	28 0f       	add	r18, r24
    9812:	31 1d       	adc	r19, r1
    9814:	41 1d       	adc	r20, r1
    9816:	51 1d       	adc	r21, r1
    9818:	82 e0       	ldi	r24, 0x02	; 2
    981a:	22 0f       	add	r18, r18
    981c:	33 1f       	adc	r19, r19
    981e:	44 1f       	adc	r20, r20
    9820:	55 1f       	adc	r21, r21
    9822:	8a 95       	dec	r24
    9824:	d1 f7       	brne	.-12     	; 0x981a <micros+0x3a>
    9826:	b9 01       	movw	r22, r18
    9828:	ca 01       	movw	r24, r20
    982a:	08 95       	ret

0000982c <delay>:
    982c:	9b 01       	movw	r18, r22
    982e:	ac 01       	movw	r20, r24
    9830:	7f b7       	in	r23, 0x3f	; 63
    9832:	f8 94       	cli
    9834:	80 91 cc 09 	lds	r24, 0x09CC
    9838:	90 91 cd 09 	lds	r25, 0x09CD
    983c:	a0 91 ce 09 	lds	r26, 0x09CE
    9840:	b0 91 cf 09 	lds	r27, 0x09CF
    9844:	66 b5       	in	r22, 0x26	; 38
    9846:	a8 9b       	sbis	0x15, 0	; 21
    9848:	05 c0       	rjmp	.+10     	; 0x9854 <delay+0x28>
    984a:	6f 3f       	cpi	r22, 0xFF	; 255
    984c:	19 f0       	breq	.+6      	; 0x9854 <delay+0x28>
    984e:	01 96       	adiw	r24, 0x01	; 1
    9850:	a1 1d       	adc	r26, r1
    9852:	b1 1d       	adc	r27, r1
    9854:	7f bf       	out	0x3f, r23	; 63
    9856:	ba 2f       	mov	r27, r26
    9858:	a9 2f       	mov	r26, r25
    985a:	98 2f       	mov	r25, r24
    985c:	88 27       	eor	r24, r24
    985e:	86 0f       	add	r24, r22
    9860:	91 1d       	adc	r25, r1
    9862:	a1 1d       	adc	r26, r1
    9864:	b1 1d       	adc	r27, r1
    9866:	62 e0       	ldi	r22, 0x02	; 2
    9868:	88 0f       	add	r24, r24
    986a:	99 1f       	adc	r25, r25
    986c:	aa 1f       	adc	r26, r26
    986e:	bb 1f       	adc	r27, r27
    9870:	6a 95       	dec	r22
    9872:	d1 f7       	brne	.-12     	; 0x9868 <delay+0x3c>
    9874:	bc 01       	movw	r22, r24
    9876:	2d c0       	rjmp	.+90     	; 0x98d2 <delay+0xa6>
    9878:	ff b7       	in	r31, 0x3f	; 63
    987a:	f8 94       	cli
    987c:	80 91 cc 09 	lds	r24, 0x09CC
    9880:	90 91 cd 09 	lds	r25, 0x09CD
    9884:	a0 91 ce 09 	lds	r26, 0x09CE
    9888:	b0 91 cf 09 	lds	r27, 0x09CF
    988c:	e6 b5       	in	r30, 0x26	; 38
    988e:	a8 9b       	sbis	0x15, 0	; 21
    9890:	05 c0       	rjmp	.+10     	; 0x989c <delay+0x70>
    9892:	ef 3f       	cpi	r30, 0xFF	; 255
    9894:	19 f0       	breq	.+6      	; 0x989c <delay+0x70>
    9896:	01 96       	adiw	r24, 0x01	; 1
    9898:	a1 1d       	adc	r26, r1
    989a:	b1 1d       	adc	r27, r1
    989c:	ff bf       	out	0x3f, r31	; 63
    989e:	ba 2f       	mov	r27, r26
    98a0:	a9 2f       	mov	r26, r25
    98a2:	98 2f       	mov	r25, r24
    98a4:	88 27       	eor	r24, r24
    98a6:	8e 0f       	add	r24, r30
    98a8:	91 1d       	adc	r25, r1
    98aa:	a1 1d       	adc	r26, r1
    98ac:	b1 1d       	adc	r27, r1
    98ae:	e2 e0       	ldi	r30, 0x02	; 2
    98b0:	88 0f       	add	r24, r24
    98b2:	99 1f       	adc	r25, r25
    98b4:	aa 1f       	adc	r26, r26
    98b6:	bb 1f       	adc	r27, r27
    98b8:	ea 95       	dec	r30
    98ba:	d1 f7       	brne	.-12     	; 0x98b0 <delay+0x84>
    98bc:	86 1b       	sub	r24, r22
    98be:	97 0b       	sbc	r25, r23
    98c0:	88 5e       	subi	r24, 0xE8	; 232
    98c2:	93 40       	sbci	r25, 0x03	; 3
    98c4:	c8 f2       	brcs	.-78     	; 0x9878 <delay+0x4c>
    98c6:	21 50       	subi	r18, 0x01	; 1
    98c8:	30 40       	sbci	r19, 0x00	; 0
    98ca:	40 40       	sbci	r20, 0x00	; 0
    98cc:	50 40       	sbci	r21, 0x00	; 0
    98ce:	68 51       	subi	r22, 0x18	; 24
    98d0:	7c 4f       	sbci	r23, 0xFC	; 252
    98d2:	21 15       	cp	r18, r1
    98d4:	31 05       	cpc	r19, r1
    98d6:	41 05       	cpc	r20, r1
    98d8:	51 05       	cpc	r21, r1
    98da:	71 f6       	brne	.-100    	; 0x9878 <delay+0x4c>
    98dc:	08 95       	ret

000098de <delayMicroseconds>:
    98de:	01 97       	sbiw	r24, 0x01	; 1
    98e0:	39 f0       	breq	.+14     	; 0x98f0 <delayMicroseconds+0x12>
    98e2:	88 0f       	add	r24, r24
    98e4:	99 1f       	adc	r25, r25
    98e6:	88 0f       	add	r24, r24
    98e8:	99 1f       	adc	r25, r25
    98ea:	02 97       	sbiw	r24, 0x02	; 2
    98ec:	01 97       	sbiw	r24, 0x01	; 1
    98ee:	f1 f7       	brne	.-4      	; 0x98ec <delayMicroseconds+0xe>
    98f0:	08 95       	ret

000098f2 <init>:
    98f2:	78 94       	sei
    98f4:	84 b5       	in	r24, 0x24	; 36
    98f6:	82 60       	ori	r24, 0x02	; 2
    98f8:	84 bd       	out	0x24, r24	; 36
    98fa:	84 b5       	in	r24, 0x24	; 36
    98fc:	81 60       	ori	r24, 0x01	; 1
    98fe:	84 bd       	out	0x24, r24	; 36
    9900:	85 b5       	in	r24, 0x25	; 37
    9902:	82 60       	ori	r24, 0x02	; 2
    9904:	85 bd       	out	0x25, r24	; 37
    9906:	85 b5       	in	r24, 0x25	; 37
    9908:	81 60       	ori	r24, 0x01	; 1
    990a:	85 bd       	out	0x25, r24	; 37
    990c:	ee e6       	ldi	r30, 0x6E	; 110
    990e:	f0 e0       	ldi	r31, 0x00	; 0
    9910:	80 81       	ld	r24, Z
    9912:	81 60       	ori	r24, 0x01	; 1
    9914:	80 83       	st	Z, r24
    9916:	e1 e8       	ldi	r30, 0x81	; 129
    9918:	f0 e0       	ldi	r31, 0x00	; 0
    991a:	10 82       	st	Z, r1
    991c:	80 81       	ld	r24, Z
    991e:	82 60       	ori	r24, 0x02	; 2
    9920:	80 83       	st	Z, r24
    9922:	80 81       	ld	r24, Z
    9924:	81 60       	ori	r24, 0x01	; 1
    9926:	80 83       	st	Z, r24
    9928:	e0 e8       	ldi	r30, 0x80	; 128
    992a:	f0 e0       	ldi	r31, 0x00	; 0
    992c:	80 81       	ld	r24, Z
    992e:	81 60       	ori	r24, 0x01	; 1
    9930:	80 83       	st	Z, r24
    9932:	e1 eb       	ldi	r30, 0xB1	; 177
    9934:	f0 e0       	ldi	r31, 0x00	; 0
    9936:	80 81       	ld	r24, Z
    9938:	84 60       	ori	r24, 0x04	; 4
    993a:	80 83       	st	Z, r24
    993c:	e0 eb       	ldi	r30, 0xB0	; 176
    993e:	f0 e0       	ldi	r31, 0x00	; 0
    9940:	80 81       	ld	r24, Z
    9942:	81 60       	ori	r24, 0x01	; 1
    9944:	80 83       	st	Z, r24
    9946:	e1 e9       	ldi	r30, 0x91	; 145
    9948:	f0 e0       	ldi	r31, 0x00	; 0
    994a:	80 81       	ld	r24, Z
    994c:	82 60       	ori	r24, 0x02	; 2
    994e:	80 83       	st	Z, r24
    9950:	80 81       	ld	r24, Z
    9952:	81 60       	ori	r24, 0x01	; 1
    9954:	80 83       	st	Z, r24
    9956:	e0 e9       	ldi	r30, 0x90	; 144
    9958:	f0 e0       	ldi	r31, 0x00	; 0
    995a:	80 81       	ld	r24, Z
    995c:	81 60       	ori	r24, 0x01	; 1
    995e:	80 83       	st	Z, r24
    9960:	e1 ea       	ldi	r30, 0xA1	; 161
    9962:	f0 e0       	ldi	r31, 0x00	; 0
    9964:	80 81       	ld	r24, Z
    9966:	82 60       	ori	r24, 0x02	; 2
    9968:	80 83       	st	Z, r24
    996a:	80 81       	ld	r24, Z
    996c:	81 60       	ori	r24, 0x01	; 1
    996e:	80 83       	st	Z, r24
    9970:	e0 ea       	ldi	r30, 0xA0	; 160
    9972:	f0 e0       	ldi	r31, 0x00	; 0
    9974:	80 81       	ld	r24, Z
    9976:	81 60       	ori	r24, 0x01	; 1
    9978:	80 83       	st	Z, r24
    997a:	e1 e2       	ldi	r30, 0x21	; 33
    997c:	f1 e0       	ldi	r31, 0x01	; 1
    997e:	80 81       	ld	r24, Z
    9980:	82 60       	ori	r24, 0x02	; 2
    9982:	80 83       	st	Z, r24
    9984:	80 81       	ld	r24, Z
    9986:	81 60       	ori	r24, 0x01	; 1
    9988:	80 83       	st	Z, r24
    998a:	e0 e2       	ldi	r30, 0x20	; 32
    998c:	f1 e0       	ldi	r31, 0x01	; 1
    998e:	80 81       	ld	r24, Z
    9990:	81 60       	ori	r24, 0x01	; 1
    9992:	80 83       	st	Z, r24
    9994:	ea e7       	ldi	r30, 0x7A	; 122
    9996:	f0 e0       	ldi	r31, 0x00	; 0
    9998:	80 81       	ld	r24, Z
    999a:	84 60       	ori	r24, 0x04	; 4
    999c:	80 83       	st	Z, r24
    999e:	80 81       	ld	r24, Z
    99a0:	82 60       	ori	r24, 0x02	; 2
    99a2:	80 83       	st	Z, r24
    99a4:	80 81       	ld	r24, Z
    99a6:	81 60       	ori	r24, 0x01	; 1
    99a8:	80 83       	st	Z, r24
    99aa:	80 81       	ld	r24, Z
    99ac:	80 68       	ori	r24, 0x80	; 128
    99ae:	80 83       	st	Z, r24
    99b0:	10 92 c1 00 	sts	0x00C1, r1
    99b4:	08 95       	ret

000099b6 <analogReference>:
    99b6:	80 93 58 05 	sts	0x0558, r24
    99ba:	08 95       	ret

000099bc <analogRead>:
    99bc:	38 2f       	mov	r19, r24
    99be:	86 33       	cpi	r24, 0x36	; 54
    99c0:	08 f0       	brcs	.+2      	; 0x99c4 <analogRead+0x8>
    99c2:	36 53       	subi	r19, 0x36	; 54
    99c4:	20 91 7b 00 	lds	r18, 0x007B
    99c8:	83 2f       	mov	r24, r19
    99ca:	86 95       	lsr	r24
    99cc:	86 95       	lsr	r24
    99ce:	86 95       	lsr	r24
    99d0:	90 e0       	ldi	r25, 0x00	; 0
    99d2:	81 70       	andi	r24, 0x01	; 1
    99d4:	90 70       	andi	r25, 0x00	; 0
    99d6:	43 e0       	ldi	r20, 0x03	; 3
    99d8:	88 0f       	add	r24, r24
    99da:	99 1f       	adc	r25, r25
    99dc:	4a 95       	dec	r20
    99de:	e1 f7       	brne	.-8      	; 0x99d8 <analogRead+0x1c>
    99e0:	27 7f       	andi	r18, 0xF7	; 247
    99e2:	28 2b       	or	r18, r24
    99e4:	20 93 7b 00 	sts	0x007B, r18
    99e8:	37 70       	andi	r19, 0x07	; 7
    99ea:	80 91 58 05 	lds	r24, 0x0558
    99ee:	82 95       	swap	r24
    99f0:	88 0f       	add	r24, r24
    99f2:	88 0f       	add	r24, r24
    99f4:	80 7c       	andi	r24, 0xC0	; 192
    99f6:	83 2b       	or	r24, r19
    99f8:	80 93 7c 00 	sts	0x007C, r24
    99fc:	80 91 7a 00 	lds	r24, 0x007A
    9a00:	80 64       	ori	r24, 0x40	; 64
    9a02:	80 93 7a 00 	sts	0x007A, r24
    9a06:	80 91 7a 00 	lds	r24, 0x007A
    9a0a:	86 fd       	sbrc	r24, 6
    9a0c:	fc cf       	rjmp	.-8      	; 0x9a06 <analogRead+0x4a>
    9a0e:	20 91 78 00 	lds	r18, 0x0078
    9a12:	40 91 79 00 	lds	r20, 0x0079
    9a16:	94 2f       	mov	r25, r20
    9a18:	80 e0       	ldi	r24, 0x00	; 0
    9a1a:	30 e0       	ldi	r19, 0x00	; 0
    9a1c:	28 2b       	or	r18, r24
    9a1e:	39 2b       	or	r19, r25
    9a20:	c9 01       	movw	r24, r18
    9a22:	08 95       	ret

00009a24 <analogWrite>:
    9a24:	1f 93       	push	r17
    9a26:	cf 93       	push	r28
    9a28:	df 93       	push	r29
    9a2a:	18 2f       	mov	r17, r24
    9a2c:	eb 01       	movw	r28, r22
    9a2e:	61 e0       	ldi	r22, 0x01	; 1
    9a30:	0e 94 ed 4d 	call	0x9bda	; 0x9bda <pinMode>
    9a34:	20 97       	sbiw	r28, 0x00	; 0
    9a36:	09 f4       	brne	.+2      	; 0x9a3a <analogWrite+0x16>
    9a38:	c5 c0       	rjmp	.+394    	; 0x9bc4 <analogWrite+0x1a0>
    9a3a:	cf 3f       	cpi	r28, 0xFF	; 255
    9a3c:	d1 05       	cpc	r29, r1
    9a3e:	09 f4       	brne	.+2      	; 0x9a42 <analogWrite+0x1e>
    9a40:	c4 c0       	rjmp	.+392    	; 0x9bca <analogWrite+0x1a6>
    9a42:	e1 2f       	mov	r30, r17
    9a44:	f0 e0       	ldi	r31, 0x00	; 0
    9a46:	e2 54       	subi	r30, 0x42	; 66
    9a48:	fe 4f       	sbci	r31, 0xFE	; 254
    9a4a:	84 91       	lpm	r24, Z+
    9a4c:	89 30       	cpi	r24, 0x09	; 9
    9a4e:	09 f4       	brne	.+2      	; 0x9a52 <analogWrite+0x2e>
    9a50:	66 c0       	rjmp	.+204    	; 0x9b1e <analogWrite+0xfa>
    9a52:	8a 30       	cpi	r24, 0x0A	; 10
    9a54:	b0 f4       	brcc	.+44     	; 0x9a82 <analogWrite+0x5e>
    9a56:	84 30       	cpi	r24, 0x04	; 4
    9a58:	f1 f1       	breq	.+124    	; 0x9ad6 <analogWrite+0xb2>
    9a5a:	85 30       	cpi	r24, 0x05	; 5
    9a5c:	40 f4       	brcc	.+16     	; 0x9a6e <analogWrite+0x4a>
    9a5e:	82 30       	cpi	r24, 0x02	; 2
    9a60:	59 f1       	breq	.+86     	; 0x9ab8 <analogWrite+0x94>
    9a62:	83 30       	cpi	r24, 0x03	; 3
    9a64:	70 f5       	brcc	.+92     	; 0x9ac2 <analogWrite+0x9e>
    9a66:	81 30       	cpi	r24, 0x01	; 1
    9a68:	09 f0       	breq	.+2      	; 0x9a6c <analogWrite+0x48>
    9a6a:	a9 c0       	rjmp	.+338    	; 0x9bbe <analogWrite+0x19a>
    9a6c:	20 c0       	rjmp	.+64     	; 0x9aae <analogWrite+0x8a>
    9a6e:	87 30       	cpi	r24, 0x07	; 7
    9a70:	09 f4       	brne	.+2      	; 0x9a74 <analogWrite+0x50>
    9a72:	43 c0       	rjmp	.+134    	; 0x9afa <analogWrite+0xd6>
    9a74:	88 30       	cpi	r24, 0x08	; 8
    9a76:	08 f0       	brcs	.+2      	; 0x9a7a <analogWrite+0x56>
    9a78:	48 c0       	rjmp	.+144    	; 0x9b0a <analogWrite+0xe6>
    9a7a:	86 30       	cpi	r24, 0x06	; 6
    9a7c:	09 f0       	breq	.+2      	; 0x9a80 <analogWrite+0x5c>
    9a7e:	9f c0       	rjmp	.+318    	; 0x9bbe <analogWrite+0x19a>
    9a80:	34 c0       	rjmp	.+104    	; 0x9aea <analogWrite+0xc6>
    9a82:	8d 30       	cpi	r24, 0x0D	; 13
    9a84:	09 f4       	brne	.+2      	; 0x9a88 <analogWrite+0x64>
    9a86:	73 c0       	rjmp	.+230    	; 0x9b6e <analogWrite+0x14a>
    9a88:	8e 30       	cpi	r24, 0x0E	; 14
    9a8a:	38 f4       	brcc	.+14     	; 0x9a9a <analogWrite+0x76>
    9a8c:	8b 30       	cpi	r24, 0x0B	; 11
    9a8e:	09 f4       	brne	.+2      	; 0x9a92 <analogWrite+0x6e>
    9a90:	5a c0       	rjmp	.+180    	; 0x9b46 <analogWrite+0x122>
    9a92:	8c 30       	cpi	r24, 0x0C	; 12
    9a94:	08 f0       	brcs	.+2      	; 0x9a98 <analogWrite+0x74>
    9a96:	61 c0       	rjmp	.+194    	; 0x9b5a <analogWrite+0x136>
    9a98:	4c c0       	rjmp	.+152    	; 0x9b32 <analogWrite+0x10e>
    9a9a:	8f 30       	cpi	r24, 0x0F	; 15
    9a9c:	09 f4       	brne	.+2      	; 0x9aa0 <analogWrite+0x7c>
    9a9e:	7b c0       	rjmp	.+246    	; 0x9b96 <analogWrite+0x172>
    9aa0:	8f 30       	cpi	r24, 0x0F	; 15
    9aa2:	08 f4       	brcc	.+2      	; 0x9aa6 <analogWrite+0x82>
    9aa4:	6e c0       	rjmp	.+220    	; 0x9b82 <analogWrite+0x15e>
    9aa6:	80 31       	cpi	r24, 0x10	; 16
    9aa8:	09 f0       	breq	.+2      	; 0x9aac <analogWrite+0x88>
    9aaa:	89 c0       	rjmp	.+274    	; 0x9bbe <analogWrite+0x19a>
    9aac:	7e c0       	rjmp	.+252    	; 0x9baa <analogWrite+0x186>
    9aae:	84 b5       	in	r24, 0x24	; 36
    9ab0:	80 68       	ori	r24, 0x80	; 128
    9ab2:	84 bd       	out	0x24, r24	; 36
    9ab4:	c7 bd       	out	0x27, r28	; 39
    9ab6:	8d c0       	rjmp	.+282    	; 0x9bd2 <analogWrite+0x1ae>
    9ab8:	84 b5       	in	r24, 0x24	; 36
    9aba:	80 62       	ori	r24, 0x20	; 32
    9abc:	84 bd       	out	0x24, r24	; 36
    9abe:	c8 bd       	out	0x28, r28	; 40
    9ac0:	88 c0       	rjmp	.+272    	; 0x9bd2 <analogWrite+0x1ae>
    9ac2:	80 91 80 00 	lds	r24, 0x0080
    9ac6:	80 68       	ori	r24, 0x80	; 128
    9ac8:	80 93 80 00 	sts	0x0080, r24
    9acc:	d0 93 89 00 	sts	0x0089, r29
    9ad0:	c0 93 88 00 	sts	0x0088, r28
    9ad4:	7e c0       	rjmp	.+252    	; 0x9bd2 <analogWrite+0x1ae>
    9ad6:	80 91 80 00 	lds	r24, 0x0080
    9ada:	80 62       	ori	r24, 0x20	; 32
    9adc:	80 93 80 00 	sts	0x0080, r24
    9ae0:	d0 93 8b 00 	sts	0x008B, r29
    9ae4:	c0 93 8a 00 	sts	0x008A, r28
    9ae8:	74 c0       	rjmp	.+232    	; 0x9bd2 <analogWrite+0x1ae>
    9aea:	80 91 b0 00 	lds	r24, 0x00B0
    9aee:	80 68       	ori	r24, 0x80	; 128
    9af0:	80 93 b0 00 	sts	0x00B0, r24
    9af4:	c0 93 b3 00 	sts	0x00B3, r28
    9af8:	6c c0       	rjmp	.+216    	; 0x9bd2 <analogWrite+0x1ae>
    9afa:	80 91 b0 00 	lds	r24, 0x00B0
    9afe:	80 62       	ori	r24, 0x20	; 32
    9b00:	80 93 b0 00 	sts	0x00B0, r24
    9b04:	c0 93 b4 00 	sts	0x00B4, r28
    9b08:	64 c0       	rjmp	.+200    	; 0x9bd2 <analogWrite+0x1ae>
    9b0a:	80 91 90 00 	lds	r24, 0x0090
    9b0e:	80 68       	ori	r24, 0x80	; 128
    9b10:	80 93 90 00 	sts	0x0090, r24
    9b14:	d0 93 99 00 	sts	0x0099, r29
    9b18:	c0 93 98 00 	sts	0x0098, r28
    9b1c:	5a c0       	rjmp	.+180    	; 0x9bd2 <analogWrite+0x1ae>
    9b1e:	80 91 90 00 	lds	r24, 0x0090
    9b22:	80 62       	ori	r24, 0x20	; 32
    9b24:	80 93 90 00 	sts	0x0090, r24
    9b28:	d0 93 9b 00 	sts	0x009B, r29
    9b2c:	c0 93 9a 00 	sts	0x009A, r28
    9b30:	50 c0       	rjmp	.+160    	; 0x9bd2 <analogWrite+0x1ae>
    9b32:	80 91 90 00 	lds	r24, 0x0090
    9b36:	88 60       	ori	r24, 0x08	; 8
    9b38:	80 93 90 00 	sts	0x0090, r24
    9b3c:	d0 93 9d 00 	sts	0x009D, r29
    9b40:	c0 93 9c 00 	sts	0x009C, r28
    9b44:	46 c0       	rjmp	.+140    	; 0x9bd2 <analogWrite+0x1ae>
    9b46:	80 91 a0 00 	lds	r24, 0x00A0
    9b4a:	80 68       	ori	r24, 0x80	; 128
    9b4c:	80 93 a0 00 	sts	0x00A0, r24
    9b50:	d0 93 a9 00 	sts	0x00A9, r29
    9b54:	c0 93 a8 00 	sts	0x00A8, r28
    9b58:	3c c0       	rjmp	.+120    	; 0x9bd2 <analogWrite+0x1ae>
    9b5a:	80 91 a0 00 	lds	r24, 0x00A0
    9b5e:	80 62       	ori	r24, 0x20	; 32
    9b60:	80 93 a0 00 	sts	0x00A0, r24
    9b64:	d0 93 ab 00 	sts	0x00AB, r29
    9b68:	c0 93 aa 00 	sts	0x00AA, r28
    9b6c:	32 c0       	rjmp	.+100    	; 0x9bd2 <analogWrite+0x1ae>
    9b6e:	80 91 a0 00 	lds	r24, 0x00A0
    9b72:	88 60       	ori	r24, 0x08	; 8
    9b74:	80 93 a0 00 	sts	0x00A0, r24
    9b78:	d0 93 ad 00 	sts	0x00AD, r29
    9b7c:	c0 93 ac 00 	sts	0x00AC, r28
    9b80:	28 c0       	rjmp	.+80     	; 0x9bd2 <analogWrite+0x1ae>
    9b82:	80 91 20 01 	lds	r24, 0x0120
    9b86:	80 68       	ori	r24, 0x80	; 128
    9b88:	80 93 20 01 	sts	0x0120, r24
    9b8c:	d0 93 29 01 	sts	0x0129, r29
    9b90:	c0 93 28 01 	sts	0x0128, r28
    9b94:	1e c0       	rjmp	.+60     	; 0x9bd2 <analogWrite+0x1ae>
    9b96:	80 91 20 01 	lds	r24, 0x0120
    9b9a:	80 62       	ori	r24, 0x20	; 32
    9b9c:	80 93 20 01 	sts	0x0120, r24
    9ba0:	d0 93 2b 01 	sts	0x012B, r29
    9ba4:	c0 93 2a 01 	sts	0x012A, r28
    9ba8:	14 c0       	rjmp	.+40     	; 0x9bd2 <analogWrite+0x1ae>
    9baa:	80 91 20 01 	lds	r24, 0x0120
    9bae:	88 60       	ori	r24, 0x08	; 8
    9bb0:	80 93 20 01 	sts	0x0120, r24
    9bb4:	d0 93 2d 01 	sts	0x012D, r29
    9bb8:	c0 93 2c 01 	sts	0x012C, r28
    9bbc:	0a c0       	rjmp	.+20     	; 0x9bd2 <analogWrite+0x1ae>
    9bbe:	c0 38       	cpi	r28, 0x80	; 128
    9bc0:	d1 05       	cpc	r29, r1
    9bc2:	1c f4       	brge	.+6      	; 0x9bca <analogWrite+0x1a6>
    9bc4:	81 2f       	mov	r24, r17
    9bc6:	60 e0       	ldi	r22, 0x00	; 0
    9bc8:	02 c0       	rjmp	.+4      	; 0x9bce <analogWrite+0x1aa>
    9bca:	81 2f       	mov	r24, r17
    9bcc:	61 e0       	ldi	r22, 0x01	; 1
    9bce:	0e 94 86 4e 	call	0x9d0c	; 0x9d0c <digitalWrite>
    9bd2:	df 91       	pop	r29
    9bd4:	cf 91       	pop	r28
    9bd6:	1f 91       	pop	r17
    9bd8:	08 95       	ret

00009bda <pinMode>:
    9bda:	48 2f       	mov	r20, r24
    9bdc:	50 e0       	ldi	r21, 0x00	; 0
    9bde:	ca 01       	movw	r24, r20
    9be0:	88 58       	subi	r24, 0x88	; 136
    9be2:	9e 4f       	sbci	r25, 0xFE	; 254
    9be4:	fc 01       	movw	r30, r24
    9be6:	24 91       	lpm	r18, Z+
    9be8:	4e 5c       	subi	r20, 0xCE	; 206
    9bea:	5e 4f       	sbci	r21, 0xFE	; 254
    9bec:	fa 01       	movw	r30, r20
    9bee:	84 91       	lpm	r24, Z+
    9bf0:	88 23       	and	r24, r24
    9bf2:	c1 f0       	breq	.+48     	; 0x9c24 <pinMode+0x4a>
    9bf4:	e8 2f       	mov	r30, r24
    9bf6:	f0 e0       	ldi	r31, 0x00	; 0
    9bf8:	ee 0f       	add	r30, r30
    9bfa:	ff 1f       	adc	r31, r31
    9bfc:	ec 51       	subi	r30, 0x1C	; 28
    9bfe:	ff 4f       	sbci	r31, 0xFF	; 255
    9c00:	a5 91       	lpm	r26, Z+
    9c02:	b4 91       	lpm	r27, Z+
    9c04:	66 23       	and	r22, r22
    9c06:	41 f4       	brne	.+16     	; 0x9c18 <pinMode+0x3e>
    9c08:	9f b7       	in	r25, 0x3f	; 63
    9c0a:	f8 94       	cli
    9c0c:	8c 91       	ld	r24, X
    9c0e:	20 95       	com	r18
    9c10:	82 23       	and	r24, r18
    9c12:	8c 93       	st	X, r24
    9c14:	9f bf       	out	0x3f, r25	; 63
    9c16:	08 95       	ret
    9c18:	9f b7       	in	r25, 0x3f	; 63
    9c1a:	f8 94       	cli
    9c1c:	8c 91       	ld	r24, X
    9c1e:	82 2b       	or	r24, r18
    9c20:	8c 93       	st	X, r24
    9c22:	9f bf       	out	0x3f, r25	; 63
    9c24:	08 95       	ret

00009c26 <turnOffPWM>:
    9c26:	89 30       	cpi	r24, 0x09	; 9
    9c28:	09 f4       	brne	.+2      	; 0x9c2c <turnOffPWM+0x6>
    9c2a:	48 c0       	rjmp	.+144    	; 0x9cbc <turnOffPWM+0x96>
    9c2c:	8a 30       	cpi	r24, 0x0A	; 10
    9c2e:	a0 f4       	brcc	.+40     	; 0x9c58 <turnOffPWM+0x32>
    9c30:	84 30       	cpi	r24, 0x04	; 4
    9c32:	49 f1       	breq	.+82     	; 0x9c86 <turnOffPWM+0x60>
    9c34:	85 30       	cpi	r24, 0x05	; 5
    9c36:	40 f4       	brcc	.+16     	; 0x9c48 <turnOffPWM+0x22>
    9c38:	82 30       	cpi	r24, 0x02	; 2
    9c3a:	71 f1       	breq	.+92     	; 0x9c98 <turnOffPWM+0x72>
    9c3c:	83 30       	cpi	r24, 0x03	; 3
    9c3e:	f8 f4       	brcc	.+62     	; 0x9c7e <turnOffPWM+0x58>
    9c40:	81 30       	cpi	r24, 0x01	; 1
    9c42:	09 f0       	breq	.+2      	; 0x9c46 <turnOffPWM+0x20>
    9c44:	62 c0       	rjmp	.+196    	; 0x9d0a <turnOffPWM+0xe4>
    9c46:	25 c0       	rjmp	.+74     	; 0x9c92 <turnOffPWM+0x6c>
    9c48:	87 30       	cpi	r24, 0x07	; 7
    9c4a:	71 f1       	breq	.+92     	; 0x9ca8 <turnOffPWM+0x82>
    9c4c:	88 30       	cpi	r24, 0x08	; 8
    9c4e:	90 f5       	brcc	.+100    	; 0x9cb4 <turnOffPWM+0x8e>
    9c50:	86 30       	cpi	r24, 0x06	; 6
    9c52:	09 f0       	breq	.+2      	; 0x9c56 <turnOffPWM+0x30>
    9c54:	5a c0       	rjmp	.+180    	; 0x9d0a <turnOffPWM+0xe4>
    9c56:	24 c0       	rjmp	.+72     	; 0x9ca0 <turnOffPWM+0x7a>
    9c58:	8d 30       	cpi	r24, 0x0D	; 13
    9c5a:	09 f4       	brne	.+2      	; 0x9c5e <turnOffPWM+0x38>
    9c5c:	41 c0       	rjmp	.+130    	; 0x9ce0 <turnOffPWM+0xba>
    9c5e:	8e 30       	cpi	r24, 0x0E	; 14
    9c60:	28 f4       	brcc	.+10     	; 0x9c6c <turnOffPWM+0x46>
    9c62:	8b 30       	cpi	r24, 0x0B	; 11
    9c64:	a9 f1       	breq	.+106    	; 0x9cd0 <turnOffPWM+0xaa>
    9c66:	8c 30       	cpi	r24, 0x0C	; 12
    9c68:	b8 f5       	brcc	.+110    	; 0x9cd8 <turnOffPWM+0xb2>
    9c6a:	2c c0       	rjmp	.+88     	; 0x9cc4 <turnOffPWM+0x9e>
    9c6c:	8f 30       	cpi	r24, 0x0F	; 15
    9c6e:	09 f4       	brne	.+2      	; 0x9c72 <turnOffPWM+0x4c>
    9c70:	41 c0       	rjmp	.+130    	; 0x9cf4 <turnOffPWM+0xce>
    9c72:	8f 30       	cpi	r24, 0x0F	; 15
    9c74:	d8 f1       	brcs	.+118    	; 0x9cec <turnOffPWM+0xc6>
    9c76:	80 31       	cpi	r24, 0x10	; 16
    9c78:	09 f0       	breq	.+2      	; 0x9c7c <turnOffPWM+0x56>
    9c7a:	47 c0       	rjmp	.+142    	; 0x9d0a <turnOffPWM+0xe4>
    9c7c:	41 c0       	rjmp	.+130    	; 0x9d00 <turnOffPWM+0xda>
    9c7e:	80 91 80 00 	lds	r24, 0x0080
    9c82:	8f 77       	andi	r24, 0x7F	; 127
    9c84:	03 c0       	rjmp	.+6      	; 0x9c8c <turnOffPWM+0x66>
    9c86:	80 91 80 00 	lds	r24, 0x0080
    9c8a:	8f 7d       	andi	r24, 0xDF	; 223
    9c8c:	80 93 80 00 	sts	0x0080, r24
    9c90:	08 95       	ret
    9c92:	84 b5       	in	r24, 0x24	; 36
    9c94:	8f 77       	andi	r24, 0x7F	; 127
    9c96:	02 c0       	rjmp	.+4      	; 0x9c9c <turnOffPWM+0x76>
    9c98:	84 b5       	in	r24, 0x24	; 36
    9c9a:	8f 7d       	andi	r24, 0xDF	; 223
    9c9c:	84 bd       	out	0x24, r24	; 36
    9c9e:	08 95       	ret
    9ca0:	80 91 b0 00 	lds	r24, 0x00B0
    9ca4:	8f 77       	andi	r24, 0x7F	; 127
    9ca6:	03 c0       	rjmp	.+6      	; 0x9cae <turnOffPWM+0x88>
    9ca8:	80 91 b0 00 	lds	r24, 0x00B0
    9cac:	8f 7d       	andi	r24, 0xDF	; 223
    9cae:	80 93 b0 00 	sts	0x00B0, r24
    9cb2:	08 95       	ret
    9cb4:	80 91 90 00 	lds	r24, 0x0090
    9cb8:	8f 77       	andi	r24, 0x7F	; 127
    9cba:	07 c0       	rjmp	.+14     	; 0x9cca <turnOffPWM+0xa4>
    9cbc:	80 91 90 00 	lds	r24, 0x0090
    9cc0:	8f 7d       	andi	r24, 0xDF	; 223
    9cc2:	03 c0       	rjmp	.+6      	; 0x9cca <turnOffPWM+0xa4>
    9cc4:	80 91 90 00 	lds	r24, 0x0090
    9cc8:	87 7f       	andi	r24, 0xF7	; 247
    9cca:	80 93 90 00 	sts	0x0090, r24
    9cce:	08 95       	ret
    9cd0:	80 91 a0 00 	lds	r24, 0x00A0
    9cd4:	8f 77       	andi	r24, 0x7F	; 127
    9cd6:	07 c0       	rjmp	.+14     	; 0x9ce6 <turnOffPWM+0xc0>
    9cd8:	80 91 a0 00 	lds	r24, 0x00A0
    9cdc:	8f 7d       	andi	r24, 0xDF	; 223
    9cde:	03 c0       	rjmp	.+6      	; 0x9ce6 <turnOffPWM+0xc0>
    9ce0:	80 91 a0 00 	lds	r24, 0x00A0
    9ce4:	87 7f       	andi	r24, 0xF7	; 247
    9ce6:	80 93 a0 00 	sts	0x00A0, r24
    9cea:	08 95       	ret
    9cec:	80 91 20 01 	lds	r24, 0x0120
    9cf0:	8f 77       	andi	r24, 0x7F	; 127
    9cf2:	03 c0       	rjmp	.+6      	; 0x9cfa <turnOffPWM+0xd4>
    9cf4:	80 91 20 01 	lds	r24, 0x0120
    9cf8:	8f 7d       	andi	r24, 0xDF	; 223
    9cfa:	80 93 20 01 	sts	0x0120, r24
    9cfe:	08 95       	ret
    9d00:	80 91 20 01 	lds	r24, 0x0120
    9d04:	87 7f       	andi	r24, 0xF7	; 247
    9d06:	80 93 20 01 	sts	0x0120, r24
    9d0a:	08 95       	ret

00009d0c <digitalWrite>:
    9d0c:	ff 92       	push	r15
    9d0e:	0f 93       	push	r16
    9d10:	1f 93       	push	r17
    9d12:	f6 2e       	mov	r15, r22
    9d14:	48 2f       	mov	r20, r24
    9d16:	50 e0       	ldi	r21, 0x00	; 0
    9d18:	ca 01       	movw	r24, r20
    9d1a:	82 54       	subi	r24, 0x42	; 66
    9d1c:	9e 4f       	sbci	r25, 0xFE	; 254
    9d1e:	fc 01       	movw	r30, r24
    9d20:	24 91       	lpm	r18, Z+
    9d22:	ca 01       	movw	r24, r20
    9d24:	88 58       	subi	r24, 0x88	; 136
    9d26:	9e 4f       	sbci	r25, 0xFE	; 254
    9d28:	fc 01       	movw	r30, r24
    9d2a:	14 91       	lpm	r17, Z+
    9d2c:	4e 5c       	subi	r20, 0xCE	; 206
    9d2e:	5e 4f       	sbci	r21, 0xFE	; 254
    9d30:	fa 01       	movw	r30, r20
    9d32:	04 91       	lpm	r16, Z+
    9d34:	00 23       	and	r16, r16
    9d36:	d9 f0       	breq	.+54     	; 0x9d6e <digitalWrite+0x62>
    9d38:	22 23       	and	r18, r18
    9d3a:	19 f0       	breq	.+6      	; 0x9d42 <digitalWrite+0x36>
    9d3c:	82 2f       	mov	r24, r18
    9d3e:	0e 94 13 4e 	call	0x9c26	; 0x9c26 <turnOffPWM>
    9d42:	e0 2f       	mov	r30, r16
    9d44:	f0 e0       	ldi	r31, 0x00	; 0
    9d46:	ee 0f       	add	r30, r30
    9d48:	ff 1f       	adc	r31, r31
    9d4a:	e2 50       	subi	r30, 0x02	; 2
    9d4c:	ff 4f       	sbci	r31, 0xFF	; 255
    9d4e:	a5 91       	lpm	r26, Z+
    9d50:	b4 91       	lpm	r27, Z+
    9d52:	ff 20       	and	r15, r15
    9d54:	31 f4       	brne	.+12     	; 0x9d62 <digitalWrite+0x56>
    9d56:	9f b7       	in	r25, 0x3f	; 63
    9d58:	f8 94       	cli
    9d5a:	8c 91       	ld	r24, X
    9d5c:	10 95       	com	r17
    9d5e:	81 23       	and	r24, r17
    9d60:	04 c0       	rjmp	.+8      	; 0x9d6a <digitalWrite+0x5e>
    9d62:	9f b7       	in	r25, 0x3f	; 63
    9d64:	f8 94       	cli
    9d66:	8c 91       	ld	r24, X
    9d68:	81 2b       	or	r24, r17
    9d6a:	8c 93       	st	X, r24
    9d6c:	9f bf       	out	0x3f, r25	; 63
    9d6e:	1f 91       	pop	r17
    9d70:	0f 91       	pop	r16
    9d72:	ff 90       	pop	r15
    9d74:	08 95       	ret

00009d76 <digitalRead>:
    9d76:	0f 93       	push	r16
    9d78:	1f 93       	push	r17
    9d7a:	48 2f       	mov	r20, r24
    9d7c:	50 e0       	ldi	r21, 0x00	; 0
    9d7e:	ca 01       	movw	r24, r20
    9d80:	82 54       	subi	r24, 0x42	; 66
    9d82:	9e 4f       	sbci	r25, 0xFE	; 254
    9d84:	fc 01       	movw	r30, r24
    9d86:	24 91       	lpm	r18, Z+
    9d88:	ca 01       	movw	r24, r20
    9d8a:	88 58       	subi	r24, 0x88	; 136
    9d8c:	9e 4f       	sbci	r25, 0xFE	; 254
    9d8e:	fc 01       	movw	r30, r24
    9d90:	04 91       	lpm	r16, Z+
    9d92:	4e 5c       	subi	r20, 0xCE	; 206
    9d94:	5e 4f       	sbci	r21, 0xFE	; 254
    9d96:	fa 01       	movw	r30, r20
    9d98:	14 91       	lpm	r17, Z+
    9d9a:	11 23       	and	r17, r17
    9d9c:	19 f4       	brne	.+6      	; 0x9da4 <digitalRead+0x2e>
    9d9e:	20 e0       	ldi	r18, 0x00	; 0
    9da0:	30 e0       	ldi	r19, 0x00	; 0
    9da2:	15 c0       	rjmp	.+42     	; 0x9dce <digitalRead+0x58>
    9da4:	22 23       	and	r18, r18
    9da6:	19 f0       	breq	.+6      	; 0x9dae <digitalRead+0x38>
    9da8:	82 2f       	mov	r24, r18
    9daa:	0e 94 13 4e 	call	0x9c26	; 0x9c26 <turnOffPWM>
    9dae:	81 2f       	mov	r24, r17
    9db0:	90 e0       	ldi	r25, 0x00	; 0
    9db2:	88 0f       	add	r24, r24
    9db4:	99 1f       	adc	r25, r25
    9db6:	88 5e       	subi	r24, 0xE8	; 232
    9db8:	9e 4f       	sbci	r25, 0xFE	; 254
    9dba:	fc 01       	movw	r30, r24
    9dbc:	a5 91       	lpm	r26, Z+
    9dbe:	b4 91       	lpm	r27, Z+
    9dc0:	8c 91       	ld	r24, X
    9dc2:	20 e0       	ldi	r18, 0x00	; 0
    9dc4:	30 e0       	ldi	r19, 0x00	; 0
    9dc6:	80 23       	and	r24, r16
    9dc8:	11 f0       	breq	.+4      	; 0x9dce <digitalRead+0x58>
    9dca:	21 e0       	ldi	r18, 0x01	; 1
    9dcc:	30 e0       	ldi	r19, 0x00	; 0
    9dce:	c9 01       	movw	r24, r18
    9dd0:	1f 91       	pop	r17
    9dd2:	0f 91       	pop	r16
    9dd4:	08 95       	ret

00009dd6 <__mulsi3>:
    9dd6:	62 9f       	mul	r22, r18
    9dd8:	d0 01       	movw	r26, r0
    9dda:	73 9f       	mul	r23, r19
    9ddc:	f0 01       	movw	r30, r0
    9dde:	82 9f       	mul	r24, r18
    9de0:	e0 0d       	add	r30, r0
    9de2:	f1 1d       	adc	r31, r1
    9de4:	64 9f       	mul	r22, r20
    9de6:	e0 0d       	add	r30, r0
    9de8:	f1 1d       	adc	r31, r1
    9dea:	92 9f       	mul	r25, r18
    9dec:	f0 0d       	add	r31, r0
    9dee:	83 9f       	mul	r24, r19
    9df0:	f0 0d       	add	r31, r0
    9df2:	74 9f       	mul	r23, r20
    9df4:	f0 0d       	add	r31, r0
    9df6:	65 9f       	mul	r22, r21
    9df8:	f0 0d       	add	r31, r0
    9dfa:	99 27       	eor	r25, r25
    9dfc:	72 9f       	mul	r23, r18
    9dfe:	b0 0d       	add	r27, r0
    9e00:	e1 1d       	adc	r30, r1
    9e02:	f9 1f       	adc	r31, r25
    9e04:	63 9f       	mul	r22, r19
    9e06:	b0 0d       	add	r27, r0
    9e08:	e1 1d       	adc	r30, r1
    9e0a:	f9 1f       	adc	r31, r25
    9e0c:	bd 01       	movw	r22, r26
    9e0e:	cf 01       	movw	r24, r30
    9e10:	11 24       	eor	r1, r1
    9e12:	08 95       	ret

00009e14 <__udivmodsi4>:
    9e14:	a1 e2       	ldi	r26, 0x21	; 33
    9e16:	1a 2e       	mov	r1, r26
    9e18:	aa 1b       	sub	r26, r26
    9e1a:	bb 1b       	sub	r27, r27
    9e1c:	fd 01       	movw	r30, r26
    9e1e:	0d c0       	rjmp	.+26     	; 0x9e3a <__udivmodsi4_ep>

00009e20 <__udivmodsi4_loop>:
    9e20:	aa 1f       	adc	r26, r26
    9e22:	bb 1f       	adc	r27, r27
    9e24:	ee 1f       	adc	r30, r30
    9e26:	ff 1f       	adc	r31, r31
    9e28:	a2 17       	cp	r26, r18
    9e2a:	b3 07       	cpc	r27, r19
    9e2c:	e4 07       	cpc	r30, r20
    9e2e:	f5 07       	cpc	r31, r21
    9e30:	20 f0       	brcs	.+8      	; 0x9e3a <__udivmodsi4_ep>
    9e32:	a2 1b       	sub	r26, r18
    9e34:	b3 0b       	sbc	r27, r19
    9e36:	e4 0b       	sbc	r30, r20
    9e38:	f5 0b       	sbc	r31, r21

00009e3a <__udivmodsi4_ep>:
    9e3a:	66 1f       	adc	r22, r22
    9e3c:	77 1f       	adc	r23, r23
    9e3e:	88 1f       	adc	r24, r24
    9e40:	99 1f       	adc	r25, r25
    9e42:	1a 94       	dec	r1
    9e44:	69 f7       	brne	.-38     	; 0x9e20 <__udivmodsi4_loop>
    9e46:	60 95       	com	r22
    9e48:	70 95       	com	r23
    9e4a:	80 95       	com	r24
    9e4c:	90 95       	com	r25
    9e4e:	9b 01       	movw	r18, r22
    9e50:	ac 01       	movw	r20, r24
    9e52:	bd 01       	movw	r22, r26
    9e54:	cf 01       	movw	r24, r30
    9e56:	08 95       	ret

00009e58 <__divmodsi4>:
    9e58:	97 fb       	bst	r25, 7
    9e5a:	09 2e       	mov	r0, r25
    9e5c:	05 26       	eor	r0, r21
    9e5e:	0e d0       	rcall	.+28     	; 0x9e7c <__divmodsi4_neg1>
    9e60:	57 fd       	sbrc	r21, 7
    9e62:	04 d0       	rcall	.+8      	; 0x9e6c <__divmodsi4_neg2>
    9e64:	d7 df       	rcall	.-82     	; 0x9e14 <__udivmodsi4>
    9e66:	0a d0       	rcall	.+20     	; 0x9e7c <__divmodsi4_neg1>
    9e68:	00 1c       	adc	r0, r0
    9e6a:	38 f4       	brcc	.+14     	; 0x9e7a <__divmodsi4_exit>

00009e6c <__divmodsi4_neg2>:
    9e6c:	50 95       	com	r21
    9e6e:	40 95       	com	r20
    9e70:	30 95       	com	r19
    9e72:	21 95       	neg	r18
    9e74:	3f 4f       	sbci	r19, 0xFF	; 255
    9e76:	4f 4f       	sbci	r20, 0xFF	; 255
    9e78:	5f 4f       	sbci	r21, 0xFF	; 255

00009e7a <__divmodsi4_exit>:
    9e7a:	08 95       	ret

00009e7c <__divmodsi4_neg1>:
    9e7c:	f6 f7       	brtc	.-4      	; 0x9e7a <__divmodsi4_exit>
    9e7e:	90 95       	com	r25
    9e80:	80 95       	com	r24
    9e82:	70 95       	com	r23
    9e84:	61 95       	neg	r22
    9e86:	7f 4f       	sbci	r23, 0xFF	; 255
    9e88:	8f 4f       	sbci	r24, 0xFF	; 255
    9e8a:	9f 4f       	sbci	r25, 0xFF	; 255
    9e8c:	08 95       	ret

00009e8e <__prologue_saves__>:
    9e8e:	2f 92       	push	r2
    9e90:	3f 92       	push	r3
    9e92:	4f 92       	push	r4
    9e94:	5f 92       	push	r5
    9e96:	6f 92       	push	r6
    9e98:	7f 92       	push	r7
    9e9a:	8f 92       	push	r8
    9e9c:	9f 92       	push	r9
    9e9e:	af 92       	push	r10
    9ea0:	bf 92       	push	r11
    9ea2:	cf 92       	push	r12
    9ea4:	df 92       	push	r13
    9ea6:	ef 92       	push	r14
    9ea8:	ff 92       	push	r15
    9eaa:	0f 93       	push	r16
    9eac:	1f 93       	push	r17
    9eae:	cf 93       	push	r28
    9eb0:	df 93       	push	r29
    9eb2:	cd b7       	in	r28, 0x3d	; 61
    9eb4:	de b7       	in	r29, 0x3e	; 62
    9eb6:	ca 1b       	sub	r28, r26
    9eb8:	db 0b       	sbc	r29, r27
    9eba:	0f b6       	in	r0, 0x3f	; 63
    9ebc:	f8 94       	cli
    9ebe:	de bf       	out	0x3e, r29	; 62
    9ec0:	0f be       	out	0x3f, r0	; 63
    9ec2:	cd bf       	out	0x3d, r28	; 61
    9ec4:	09 94       	ijmp

00009ec6 <__epilogue_restores__>:
    9ec6:	2a 88       	ldd	r2, Y+18	; 0x12
    9ec8:	39 88       	ldd	r3, Y+17	; 0x11
    9eca:	48 88       	ldd	r4, Y+16	; 0x10
    9ecc:	5f 84       	ldd	r5, Y+15	; 0x0f
    9ece:	6e 84       	ldd	r6, Y+14	; 0x0e
    9ed0:	7d 84       	ldd	r7, Y+13	; 0x0d
    9ed2:	8c 84       	ldd	r8, Y+12	; 0x0c
    9ed4:	9b 84       	ldd	r9, Y+11	; 0x0b
    9ed6:	aa 84       	ldd	r10, Y+10	; 0x0a
    9ed8:	b9 84       	ldd	r11, Y+9	; 0x09
    9eda:	c8 84       	ldd	r12, Y+8	; 0x08
    9edc:	df 80       	ldd	r13, Y+7	; 0x07
    9ede:	ee 80       	ldd	r14, Y+6	; 0x06
    9ee0:	fd 80       	ldd	r15, Y+5	; 0x05
    9ee2:	0c 81       	ldd	r16, Y+4	; 0x04
    9ee4:	1b 81       	ldd	r17, Y+3	; 0x03
    9ee6:	aa 81       	ldd	r26, Y+2	; 0x02
    9ee8:	b9 81       	ldd	r27, Y+1	; 0x01
    9eea:	ce 0f       	add	r28, r30
    9eec:	d1 1d       	adc	r29, r1
    9eee:	0f b6       	in	r0, 0x3f	; 63
    9ef0:	f8 94       	cli
    9ef2:	de bf       	out	0x3e, r29	; 62
    9ef4:	0f be       	out	0x3f, r0	; 63
    9ef6:	cd bf       	out	0x3d, r28	; 61
    9ef8:	ed 01       	movw	r28, r26
    9efa:	08 95       	ret

00009efc <__tablejump2__>:
    9efc:	ee 0f       	add	r30, r30
    9efe:	ff 1f       	adc	r31, r31

00009f00 <__tablejump__>:
    9f00:	05 90       	lpm	r0, Z+
    9f02:	f4 91       	lpm	r31, Z+
    9f04:	e0 2d       	mov	r30, r0
    9f06:	09 94       	ijmp

00009f08 <isspace>:
    9f08:	91 11       	cpse	r25, r1
    9f0a:	16 c0       	rjmp	.+44     	; 0x9f38 <__ctype_isfalse>
    9f0c:	80 32       	cpi	r24, 0x20	; 32
    9f0e:	19 f0       	breq	.+6      	; 0x9f16 <isspace+0xe>
    9f10:	89 50       	subi	r24, 0x09	; 9
    9f12:	85 50       	subi	r24, 0x05	; 5
    9f14:	d0 f7       	brcc	.-12     	; 0x9f0a <isspace+0x2>
    9f16:	08 95       	ret

00009f18 <tolower>:
    9f18:	91 11       	cpse	r25, r1
    9f1a:	08 95       	ret
    9f1c:	81 54       	subi	r24, 0x41	; 65
    9f1e:	8a 51       	subi	r24, 0x1A	; 26
    9f20:	08 f4       	brcc	.+2      	; 0x9f24 <tolower+0xc>
    9f22:	80 5e       	subi	r24, 0xE0	; 224
    9f24:	85 5a       	subi	r24, 0xA5	; 165
    9f26:	08 95       	ret

00009f28 <toupper>:
    9f28:	91 11       	cpse	r25, r1
    9f2a:	08 95       	ret
    9f2c:	81 56       	subi	r24, 0x61	; 97
    9f2e:	8a 51       	subi	r24, 0x1A	; 26
    9f30:	08 f4       	brcc	.+2      	; 0x9f34 <toupper+0xc>
    9f32:	80 52       	subi	r24, 0x20	; 32
    9f34:	85 58       	subi	r24, 0x85	; 133
    9f36:	08 95       	ret

00009f38 <__ctype_isfalse>:
    9f38:	99 27       	eor	r25, r25
    9f3a:	88 27       	eor	r24, r24

00009f3c <__ctype_istrue>:
    9f3c:	08 95       	ret

00009f3e <__udivmodhi4>:
    9f3e:	aa 1b       	sub	r26, r26
    9f40:	bb 1b       	sub	r27, r27
    9f42:	51 e1       	ldi	r21, 0x11	; 17
    9f44:	07 c0       	rjmp	.+14     	; 0x9f54 <__udivmodhi4_ep>

00009f46 <__udivmodhi4_loop>:
    9f46:	aa 1f       	adc	r26, r26
    9f48:	bb 1f       	adc	r27, r27
    9f4a:	a6 17       	cp	r26, r22
    9f4c:	b7 07       	cpc	r27, r23
    9f4e:	10 f0       	brcs	.+4      	; 0x9f54 <__udivmodhi4_ep>
    9f50:	a6 1b       	sub	r26, r22
    9f52:	b7 0b       	sbc	r27, r23

00009f54 <__udivmodhi4_ep>:
    9f54:	88 1f       	adc	r24, r24
    9f56:	99 1f       	adc	r25, r25
    9f58:	5a 95       	dec	r21
    9f5a:	a9 f7       	brne	.-22     	; 0x9f46 <__udivmodhi4_loop>
    9f5c:	80 95       	com	r24
    9f5e:	90 95       	com	r25
    9f60:	bc 01       	movw	r22, r24
    9f62:	cd 01       	movw	r24, r26
    9f64:	08 95       	ret

00009f66 <__do_global_dtors>:
    9f66:	12 e0       	ldi	r17, 0x02	; 2
    9f68:	ca e0       	ldi	r28, 0x0A	; 10
    9f6a:	d2 e0       	ldi	r29, 0x02	; 2
    9f6c:	04 c0       	rjmp	.+8      	; 0x9f76 <.do_global_dtors_start>

00009f6e <.do_global_dtors_loop>:
    9f6e:	fe 01       	movw	r30, r28
    9f70:	0e 94 80 4f 	call	0x9f00	; 0x9f00 <__tablejump__>
    9f74:	22 96       	adiw	r28, 0x02	; 2

00009f76 <.do_global_dtors_start>:
    9f76:	cc 30       	cpi	r28, 0x0C	; 12
    9f78:	d1 07       	cpc	r29, r17
    9f7a:	c9 f7       	brne	.-14     	; 0x9f6e <.do_global_dtors_loop>
    9f7c:	f8 94       	cli

00009f7e <__stop_program>:
    9f7e:	ff cf       	rjmp	.-2      	; 0x9f7e <__stop_program>
